GAS LISTING /tmp/cckMj0Nq.s 			page 1


   1              		.file	"_buffer.cpp"
   2              		.option pic
   3              		.option norelax
   4              		.text
   5              	.Ltext0:
   6              		.align	2
   7              		.globl	_ZN14KeyboardBuffer4takeEv
   9              	_ZN14KeyboardBuffer4takeEv:
  10              	.LFB35:
  11              		.file 1 "src/_buffer.cpp"
   1:src/_buffer.cpp **** //
   2:src/_buffer.cpp **** // Created by os on 9/10/22.
   3:src/_buffer.cpp **** //
   4:src/_buffer.cpp **** #include "../h/_buffer.hpp"
   5:src/_buffer.cpp **** 
   6:src/_buffer.cpp **** 
   7:src/_buffer.cpp **** //static KeyboardBuffer* instance () {
   8:src/_buffer.cpp **** //    static KeyboardBuffer _instance;
   9:src/_buffer.cpp **** //    return &_instance;
  10:src/_buffer.cpp **** //}
  11:src/_buffer.cpp **** 
  12:src/_buffer.cpp **** //imlementacija uzeta iz zadatka sa klk3
  13:src/_buffer.cpp **** char KeyboardBuffer::take () {
  12              		.loc 1 13 30
  13              		.cfi_startproc
  14              	.LVL0:
  15 0000 130101FE 		addi	sp,sp,-32
  16              		.cfi_def_cfa_offset 32
  17 0004 233C1100 		sd	ra,24(sp)
  18 0008 23388100 		sd	s0,16(sp)
  19 000c 23349100 		sd	s1,8(sp)
  20              		.cfi_offset 1, -8
  21              		.cfi_offset 8, -16
  22              		.cfi_offset 9, -24
  23 0010 13040102 		addi	s0,sp,32
  24              		.cfi_def_cfa 8, 0
  25 0014 93040500 		mv	s1,a0
  14:src/_buffer.cpp ****     itemAvailable->wait();
  26              		.loc 1 14 5
  27              		.loc 1 14 24 is_stmt 0
  28 0018 03350500 		ld	a0,0(a0)
  29              	.LVL1:
  30 001c 97000000 		call	_ZN4_sem4waitEv@plt
  30      E7800000 
  31              	.LVL2:
  15:src/_buffer.cpp **** //    kbint_mask();
  16:src/_buffer.cpp ****     char c = buffer[head];
  32              		.loc 1 16 5 is_stmt 1
  33              		.loc 1 16 21 is_stmt 0
  34 0024 83B78410 		ld	a5,264(s1)
  35              		.loc 1 16 10
  36 0028 3387F400 		add	a4,s1,a5
  37 002c 03458700 		lbu	a0,8(a4)
  38              	.LVL3:
  17:src/_buffer.cpp ****     head = (head+1)%KB_SIZE;
  39              		.loc 1 17 5 is_stmt 1
  40              		.loc 1 17 17 is_stmt 0
GAS LISTING /tmp/cckMj0Nq.s 			page 2


  41 0030 93871700 		addi	a5,a5,1
  42              		.loc 1 17 20
  43 0034 93F7F70F 		andi	a5,a5,255
  44              		.loc 1 17 10
  45 0038 23B4F410 		sd	a5,264(s1)
  18:src/_buffer.cpp ****     count--;
  46              		.loc 1 18 5 is_stmt 1
  47 003c 83B78411 		ld	a5,280(s1)
  48              		.loc 1 18 10 is_stmt 0
  49 0040 9387F7FF 		addi	a5,a5,-1
  50 0044 23BCF410 		sd	a5,280(s1)
  19:src/_buffer.cpp **** //    kbint_unmask();
  20:src/_buffer.cpp ****     return c;
  51              		.loc 1 20 5 is_stmt 1
  21:src/_buffer.cpp **** }
  52              		.loc 1 21 1 is_stmt 0
  53 0048 83308101 		ld	ra,24(sp)
  54              		.cfi_restore 1
  55 004c 03340101 		ld	s0,16(sp)
  56              		.cfi_restore 8
  57              		.cfi_def_cfa 2, 32
  58 0050 83348100 		ld	s1,8(sp)
  59              		.cfi_restore 9
  60              	.LVL4:
  61 0054 13010102 		addi	sp,sp,32
  62              		.cfi_def_cfa_offset 0
  63 0058 67800000 		jr	ra
  64              		.cfi_endproc
  65              	.LFE35:
  67              		.align	2
  68              		.globl	_ZN14KeyboardBuffer6appendEc
  70              	_ZN14KeyboardBuffer6appendEc:
  71              	.LFB36:
  22:src/_buffer.cpp **** void KeyboardBuffer::append (char c) {
  72              		.loc 1 22 38 is_stmt 1
  73              		.cfi_startproc
  74              	.LVL5:
  23:src/_buffer.cpp ****     if (count<KB_SIZE) {
  75              		.loc 1 23 5
  76              		.loc 1 23 9 is_stmt 0
  77 005c 83378511 		ld	a5,280(a0)
  78              		.loc 1 23 5
  79 0060 1307F00F 		li	a4,255
  80 0064 6374F700 		bleu	a5,a4,.L9
  81 0068 67800000 		ret
  82              	.L9:
  22:src/_buffer.cpp **** void KeyboardBuffer::append (char c) {
  83              		.loc 1 22 38
  84 006c 130101FF 		addi	sp,sp,-16
  85              		.cfi_def_cfa_offset 16
  86 0070 23341100 		sd	ra,8(sp)
  87 0074 23308100 		sd	s0,0(sp)
  88              		.cfi_offset 1, -8
  89              		.cfi_offset 8, -16
  90 0078 13040101 		addi	s0,sp,16
  91              		.cfi_def_cfa 8, 0
  24:src/_buffer.cpp ****         buffer[tail] = c;
GAS LISTING /tmp/cckMj0Nq.s 			page 3


  92              		.loc 1 24 9 is_stmt 1
  93              		.loc 1 24 16 is_stmt 0
  94 007c 03370511 		ld	a4,272(a0)
  95              		.loc 1 24 22
  96 0080 B306E500 		add	a3,a0,a4
  97 0084 2384B600 		sb	a1,8(a3)
  25:src/_buffer.cpp ****         tail = (tail+1)%KB_SIZE;
  98              		.loc 1 25 9 is_stmt 1
  99              		.loc 1 25 21 is_stmt 0
 100 0088 13071700 		addi	a4,a4,1
 101              		.loc 1 25 24
 102 008c 1377F70F 		andi	a4,a4,255
 103              		.loc 1 25 14
 104 0090 2338E510 		sd	a4,272(a0)
  26:src/_buffer.cpp ****         count++;
 105              		.loc 1 26 9 is_stmt 1
 106              		.loc 1 26 14 is_stmt 0
 107 0094 93871700 		addi	a5,a5,1
 108 0098 233CF510 		sd	a5,280(a0)
  27:src/_buffer.cpp ****         itemAvailable->signal();
 109              		.loc 1 27 9 is_stmt 1
 110              		.loc 1 27 30 is_stmt 0
 111 009c 03350500 		ld	a0,0(a0)
 112              	.LVL6:
 113 00a0 97000000 		call	_ZN4_sem6signalEv@plt
 113      E7800000 
 114              	.LVL7:
  28:src/_buffer.cpp ****     }
  29:src/_buffer.cpp **** }...
 115              		.loc 1 29 1
 116 00a8 83308100 		ld	ra,8(sp)
 117              		.cfi_restore 1
 118 00ac 03340100 		ld	s0,0(sp)
 119              		.cfi_restore 8
 120              		.cfi_def_cfa 2, 16
 121 00b0 13010101 		addi	sp,sp,16
 122              		.cfi_def_cfa_offset 0
 123 00b4 67800000 		jr	ra
 124              		.cfi_endproc
 125              	.LFE36:
 127              	.Letext0:
 128              		.file 2 "src/../h/../lib/hw.h"
 129              		.file 3 "src/../h/syscall_c.h"
 130              		.file 4 "src/../h/tcb.hpp"
 131              		.file 5 "src/../h/_sem.hpp"
 132              		.file 6 "src/../h/list.hpp"
 133              		.file 7 "src/../h/_buffer.hpp"
GAS LISTING /tmp/cckMj0Nq.s 			page 4


DEFINED SYMBOLS
                            *ABS*:0000000000000000 _buffer.cpp
     /tmp/cckMj0Nq.s:9      .text:0000000000000000 _ZN14KeyboardBuffer4takeEv
     /tmp/cckMj0Nq.s:13     .text:0000000000000000 .L0 
     /tmp/cckMj0Nq.s:15     .text:0000000000000000 .L0 
     /tmp/cckMj0Nq.s:16     .text:0000000000000004 .L0 
     /tmp/cckMj0Nq.s:20     .text:0000000000000010 .L0 
     /tmp/cckMj0Nq.s:21     .text:0000000000000010 .L0 
     /tmp/cckMj0Nq.s:22     .text:0000000000000010 .L0 
     /tmp/cckMj0Nq.s:24     .text:0000000000000014 .L0 
     /tmp/cckMj0Nq.s:27     .text:0000000000000018 .L0 
     /tmp/cckMj0Nq.s:28     .text:0000000000000018 .L0 
     /tmp/cckMj0Nq.s:33     .text:0000000000000024 .L0 
     /tmp/cckMj0Nq.s:34     .text:0000000000000024 .L0 
     /tmp/cckMj0Nq.s:36     .text:0000000000000028 .L0 
     /tmp/cckMj0Nq.s:40     .text:0000000000000030 .L0 
     /tmp/cckMj0Nq.s:41     .text:0000000000000030 .L0 
     /tmp/cckMj0Nq.s:43     .text:0000000000000034 .L0 
     /tmp/cckMj0Nq.s:45     .text:0000000000000038 .L0 
     /tmp/cckMj0Nq.s:47     .text:000000000000003c .L0 
     /tmp/cckMj0Nq.s:49     .text:0000000000000040 .L0 
     /tmp/cckMj0Nq.s:52     .text:0000000000000048 .L0 
     /tmp/cckMj0Nq.s:53     .text:0000000000000048 .L0 
     /tmp/cckMj0Nq.s:54     .text:000000000000004c .L0 
     /tmp/cckMj0Nq.s:56     .text:0000000000000050 .L0 
     /tmp/cckMj0Nq.s:57     .text:0000000000000050 .L0 
     /tmp/cckMj0Nq.s:59     .text:0000000000000054 .L0 
     /tmp/cckMj0Nq.s:62     .text:0000000000000058 .L0 
     /tmp/cckMj0Nq.s:64     .text:000000000000005c .L0 
     /tmp/cckMj0Nq.s:70     .text:000000000000005c _ZN14KeyboardBuffer6appendEc
     /tmp/cckMj0Nq.s:73     .text:000000000000005c .L0 
     /tmp/cckMj0Nq.s:75     .text:000000000000005c .L0 
     /tmp/cckMj0Nq.s:76     .text:000000000000005c .L0 
     /tmp/cckMj0Nq.s:77     .text:000000000000005c .L0 
     /tmp/cckMj0Nq.s:79     .text:0000000000000060 .L0 
     /tmp/cckMj0Nq.s:84     .text:000000000000006c .L0 
     /tmp/cckMj0Nq.s:85     .text:0000000000000070 .L0 
     /tmp/cckMj0Nq.s:88     .text:0000000000000078 .L0 
     /tmp/cckMj0Nq.s:89     .text:0000000000000078 .L0 
     /tmp/cckMj0Nq.s:91     .text:000000000000007c .L0 
     /tmp/cckMj0Nq.s:93     .text:000000000000007c .L0 
     /tmp/cckMj0Nq.s:94     .text:000000000000007c .L0 
     /tmp/cckMj0Nq.s:96     .text:0000000000000080 .L0 
     /tmp/cckMj0Nq.s:99     .text:0000000000000088 .L0 
     /tmp/cckMj0Nq.s:100    .text:0000000000000088 .L0 
     /tmp/cckMj0Nq.s:102    .text:000000000000008c .L0 
     /tmp/cckMj0Nq.s:104    .text:0000000000000090 .L0 
     /tmp/cckMj0Nq.s:106    .text:0000000000000094 .L0 
     /tmp/cckMj0Nq.s:107    .text:0000000000000094 .L0 
     /tmp/cckMj0Nq.s:110    .text:000000000000009c .L0 
     /tmp/cckMj0Nq.s:111    .text:000000000000009c .L0 
     /tmp/cckMj0Nq.s:116    .text:00000000000000a8 .L0 
     /tmp/cckMj0Nq.s:117    .text:00000000000000ac .L0 
     /tmp/cckMj0Nq.s:119    .text:00000000000000b0 .L0 
     /tmp/cckMj0Nq.s:120    .text:00000000000000b0 .L0 
     /tmp/cckMj0Nq.s:122    .text:00000000000000b4 .L0 
     /tmp/cckMj0Nq.s:124    .text:00000000000000b8 .L0 
GAS LISTING /tmp/cckMj0Nq.s 			page 5


     /tmp/cckMj0Nq.s:134    .text:00000000000000b8 .L0 
     /tmp/cckMj0Nq.s:82     .text:000000000000006c .L9
     /tmp/cckMj0Nq.s:1219   .debug_abbrev:0000000000000000 .Ldebug_abbrev0
     /tmp/cckMj0Nq.s:2375   .debug_str:0000000000000703 .LASF127
     /tmp/cckMj0Nq.s:2259   .debug_str:00000000000003a9 .LASF128
     /tmp/cckMj0Nq.s:2215   .debug_str:000000000000022b .LASF129
     /tmp/cckMj0Nq.s:5      .text:0000000000000000 .Ltext0
     /tmp/cckMj0Nq.s:127    .text:00000000000000b8 .Letext0
     /tmp/cckMj0Nq.s:2135   .debug_line:0000000000000000 .Ldebug_line0
     /tmp/cckMj0Nq.s:2293   .debug_str:00000000000004b1 .LASF0
     /tmp/cckMj0Nq.s:2309   .debug_str:0000000000000509 .LASF1
     /tmp/cckMj0Nq.s:2275   .debug_str:000000000000042a .LASF2
     /tmp/cckMj0Nq.s:2241   .debug_str:000000000000031b .LASF4
     /tmp/cckMj0Nq.s:2351   .debug_str:0000000000000650 .LASF3
     /tmp/cckMj0Nq.s:2163   .debug_str:00000000000000b6 .LASF5
     /tmp/cckMj0Nq.s:2195   .debug_str:00000000000001bc .LASF6
     /tmp/cckMj0Nq.s:2315   .debug_str:0000000000000547 .LASF7
     /tmp/cckMj0Nq.s:2291   .debug_str:000000000000049e .LASF8
     /tmp/cckMj0Nq.s:2391   .debug_str:0000000000000863 .LASF9
     /tmp/cckMj0Nq.s:2223   .debug_str:000000000000029c .LASF10
     /tmp/cckMj0Nq.s:2329   .debug_str:00000000000005b4 .LASF11
     /tmp/cckMj0Nq.s:2379   .debug_str:00000000000007e2 .LASF12
     /tmp/cckMj0Nq.s:2169   .debug_str:00000000000000e7 .LASF13
     /tmp/cckMj0Nq.s:2149   .debug_str:000000000000004b .LASF14
     /tmp/cckMj0Nq.s:2175   .debug_str:0000000000000120 .LASF15
     /tmp/cckMj0Nq.s:2345   .debug_str:0000000000000613 .LASF16
     /tmp/cckMj0Nq.s:2187   .debug_str:0000000000000183 .LASF17
     /tmp/cckMj0Nq.s:2137   .debug_str:0000000000000000 .LASF18
     /tmp/cckMj0Nq.s:2237   .debug_str:000000000000030e .LASF45
     /tmp/cckMj0Nq.s:2153   .debug_str:0000000000000068 .LASF130
     /tmp/cckMj0Nq.s:2383   .debug_str:000000000000081d .LASF19
     /tmp/cckMj0Nq.s:2321   .debug_str:000000000000057d .LASF21
     /tmp/cckMj0Nq.s:2317   .debug_str:000000000000055a .LASF23
     /tmp/cckMj0Nq.s:2273   .debug_str:000000000000040f .LASF25
     /tmp/cckMj0Nq.s:2277   .debug_str:0000000000000438 .LASF20
     /tmp/cckMj0Nq.s:2269   .debug_str:00000000000003d9 .LASF22
     /tmp/cckMj0Nq.s:2267   .debug_str:00000000000003cc .LASF24
     /tmp/cckMj0Nq.s:2333   .debug_str:00000000000005cc .LASF26
     /tmp/cckMj0Nq.s:2145   .debug_str:000000000000003b .LASF27
     /tmp/cckMj0Nq.s:2155   .debug_str:0000000000000070 .LASF28
     /tmp/cckMj0Nq.s:2361   .debug_str:000000000000069e .LASF29
     /tmp/cckMj0Nq.s:2393   .debug_str:0000000000000873 .LASF30
     /tmp/cckMj0Nq.s:2387   .debug_str:0000000000000831 .LASF31
     /tmp/cckMj0Nq.s:2207   .debug_str:0000000000000200 .LASF32
     /tmp/cckMj0Nq.s:2307   .debug_str:0000000000000503 .LASF33
     /tmp/cckMj0Nq.s:2359   .debug_str:000000000000068a .LASF34
     /tmp/cckMj0Nq.s:2251   .debug_str:000000000000036a .LASF35
     /tmp/cckMj0Nq.s:2243   .debug_str:0000000000000322 .LASF36
     /tmp/cckMj0Nq.s:2339   .debug_str:00000000000005f7 .LASF131
     /tmp/cckMj0Nq.s:2407   .debug_str:0000000000000922 .LASF37
     /tmp/cckMj0Nq.s:2347   .debug_str:0000000000000629 .LASF38
     /tmp/cckMj0Nq.s:2369   .debug_str:00000000000006e0 .LASF40
     /tmp/cckMj0Nq.s:2205   .debug_str:00000000000001f8 .LASF121
     /tmp/cckMj0Nq.s:2159   .debug_str:00000000000000a0 .LASF44
     /tmp/cckMj0Nq.s:2183   .debug_str:0000000000000161 .LASF46
     /tmp/cckMj0Nq.s:2151   .debug_str:000000000000005b .LASF39
     /tmp/cckMj0Nq.s:2395   .debug_str:0000000000000892 .LASF41
GAS LISTING /tmp/cckMj0Nq.s 			page 6


     /tmp/cckMj0Nq.s:2295   .debug_str:00000000000004be .LASF42
     /tmp/cckMj0Nq.s:2367   .debug_str:00000000000006c9 .LASF43
     /tmp/cckMj0Nq.s:2305   .debug_str:00000000000004ed .LASF47
     /tmp/cckMj0Nq.s:2141   .debug_str:0000000000000011 .LASF48
     /tmp/cckMj0Nq.s:2245   .debug_str:0000000000000343 .LASF49
     /tmp/cckMj0Nq.s:2297   .debug_str:00000000000004c7 .LASF50
     /tmp/cckMj0Nq.s:2249   .debug_str:0000000000000362 .LASF51
     /tmp/cckMj0Nq.s:2303   .debug_str:00000000000004e3 .LASF52
     /tmp/cckMj0Nq.s:2337   .debug_str:00000000000005ee .LASF53
     /tmp/cckMj0Nq.s:2299   .debug_str:00000000000004cd .LASF54
     /tmp/cckMj0Nq.s:2139   .debug_str:0000000000000009 .LASF55
     /tmp/cckMj0Nq.s:2331   .debug_str:00000000000005c3 .LASF56
     /tmp/cckMj0Nq.s:2285   .debug_str:000000000000045d .LASF57
     /tmp/cckMj0Nq.s:2225   .debug_str:00000000000002aa .LASF132
     /tmp/cckMj0Nq.s:2227   .debug_str:00000000000002b8 .LASF133
     /tmp/cckMj0Nq.s:2181   .debug_str:0000000000000153 .LASF134
     /tmp/cckMj0Nq.s:2381   .debug_str:00000000000007f1 .LASF135
     /tmp/cckMj0Nq.s:2311   .debug_str:000000000000051c .LASF58
     /tmp/cckMj0Nq.s:2247   .debug_str:0000000000000348 .LASF59
     /tmp/cckMj0Nq.s:2413   .debug_str:0000000000000974 .LASF60
     /tmp/cckMj0Nq.s:2287   .debug_str:0000000000000467 .LASF61
     /tmp/cckMj0Nq.s:2353   .debug_str:0000000000000662 .LASF117
     /tmp/cckMj0Nq.s:2257   .debug_str:000000000000039e .LASF62
     /tmp/cckMj0Nq.s:2233   .debug_str:00000000000002ec .LASF63
     /tmp/cckMj0Nq.s:2203   .debug_str:00000000000001f2 .LASF64
     /tmp/cckMj0Nq.s:2239   .debug_str:0000000000000316 .LASF65
     /tmp/cckMj0Nq.s:2355   .debug_str:0000000000000673 .LASF66
     /tmp/cckMj0Nq.s:2157   .debug_str:0000000000000087 .LASF67
     /tmp/cckMj0Nq.s:2263   .debug_str:00000000000003c1 .LASF68
     /tmp/cckMj0Nq.s:2167   .debug_str:00000000000000da .LASF69
     /tmp/cckMj0Nq.s:2209   .debug_str:0000000000000214 .LASF70
     /tmp/cckMj0Nq.s:2341   .debug_str:00000000000005fc .LASF71
     /tmp/cckMj0Nq.s:2323   .debug_str:000000000000058d .LASF72
     /tmp/cckMj0Nq.s:2229   .debug_str:00000000000002d5 .LASF73
     /tmp/cckMj0Nq.s:2189   .debug_str:0000000000000199 .LASF74
     /tmp/cckMj0Nq.s:2193   .debug_str:00000000000001ab .LASF75
     /tmp/cckMj0Nq.s:2191   .debug_str:000000000000019f .LASF76
     /tmp/cckMj0Nq.s:2319   .debug_str:0000000000000565 .LASF77
     /tmp/cckMj0Nq.s:2363   .debug_str:00000000000006ae .LASF78
     /tmp/cckMj0Nq.s:2201   .debug_str:00000000000001ec .LASF79
     /tmp/cckMj0Nq.s:2301   .debug_str:00000000000004d2 .LASF80
     /tmp/cckMj0Nq.s:2261   .debug_str:00000000000003b9 .LASF81
     /tmp/cckMj0Nq.s:2403   .debug_str:0000000000000907 .LASF82
     /tmp/cckMj0Nq.s:2199   .debug_str:00000000000001d9 .LASF83
     /tmp/cckMj0Nq.s:2365   .debug_str:00000000000006bb .LASF84
     /tmp/cckMj0Nq.s:2265   .debug_str:00000000000003c7 .LASF136
     /tmp/cckMj0Nq.s:2185   .debug_str:000000000000017e .LASF85
     /tmp/cckMj0Nq.s:2283   .debug_str:0000000000000458 .LASF86
     /tmp/cckMj0Nq.s:2327   .debug_str:00000000000005af .LASF87
     /tmp/cckMj0Nq.s:2235   .debug_str:00000000000002f7 .LASF88
     /tmp/cckMj0Nq.s:2271   .debug_str:00000000000003f4 .LASF89
     /tmp/cckMj0Nq.s:2401   .debug_str:00000000000008fd .LASF137
     /tmp/cckMj0Nq.s:2377   .debug_str:00000000000007c7 .LASF138
     /tmp/cckMj0Nq.s:2357   .debug_str:000000000000067d .LASF90
     /tmp/cckMj0Nq.s:2399   .debug_str:00000000000008da .LASF91
     /tmp/cckMj0Nq.s:2373   .debug_str:00000000000006fa .LASF92
     /tmp/cckMj0Nq.s:2411   .debug_str:0000000000000953 .LASF93
GAS LISTING /tmp/cckMj0Nq.s 			page 7


     /tmp/cckMj0Nq.s:2281   .debug_str:0000000000000450 .LASF94
     /tmp/cckMj0Nq.s:2313   .debug_str:0000000000000527 .LASF95
     /tmp/cckMj0Nq.s:2279   .debug_str:0000000000000444 .LASF96
     /tmp/cckMj0Nq.s:2221   .debug_str:000000000000027a .LASF97
     /tmp/cckMj0Nq.s:2171   .debug_str:00000000000000f7 .LASF98
     /tmp/cckMj0Nq.s:2219   .debug_str:000000000000025b .LASF99
     /tmp/cckMj0Nq.s:2385   .debug_str:0000000000000826 .LASF100
     /tmp/cckMj0Nq.s:2349   .debug_str:000000000000062f .LASF101
     /tmp/cckMj0Nq.s:2255   .debug_str:0000000000000395 .LASF102
     /tmp/cckMj0Nq.s:2253   .debug_str:0000000000000377 .LASF103
     /tmp/cckMj0Nq.s:2217   .debug_str:0000000000000249 .LASF104
     /tmp/cckMj0Nq.s:2397   .debug_str:00000000000008ae .LASF105
     /tmp/cckMj0Nq.s:2197   .debug_str:00000000000001c3 .LASF106
     /tmp/cckMj0Nq.s:2389   .debug_str:0000000000000837 .LASF107
     /tmp/cckMj0Nq.s:2213   .debug_str:000000000000021e .LASF108
     /tmp/cckMj0Nq.s:2289   .debug_str:000000000000047b .LASF109
     /tmp/cckMj0Nq.s:2211   .debug_str:0000000000000219 .LASF110
     /tmp/cckMj0Nq.s:2179   .debug_str:0000000000000144 .LASF111
     /tmp/cckMj0Nq.s:2177   .debug_str:000000000000012c .LASF112
     /tmp/cckMj0Nq.s:2409   .debug_str:000000000000094e .LASF113
     /tmp/cckMj0Nq.s:2325   .debug_str:0000000000000594 .LASF114
     /tmp/cckMj0Nq.s:2147   .debug_str:0000000000000044 .LASF115
     /tmp/cckMj0Nq.s:2165   .debug_str:00000000000000bd .LASF116
     /tmp/cckMj0Nq.s:2143   .debug_str:000000000000002d .LASF118
     /tmp/cckMj0Nq.s:2161   .debug_str:00000000000000ad .LASF119
     /tmp/cckMj0Nq.s:2173   .debug_str:0000000000000101 .LASF120
     /tmp/cckMj0Nq.s:2405   .debug_str:000000000000091a .LASF122
     /tmp/cckMj0Nq.s:2343   .debug_str:000000000000060c .LASF123
     /tmp/cckMj0Nq.s:2371   .debug_str:00000000000006f4 .LASF124
     /tmp/cckMj0Nq.s:2231   .debug_str:00000000000002e7 .LASF125
     /tmp/cckMj0Nq.s:71     .text:000000000000005c .LFB36
     /tmp/cckMj0Nq.s:125    .text:00000000000000b8 .LFE36
     /tmp/cckMj0Nq.s:2335   .debug_str:00000000000005e9 .LASF126
     /tmp/cckMj0Nq.s:2076   .debug_loc:0000000000000000 .LLST1
     /tmp/cckMj0Nq.s:2090   .debug_loc:0000000000000039 .LLST2
     /tmp/cckMj0Nq.s:114    .text:00000000000000a8 .LVL7
     /tmp/cckMj0Nq.s:10     .text:0000000000000000 .LFB35
     /tmp/cckMj0Nq.s:65     .text:000000000000005c .LFE35
     /tmp/cckMj0Nq.s:2104   .debug_loc:0000000000000072 .LLST0
     /tmp/cckMj0Nq.s:31     .text:0000000000000024 .LVL2
     /tmp/cckMj0Nq.s:74     .text:000000000000005c .LVL5
     /tmp/cckMj0Nq.s:112    .text:00000000000000a0 .LVL6
     /tmp/cckMj0Nq.s:14     .text:0000000000000000 .LVL0
     /tmp/cckMj0Nq.s:29     .text:000000000000001c .LVL1
     /tmp/cckMj0Nq.s:60     .text:0000000000000054 .LVL4
     /tmp/cckMj0Nq.s:135    .debug_info:0000000000000000 .Ldebug_info0

UNDEFINED SYMBOLS
_ZN4_sem4waitEv
_ZN4_sem6signalEv
