GAS LISTING /tmp/ccap6YsT.s 			page 1


   1              		.file	"_buffer.cpp"
   2              		.option pic
   3              		.option norelax
   4              		.text
   5              	.Ltext0:
   6              		.align	2
   7              		.globl	_ZN14KeyboardBuffer4takeEv
   9              	_ZN14KeyboardBuffer4takeEv:
  10              	.LFB33:
  11              		.file 1 "src/_buffer.cpp"
   1:src/_buffer.cpp **** //
   2:src/_buffer.cpp **** // Created by os on 9/10/22.
   3:src/_buffer.cpp **** //
   4:src/_buffer.cpp **** #include "../h/_buffer.hpp"
   5:src/_buffer.cpp **** 
   6:src/_buffer.cpp **** 
   7:src/_buffer.cpp **** //static KeyboardBuffer* instance () {
   8:src/_buffer.cpp **** //    static KeyboardBuffer _instance;
   9:src/_buffer.cpp **** //    return &_instance;
  10:src/_buffer.cpp **** //}
  11:src/_buffer.cpp **** 
  12:src/_buffer.cpp **** //imlementacija uzeta iz zadatka sa klk3
  13:src/_buffer.cpp **** char KeyboardBuffer::take () {
  12              		.loc 1 13 30
  13              		.cfi_startproc
  14              	.LVL0:
  15 0000 130101FE 		addi	sp,sp,-32
  16              		.cfi_def_cfa_offset 32
  17 0004 233C1100 		sd	ra,24(sp)
  18 0008 23388100 		sd	s0,16(sp)
  19 000c 23349100 		sd	s1,8(sp)
  20              		.cfi_offset 1, -8
  21              		.cfi_offset 8, -16
  22              		.cfi_offset 9, -24
  23 0010 13040102 		addi	s0,sp,32
  24              		.cfi_def_cfa 8, 0
  25 0014 93040500 		mv	s1,a0
  14:src/_buffer.cpp ****     itemAvailable->wait();
  26              		.loc 1 14 5
  27              		.loc 1 14 24 is_stmt 0
  28 0018 03350500 		ld	a0,0(a0)
  29              	.LVL1:
  30 001c 97000000 		call	_ZN4_sem4waitEv@plt
  30      E7800000 
  31              	.LVL2:
  15:src/_buffer.cpp **** //    kbint_mask();
  16:src/_buffer.cpp ****     char c = buffer[head];
  32              		.loc 1 16 5 is_stmt 1
  33              		.loc 1 16 21 is_stmt 0
  34 0024 83B78410 		ld	a5,264(s1)
  35              		.loc 1 16 10
  36 0028 3387F400 		add	a4,s1,a5
  37 002c 03458700 		lbu	a0,8(a4)
  38              	.LVL3:
  17:src/_buffer.cpp ****     head = (head+1)%KB_SIZE;
  39              		.loc 1 17 5 is_stmt 1
  40              		.loc 1 17 17 is_stmt 0
GAS LISTING /tmp/ccap6YsT.s 			page 2


  41 0030 93871700 		addi	a5,a5,1
  42              		.loc 1 17 20
  43 0034 93F7F70F 		andi	a5,a5,255
  44              		.loc 1 17 10
  45 0038 23B4F410 		sd	a5,264(s1)
  18:src/_buffer.cpp ****     count--;
  46              		.loc 1 18 5 is_stmt 1
  47 003c 83B78411 		ld	a5,280(s1)
  48              		.loc 1 18 10 is_stmt 0
  49 0040 9387F7FF 		addi	a5,a5,-1
  50 0044 23BCF410 		sd	a5,280(s1)
  19:src/_buffer.cpp **** //    kbint_unmask();
  20:src/_buffer.cpp ****     return c;
  51              		.loc 1 20 5 is_stmt 1
  21:src/_buffer.cpp **** }
  52              		.loc 1 21 1 is_stmt 0
  53 0048 83308101 		ld	ra,24(sp)
  54              		.cfi_restore 1
  55 004c 03340101 		ld	s0,16(sp)
  56              		.cfi_restore 8
  57              		.cfi_def_cfa 2, 32
  58 0050 83348100 		ld	s1,8(sp)
  59              		.cfi_restore 9
  60              	.LVL4:
  61 0054 13010102 		addi	sp,sp,32
  62              		.cfi_def_cfa_offset 0
  63 0058 67800000 		jr	ra
  64              		.cfi_endproc
  65              	.LFE33:
  67              		.align	2
  68              		.globl	_ZN14KeyboardBuffer6appendEc
  70              	_ZN14KeyboardBuffer6appendEc:
  71              	.LFB34:
  22:src/_buffer.cpp **** void KeyboardBuffer::append (char c) {
  72              		.loc 1 22 38 is_stmt 1
  73              		.cfi_startproc
  74              	.LVL5:
  23:src/_buffer.cpp ****     if (count<KB_SIZE) {
  75              		.loc 1 23 5
  76              		.loc 1 23 9 is_stmt 0
  77 005c 83378511 		ld	a5,280(a0)
  78              		.loc 1 23 5
  79 0060 1307F00F 		li	a4,255
  80 0064 6374F700 		bleu	a5,a4,.L9
  81 0068 67800000 		ret
  82              	.L9:
  22:src/_buffer.cpp **** void KeyboardBuffer::append (char c) {
  83              		.loc 1 22 38
  84 006c 130101FF 		addi	sp,sp,-16
  85              		.cfi_def_cfa_offset 16
  86 0070 23341100 		sd	ra,8(sp)
  87 0074 23308100 		sd	s0,0(sp)
  88              		.cfi_offset 1, -8
  89              		.cfi_offset 8, -16
  90 0078 13040101 		addi	s0,sp,16
  91              		.cfi_def_cfa 8, 0
  24:src/_buffer.cpp ****         buffer[tail] = c;
GAS LISTING /tmp/ccap6YsT.s 			page 3


  92              		.loc 1 24 9 is_stmt 1
  93              		.loc 1 24 16 is_stmt 0
  94 007c 03370511 		ld	a4,272(a0)
  95              		.loc 1 24 22
  96 0080 B306E500 		add	a3,a0,a4
  97 0084 2384B600 		sb	a1,8(a3)
  25:src/_buffer.cpp ****         tail = (tail+1)%KB_SIZE;
  98              		.loc 1 25 9 is_stmt 1
  99              		.loc 1 25 21 is_stmt 0
 100 0088 13071700 		addi	a4,a4,1
 101              		.loc 1 25 24
 102 008c 1377F70F 		andi	a4,a4,255
 103              		.loc 1 25 14
 104 0090 2338E510 		sd	a4,272(a0)
  26:src/_buffer.cpp ****         count++;
 105              		.loc 1 26 9 is_stmt 1
 106              		.loc 1 26 14 is_stmt 0
 107 0094 93871700 		addi	a5,a5,1
 108 0098 233CF510 		sd	a5,280(a0)
  27:src/_buffer.cpp ****         itemAvailable->signal();
 109              		.loc 1 27 9 is_stmt 1
 110              		.loc 1 27 30 is_stmt 0
 111 009c 03350500 		ld	a0,0(a0)
 112              	.LVL6:
 113 00a0 97000000 		call	_ZN4_sem6signalEv@plt
 113      E7800000 
 114              	.LVL7:
  28:src/_buffer.cpp ****     }
  29:src/_buffer.cpp **** }...
 115              		.loc 1 29 1
 116 00a8 83308100 		ld	ra,8(sp)
 117              		.cfi_restore 1
 118 00ac 03340100 		ld	s0,0(sp)
 119              		.cfi_restore 8
 120              		.cfi_def_cfa 2, 16
 121 00b0 13010101 		addi	sp,sp,16
 122              		.cfi_def_cfa_offset 0
 123 00b4 67800000 		jr	ra
 124              		.cfi_endproc
 125              	.LFE34:
 127              	.Letext0:
 128              		.file 2 "src/../h/../lib/hw.h"
 129              		.file 3 "src/../h/syscall_c.h"
 130              		.file 4 "src/../h/tcb.hpp"
 131              		.file 5 "src/../h/_sem.hpp"
 132              		.file 6 "src/../h/list.hpp"
 133              		.file 7 "src/../h/_buffer.hpp"
GAS LISTING /tmp/ccap6YsT.s 			page 4


DEFINED SYMBOLS
                            *ABS*:0000000000000000 _buffer.cpp
     /tmp/ccap6YsT.s:9      .text:0000000000000000 _ZN14KeyboardBuffer4takeEv
     /tmp/ccap6YsT.s:13     .text:0000000000000000 .L0 
     /tmp/ccap6YsT.s:15     .text:0000000000000000 .L0 
     /tmp/ccap6YsT.s:16     .text:0000000000000004 .L0 
     /tmp/ccap6YsT.s:20     .text:0000000000000010 .L0 
     /tmp/ccap6YsT.s:21     .text:0000000000000010 .L0 
     /tmp/ccap6YsT.s:22     .text:0000000000000010 .L0 
     /tmp/ccap6YsT.s:24     .text:0000000000000014 .L0 
     /tmp/ccap6YsT.s:27     .text:0000000000000018 .L0 
     /tmp/ccap6YsT.s:28     .text:0000000000000018 .L0 
     /tmp/ccap6YsT.s:33     .text:0000000000000024 .L0 
     /tmp/ccap6YsT.s:34     .text:0000000000000024 .L0 
     /tmp/ccap6YsT.s:36     .text:0000000000000028 .L0 
     /tmp/ccap6YsT.s:40     .text:0000000000000030 .L0 
     /tmp/ccap6YsT.s:41     .text:0000000000000030 .L0 
     /tmp/ccap6YsT.s:43     .text:0000000000000034 .L0 
     /tmp/ccap6YsT.s:45     .text:0000000000000038 .L0 
     /tmp/ccap6YsT.s:47     .text:000000000000003c .L0 
     /tmp/ccap6YsT.s:49     .text:0000000000000040 .L0 
     /tmp/ccap6YsT.s:52     .text:0000000000000048 .L0 
     /tmp/ccap6YsT.s:53     .text:0000000000000048 .L0 
     /tmp/ccap6YsT.s:54     .text:000000000000004c .L0 
     /tmp/ccap6YsT.s:56     .text:0000000000000050 .L0 
     /tmp/ccap6YsT.s:57     .text:0000000000000050 .L0 
     /tmp/ccap6YsT.s:59     .text:0000000000000054 .L0 
     /tmp/ccap6YsT.s:62     .text:0000000000000058 .L0 
     /tmp/ccap6YsT.s:64     .text:000000000000005c .L0 
     /tmp/ccap6YsT.s:70     .text:000000000000005c _ZN14KeyboardBuffer6appendEc
     /tmp/ccap6YsT.s:73     .text:000000000000005c .L0 
     /tmp/ccap6YsT.s:75     .text:000000000000005c .L0 
     /tmp/ccap6YsT.s:76     .text:000000000000005c .L0 
     /tmp/ccap6YsT.s:77     .text:000000000000005c .L0 
     /tmp/ccap6YsT.s:79     .text:0000000000000060 .L0 
     /tmp/ccap6YsT.s:84     .text:000000000000006c .L0 
     /tmp/ccap6YsT.s:85     .text:0000000000000070 .L0 
     /tmp/ccap6YsT.s:88     .text:0000000000000078 .L0 
     /tmp/ccap6YsT.s:89     .text:0000000000000078 .L0 
     /tmp/ccap6YsT.s:91     .text:000000000000007c .L0 
     /tmp/ccap6YsT.s:93     .text:000000000000007c .L0 
     /tmp/ccap6YsT.s:94     .text:000000000000007c .L0 
     /tmp/ccap6YsT.s:96     .text:0000000000000080 .L0 
     /tmp/ccap6YsT.s:99     .text:0000000000000088 .L0 
     /tmp/ccap6YsT.s:100    .text:0000000000000088 .L0 
     /tmp/ccap6YsT.s:102    .text:000000000000008c .L0 
     /tmp/ccap6YsT.s:104    .text:0000000000000090 .L0 
     /tmp/ccap6YsT.s:106    .text:0000000000000094 .L0 
     /tmp/ccap6YsT.s:107    .text:0000000000000094 .L0 
     /tmp/ccap6YsT.s:110    .text:000000000000009c .L0 
     /tmp/ccap6YsT.s:111    .text:000000000000009c .L0 
     /tmp/ccap6YsT.s:116    .text:00000000000000a8 .L0 
     /tmp/ccap6YsT.s:117    .text:00000000000000ac .L0 
     /tmp/ccap6YsT.s:119    .text:00000000000000b0 .L0 
     /tmp/ccap6YsT.s:120    .text:00000000000000b0 .L0 
     /tmp/ccap6YsT.s:122    .text:00000000000000b4 .L0 
     /tmp/ccap6YsT.s:124    .text:00000000000000b8 .L0 
GAS LISTING /tmp/ccap6YsT.s 			page 5


     /tmp/ccap6YsT.s:134    .text:00000000000000b8 .L0 
     /tmp/ccap6YsT.s:82     .text:000000000000006c .L9
     /tmp/ccap6YsT.s:1168   .debug_abbrev:0000000000000000 .Ldebug_abbrev0
     /tmp/ccap6YsT.s:2289   .debug_str:00000000000006c5 .LASF121
     /tmp/ccap6YsT.s:2175   .debug_str:0000000000000340 .LASF122
     /tmp/ccap6YsT.s:2131   .debug_str:00000000000001d1 .LASF123
     /tmp/ccap6YsT.s:5      .text:0000000000000000 .Ltext0
     /tmp/ccap6YsT.s:127    .text:00000000000000b8 .Letext0
     /tmp/ccap6YsT.s:2059   .debug_line:0000000000000000 .Ldebug_line0
     /tmp/ccap6YsT.s:2211   .debug_str:0000000000000475 .LASF0
     /tmp/ccap6YsT.s:2225   .debug_str:00000000000004b7 .LASF1
     /tmp/ccap6YsT.s:2193   .debug_str:00000000000003dd .LASF2
     /tmp/ccap6YsT.s:2157   .debug_str:00000000000002ca .LASF4
     /tmp/ccap6YsT.s:2267   .debug_str:000000000000061e .LASF3
     /tmp/ccap6YsT.s:2085   .debug_str:0000000000000098 .LASF5
     /tmp/ccap6YsT.s:2113   .debug_str:000000000000016f .LASF6
     /tmp/ccap6YsT.s:2231   .debug_str:00000000000004f5 .LASF7
     /tmp/ccap6YsT.s:2209   .debug_str:0000000000000462 .LASF8
     /tmp/ccap6YsT.s:2307   .debug_str:0000000000000835 .LASF9
     /tmp/ccap6YsT.s:2141   .debug_str:0000000000000262 .LASF10
     /tmp/ccap6YsT.s:2245   .debug_str:0000000000000562 .LASF11
     /tmp/ccap6YsT.s:2293   .debug_str:00000000000007a4 .LASF12
     /tmp/ccap6YsT.s:2091   .debug_str:00000000000000c9 .LASF13
     /tmp/ccap6YsT.s:2073   .debug_str:000000000000003a .LASF14
     /tmp/ccap6YsT.s:2097   .debug_str:0000000000000102 .LASF15
     /tmp/ccap6YsT.s:2261   .debug_str:00000000000005e1 .LASF16
     /tmp/ccap6YsT.s:2107   .debug_str:0000000000000142 .LASF17
     /tmp/ccap6YsT.s:2061   .debug_str:0000000000000000 .LASF18
     /tmp/ccap6YsT.s:2153   .debug_str:00000000000002bd .LASF42
     /tmp/ccap6YsT.s:2075   .debug_str:000000000000004a .LASF124
     /tmp/ccap6YsT.s:2299   .debug_str:00000000000007ed .LASF19
     /tmp/ccap6YsT.s:2237   .debug_str:000000000000052b .LASF21
     /tmp/ccap6YsT.s:2233   .debug_str:0000000000000508 .LASF23
     /tmp/ccap6YsT.s:2191   .debug_str:00000000000003c2 .LASF25
     /tmp/ccap6YsT.s:2195   .debug_str:00000000000003eb .LASF20
     /tmp/ccap6YsT.s:2187   .debug_str:000000000000038c .LASF22
     /tmp/ccap6YsT.s:2185   .debug_str:000000000000037f .LASF24
     /tmp/ccap6YsT.s:2249   .debug_str:000000000000057a .LASF26
     /tmp/ccap6YsT.s:2069   .debug_str:000000000000002a .LASF27
     /tmp/ccap6YsT.s:2077   .debug_str:0000000000000052 .LASF28
     /tmp/ccap6YsT.s:2275   .debug_str:0000000000000660 .LASF29
     /tmp/ccap6YsT.s:2309   .debug_str:0000000000000845 .LASF30
     /tmp/ccap6YsT.s:2303   .debug_str:0000000000000803 .LASF31
     /tmp/ccap6YsT.s:2125   .debug_str:00000000000001b3 .LASF32
     /tmp/ccap6YsT.s:2167   .debug_str:0000000000000301 .LASF33
     /tmp/ccap6YsT.s:2137   .debug_str:0000000000000220 .LASF34
     /tmp/ccap6YsT.s:2255   .debug_str:00000000000005c5 .LASF125
     /tmp/ccap6YsT.s:2253   .debug_str:000000000000059c .LASF35
     /tmp/ccap6YsT.s:2263   .debug_str:00000000000005f7 .LASF36
     /tmp/ccap6YsT.s:2283   .debug_str:00000000000006a2 .LASF38
     /tmp/ccap6YsT.s:2123   .debug_str:00000000000001ab .LASF115
     /tmp/ccap6YsT.s:2081   .debug_str:0000000000000082 .LASF37
     /tmp/ccap6YsT.s:2181   .debug_str:000000000000035e .LASF39
     /tmp/ccap6YsT.s:2213   .debug_str:0000000000000482 .LASF40
     /tmp/ccap6YsT.s:2281   .debug_str:000000000000068b .LASF41
     /tmp/ccap6YsT.s:2273   .debug_str:000000000000064b .LASF43
     /tmp/ccap6YsT.s:2199   .debug_str:0000000000000403 .LASF44
GAS LISTING /tmp/ccap6YsT.s 			page 6


     /tmp/ccap6YsT.s:2161   .debug_str:00000000000002da .LASF45
     /tmp/ccap6YsT.s:2215   .debug_str:000000000000048b .LASF46
     /tmp/ccap6YsT.s:2165   .debug_str:00000000000002f9 .LASF47
     /tmp/ccap6YsT.s:2221   .debug_str:00000000000004a1 .LASF48
     /tmp/ccap6YsT.s:2159   .debug_str:00000000000002d1 .LASF49
     /tmp/ccap6YsT.s:2217   .debug_str:0000000000000491 .LASF50
     /tmp/ccap6YsT.s:2063   .debug_str:0000000000000009 .LASF51
     /tmp/ccap6YsT.s:2247   .debug_str:0000000000000571 .LASF52
     /tmp/ccap6YsT.s:2203   .debug_str:0000000000000421 .LASF53
     /tmp/ccap6YsT.s:2143   .debug_str:0000000000000270 .LASF126
     /tmp/ccap6YsT.s:2145   .debug_str:000000000000027e .LASF127
     /tmp/ccap6YsT.s:2311   .debug_str:0000000000000864 .LASF128
     /tmp/ccap6YsT.s:2295   .debug_str:00000000000007b3 .LASF129
     /tmp/ccap6YsT.s:2227   .debug_str:00000000000004ca .LASF54
     /tmp/ccap6YsT.s:2163   .debug_str:00000000000002df .LASF55
     /tmp/ccap6YsT.s:2325   .debug_str:00000000000008f8 .LASF56
     /tmp/ccap6YsT.s:2205   .debug_str:000000000000042b .LASF57
     /tmp/ccap6YsT.s:2269   .debug_str:0000000000000630 .LASF111
     /tmp/ccap6YsT.s:2173   .debug_str:0000000000000335 .LASF58
     /tmp/ccap6YsT.s:2151   .debug_str:00000000000002b2 .LASF59
     /tmp/ccap6YsT.s:2121   .debug_str:00000000000001a5 .LASF60
     /tmp/ccap6YsT.s:2155   .debug_str:00000000000002c5 .LASF61
     /tmp/ccap6YsT.s:2271   .debug_str:0000000000000641 .LASF62
     /tmp/ccap6YsT.s:2079   .debug_str:0000000000000069 .LASF63
     /tmp/ccap6YsT.s:2179   .debug_str:0000000000000358 .LASF64
     /tmp/ccap6YsT.s:2089   .debug_str:00000000000000bc .LASF65
     /tmp/ccap6YsT.s:2127   .debug_str:00000000000001c7 .LASF66
     /tmp/ccap6YsT.s:2257   .debug_str:00000000000005ca .LASF67
     /tmp/ccap6YsT.s:2239   .debug_str:000000000000053b .LASF68
     /tmp/ccap6YsT.s:2147   .debug_str:000000000000029b .LASF69
     /tmp/ccap6YsT.s:2109   .debug_str:0000000000000158 .LASF70
     /tmp/ccap6YsT.s:2111   .debug_str:000000000000015e .LASF71
     /tmp/ccap6YsT.s:2223   .debug_str:00000000000004ab .LASF72
     /tmp/ccap6YsT.s:2235   .debug_str:0000000000000513 .LASF73
     /tmp/ccap6YsT.s:2277   .debug_str:0000000000000670 .LASF74
     /tmp/ccap6YsT.s:2119   .debug_str:000000000000019f .LASF75
     /tmp/ccap6YsT.s:2065   .debug_str:0000000000000011 .LASF76
     /tmp/ccap6YsT.s:2177   .debug_str:0000000000000350 .LASF77
     /tmp/ccap6YsT.s:2317   .debug_str:00000000000008a8 .LASF78
     /tmp/ccap6YsT.s:2117   .debug_str:000000000000018c .LASF79
     /tmp/ccap6YsT.s:2279   .debug_str:000000000000067d .LASF80
     /tmp/ccap6YsT.s:2183   .debug_str:000000000000037a .LASF130
     /tmp/ccap6YsT.s:2105   .debug_str:000000000000013d .LASF81
     /tmp/ccap6YsT.s:2201   .debug_str:000000000000041c .LASF82
     /tmp/ccap6YsT.s:2243   .debug_str:000000000000055d .LASF83
     /tmp/ccap6YsT.s:2319   .debug_str:00000000000008bb .LASF84
     /tmp/ccap6YsT.s:2189   .debug_str:00000000000003a7 .LASF85
     /tmp/ccap6YsT.s:2315   .debug_str:000000000000089e .LASF131
     /tmp/ccap6YsT.s:2291   .debug_str:0000000000000789 .LASF132
     /tmp/ccap6YsT.s:2287   .debug_str:00000000000006bc .LASF86
     /tmp/ccap6YsT.s:2323   .debug_str:00000000000008d7 .LASF87
     /tmp/ccap6YsT.s:2067   .debug_str:0000000000000022 .LASF88
     /tmp/ccap6YsT.s:2229   .debug_str:00000000000004d5 .LASF89
     /tmp/ccap6YsT.s:2197   .debug_str:00000000000003f7 .LASF90
     /tmp/ccap6YsT.s:2139   .debug_str:0000000000000240 .LASF91
     /tmp/ccap6YsT.s:2093   .debug_str:00000000000000d9 .LASF92
     /tmp/ccap6YsT.s:2135   .debug_str:0000000000000201 .LASF93
GAS LISTING /tmp/ccap6YsT.s 			page 7


     /tmp/ccap6YsT.s:2219   .debug_str:0000000000000496 .LASF94
     /tmp/ccap6YsT.s:2265   .debug_str:00000000000005fd .LASF95
     /tmp/ccap6YsT.s:2171   .debug_str:000000000000032c .LASF96
     /tmp/ccap6YsT.s:2169   .debug_str:000000000000030e .LASF97
     /tmp/ccap6YsT.s:2133   .debug_str:00000000000001ef .LASF98
     /tmp/ccap6YsT.s:2313   .debug_str:0000000000000872 .LASF99
     /tmp/ccap6YsT.s:2115   .debug_str:0000000000000176 .LASF100
     /tmp/ccap6YsT.s:2305   .debug_str:0000000000000809 .LASF101
     /tmp/ccap6YsT.s:2301   .debug_str:00000000000007f6 .LASF102
     /tmp/ccap6YsT.s:2207   .debug_str:000000000000043f .LASF103
     /tmp/ccap6YsT.s:2129   .debug_str:00000000000001cc .LASF104
     /tmp/ccap6YsT.s:2101   .debug_str:0000000000000126 .LASF105
     /tmp/ccap6YsT.s:2099   .debug_str:000000000000010e .LASF106
     /tmp/ccap6YsT.s:2321   .debug_str:00000000000008d2 .LASF107
     /tmp/ccap6YsT.s:2241   .debug_str:0000000000000542 .LASF108
     /tmp/ccap6YsT.s:2071   .debug_str:0000000000000033 .LASF109
     /tmp/ccap6YsT.s:2087   .debug_str:000000000000009f .LASF110
     /tmp/ccap6YsT.s:2297   .debug_str:00000000000007df .LASF112
     /tmp/ccap6YsT.s:2083   .debug_str:000000000000008f .LASF113
     /tmp/ccap6YsT.s:2095   .debug_str:00000000000000e3 .LASF114
     /tmp/ccap6YsT.s:2103   .debug_str:0000000000000135 .LASF116
     /tmp/ccap6YsT.s:2259   .debug_str:00000000000005da .LASF117
     /tmp/ccap6YsT.s:2285   .debug_str:00000000000006b6 .LASF118
     /tmp/ccap6YsT.s:2149   .debug_str:00000000000002ad .LASF119
     /tmp/ccap6YsT.s:71     .text:000000000000005c .LFB34
     /tmp/ccap6YsT.s:125    .text:00000000000000b8 .LFE34
     /tmp/ccap6YsT.s:2251   .debug_str:0000000000000597 .LASF120
     /tmp/ccap6YsT.s:2000   .debug_loc:0000000000000000 .LLST1
     /tmp/ccap6YsT.s:2014   .debug_loc:0000000000000039 .LLST2
     /tmp/ccap6YsT.s:114    .text:00000000000000a8 .LVL7
     /tmp/ccap6YsT.s:10     .text:0000000000000000 .LFB33
     /tmp/ccap6YsT.s:65     .text:000000000000005c .LFE33
     /tmp/ccap6YsT.s:2028   .debug_loc:0000000000000072 .LLST0
     /tmp/ccap6YsT.s:31     .text:0000000000000024 .LVL2
     /tmp/ccap6YsT.s:74     .text:000000000000005c .LVL5
     /tmp/ccap6YsT.s:112    .text:00000000000000a0 .LVL6
     /tmp/ccap6YsT.s:14     .text:0000000000000000 .LVL0
     /tmp/ccap6YsT.s:29     .text:000000000000001c .LVL1
     /tmp/ccap6YsT.s:60     .text:0000000000000054 .LVL4
     /tmp/ccap6YsT.s:135    .debug_info:0000000000000000 .Ldebug_info0

UNDEFINED SYMBOLS
_ZN4_sem4waitEv
_ZN4_sem6signalEv
