GAS LISTING /tmp/ccap6YsT.s 			page 1


   1              		.file	"_buffer.cpp"
   2              		.option pic
   3              		.option norelax
   4              		.text
   5              	.Ltext0:
   6              		.align	2
   7              		.globl	_ZN14KeyboardBuffer4takeEv
   9              	_ZN14KeyboardBuffer4takeEv:
  10              	.LFB33:
  11              		.file 1 "src/_buffer.cpp"
   1:src/_buffer.cpp **** //
   2:src/_buffer.cpp **** // Created by os on 9/10/22.
   3:src/_buffer.cpp **** //
   4:src/_buffer.cpp **** #include "../h/_buffer.hpp"
   5:src/_buffer.cpp **** 
   6:src/_buffer.cpp **** 
   7:src/_buffer.cpp **** //static KeyboardBuffer* instance () {
   8:src/_buffer.cpp **** //    static KeyboardBuffer _instance;
   9:src/_buffer.cpp **** //    return &_instance;
  10:src/_buffer.cpp **** //}
  11:src/_buffer.cpp **** 
  12:src/_buffer.cpp **** //imlementacija uzeta iz zadatka sa klk3
  13:src/_buffer.cpp **** char KeyboardBuffer::take () {
  12              		.loc 1 13 30
  13              		.cfi_startproc
  14              	.LVL0:
  15 0000 130101FE 		addi	sp,sp,-32
  16              		.cfi_def_cfa_offset 32
  17 0004 233C1100 		sd	ra,24(sp)
  18 0008 23388100 		sd	s0,16(sp)
  19 000c 23349100 		sd	s1,8(sp)
  20              		.cfi_offset 1, -8
  21              		.cfi_offset 8, -16
  22              		.cfi_offset 9, -24
  23 0010 13040102 		addi	s0,sp,32
  24              		.cfi_def_cfa 8, 0
  25 0014 93040500 		mv	s1,a0
  14:src/_buffer.cpp ****     itemAvailable->wait();
  26              		.loc 1 14 5
  27              		.loc 1 14 24 is_stmt 0
  28 0018 03350500 		ld	a0,0(a0)
  29              	.LVL1:
  30 001c 97000000 		call	_ZN4_sem4waitEv@plt
  30      E7800000 
  31              	.LVL2:
  15:src/_buffer.cpp **** //    kbint_mask();
  16:src/_buffer.cpp ****     char c = buffer[head];
  32              		.loc 1 16 5 is_stmt 1
  33              		.loc 1 16 21 is_stmt 0
  34 0024 83B78410 		ld	a5,264(s1)
  35              		.loc 1 16 10
  36 0028 3387F400 		add	a4,s1,a5
  37 002c 03458700 		lbu	a0,8(a4)
  38              	.LVL3:
  17:src/_buffer.cpp ****     head = (head+1)%KB_SIZE;
  39              		.loc 1 17 5 is_stmt 1
  40              		.loc 1 17 17 is_stmt 0
GAS LISTING /tmp/ccap6YsT.s 			page 2


  41 0030 93871700 		addi	a5,a5,1
  42              		.loc 1 17 20
  43 0034 93F7F70F 		andi	a5,a5,255
  44              		.loc 1 17 10
  45 0038 23B4F410 		sd	a5,264(s1)
  18:src/_buffer.cpp ****     count--;
  46              		.loc 1 18 5 is_stmt 1
  47 003c 83B78411 		ld	a5,280(s1)
  48              		.loc 1 18 10 is_stmt 0
  49 0040 9387F7FF 		addi	a5,a5,-1
  50 0044 23BCF410 		sd	a5,280(s1)
  19:src/_buffer.cpp **** //    kbint_unmask();
  20:src/_buffer.cpp ****     return c;
  51              		.loc 1 20 5 is_stmt 1
  21:src/_buffer.cpp **** }
  52              		.loc 1 21 1 is_stmt 0
  53 0048 83308101 		ld	ra,24(sp)
  54              		.cfi_restore 1
  55 004c 03340101 		ld	s0,16(sp)
  56              		.cfi_restore 8
  57              		.cfi_def_cfa 2, 32
  58 0050 83348100 		ld	s1,8(sp)
  59              		.cfi_restore 9
  60              	.LVL4:
  61 0054 13010102 		addi	sp,sp,32
  62              		.cfi_def_cfa_offset 0
  63 0058 67800000 		jr	ra
  64              		.cfi_endproc
  65              	.LFE33:
  67              		.align	2
  68              		.globl	_ZN14KeyboardBuffer6appendEc
  70              	_ZN14KeyboardBuffer6appendEc:
  71              	.LFB34:
  22:src/_buffer.cpp **** void KeyboardBuffer::append (char c) {
  72              		.loc 1 22 38 is_stmt 1
  73              		.cfi_startproc
  74              	.LVL5:
  23:src/_buffer.cpp ****     if (count<KB_SIZE) {
  75              		.loc 1 23 5
  76              		.loc 1 23 9 is_stmt 0
  77 005c 83378511 		ld	a5,280(a0)
  78              		.loc 1 23 5
  79 0060 1307F00F 		li	a4,255
  80 0064 6374F700 		bleu	a5,a4,.L9
  81 0068 67800000 		ret
  82              	.L9:
  22:src/_buffer.cpp **** void KeyboardBuffer::append (char c) {
  83              		.loc 1 22 38
  84 006c 130101FF 		addi	sp,sp,-16
  85              		.cfi_def_cfa_offset 16
  86 0070 23341100 		sd	ra,8(sp)
  87 0074 23308100 		sd	s0,0(sp)
  88              		.cfi_offset 1, -8
  89              		.cfi_offset 8, -16
  90 0078 13040101 		addi	s0,sp,16
  91              		.cfi_def_cfa 8, 0
  24:src/_buffer.cpp ****         buffer[tail] = c;
GAS LISTING /tmp/ccap6YsT.s 			page 3


  92              		.loc 1 24 9 is_stmt 1
  93              		.loc 1 24 16 is_stmt 0
  94 007c 03370511 		ld	a4,272(a0)
  95              		.loc 1 24 22
  96 0080 B306E500 		add	a3,a0,a4
  97 0084 2384B600 		sb	a1,8(a3)
  25:src/_buffer.cpp ****         tail = (tail+1)%KB_SIZE;
  98              		.loc 1 25 9 is_stmt 1
  99              		.loc 1 25 21 is_stmt 0
 100 0088 13071700 		addi	a4,a4,1
 101              		.loc 1 25 24
 102 008c 1377F70F 		andi	a4,a4,255
 103              		.loc 1 25 14
 104 0090 2338E510 		sd	a4,272(a0)
  26:src/_buffer.cpp ****         count++;
 105              		.loc 1 26 9 is_stmt 1
 106              		.loc 1 26 14 is_stmt 0
 107 0094 93871700 		addi	a5,a5,1
 108 0098 233CF510 		sd	a5,280(a0)
  27:src/_buffer.cpp ****         itemAvailable->signal();
 109              		.loc 1 27 9 is_stmt 1
 110              		.loc 1 27 30 is_stmt 0
 111 009c 03350500 		ld	a0,0(a0)
 112              	.LVL6:
 113 00a0 97000000 		call	_ZN4_sem6signalEv@plt
 113      E7800000 
 114              	.LVL7:
  28:src/_buffer.cpp ****     }
  29:src/_buffer.cpp **** }...
 115              		.loc 1 29 1
 116 00a8 83308100 		ld	ra,8(sp)
 117              		.cfi_restore 1
 118 00ac 03340100 		ld	s0,0(sp)
 119              		.cfi_restore 8
 120              		.cfi_def_cfa 2, 16
 121 00b0 13010101 		addi	sp,sp,16
 122              		.cfi_def_cfa_offset 0
 123 00b4 67800000 		jr	ra
 124              		.cfi_endproc
 125              	.LFE34:
 127              	.Letext0:
 128              		.file 2 "src/../h/../lib/hw.h"
 129              		.file 3 "src/../h/syscall_c.h"
 130              		.file 4 "src/../h/tcb.hpp"
 131              		.file 5 "src/../h/_sem.hpp"
 132              		.file 6 "src/../h/list.hpp"
 133              		.file 7 "src/../h/_buffer.hpp"
GAS LISTING /tmp/ccap6YsT.s 			page 4

