GAS LISTING /tmp/ccL8NOmJ.s 			page 1


   1              		.file	"_sem.cpp"
   2              		.option pic
   3              		.option norelax
   4              		.text
   5              	.Ltext0:
   6              		.align	2
   7              		.globl	_ZN4_sem9createSemEPPS_m
   9              	_ZN4_sem9createSemEPPS_m:
  10              	.LFB29:
  11              		.file 1 "src/_sem.cpp"
   1:src/_sem.cpp  **** //
   2:src/_sem.cpp  **** // Created by os on 8/30/22.
   3:src/_sem.cpp  **** //
   4:src/_sem.cpp  **** 
   5:src/_sem.cpp  **** #include "../h/_sem.hpp"
   6:src/_sem.cpp  **** 
   7:src/_sem.cpp  **** //void lock(){
   8:src/_sem.cpp  **** //    Riscv::mc_sstatus(Riscv::SSTATUS_SIE);
   9:src/_sem.cpp  **** //}
  10:src/_sem.cpp  **** //void unlock(){
  11:src/_sem.cpp  **** //    Riscv::ms_sstatus(Riscv::SSTATUS_SIE);
  12:src/_sem.cpp  **** //}
  13:src/_sem.cpp  **** 
  14:src/_sem.cpp  **** int _sem::createSem(sem_t *handle, uint64 init){
  12              		.loc 1 14 48
  13              		.cfi_startproc
  14              	.LVL0:
  15 0000 130101FE 		addi	sp,sp,-32
  16              		.cfi_def_cfa_offset 32
  17 0004 233C1100 		sd	ra,24(sp)
  18 0008 23388100 		sd	s0,16(sp)
  19 000c 23349100 		sd	s1,8(sp)
  20 0010 23302101 		sd	s2,0(sp)
  21              		.cfi_offset 1, -8
  22              		.cfi_offset 8, -16
  23              		.cfi_offset 9, -24
  24              		.cfi_offset 18, -32
  25 0014 13040102 		addi	s0,sp,32
  26              		.cfi_def_cfa 8, 0
  27 0018 93040500 		mv	s1,a0
  28 001c 13890500 		mv	s2,a1
  15:src/_sem.cpp  ****     *handle = new _sem(init);
  29              		.loc 1 15 5
  30              		.loc 1 15 28 is_stmt 0
  31 0020 13058001 		li	a0,24
  32              	.LVL1:
  33 0024 97000000 		call	_Znwm@plt
  33      E7800000 
  34              	.LVL2:
  35              	.LBB14:
  36              	.LBB15:
  37              		.file 2 "src/../h/_sem.hpp"
   1:src/../h/_sem.hpp **** //
   2:src/../h/_sem.hpp **** // Created by os on 8/30/22.
   3:src/../h/_sem.hpp **** //
   4:src/../h/_sem.hpp **** 
   5:src/../h/_sem.hpp **** #ifndef PROJECT_BASE__SEM_HPP
GAS LISTING /tmp/ccL8NOmJ.s 			page 2


   6:src/../h/_sem.hpp **** #define PROJECT_BASE__SEM_HPP
   7:src/../h/_sem.hpp **** 
   8:src/../h/_sem.hpp **** #include "list.hpp"
   9:src/../h/_sem.hpp **** #include "tcb.hpp"
  10:src/../h/_sem.hpp **** //#include "syscall_c.h"
  11:src/../h/_sem.hpp **** #include "scheduler.hpp"
  12:src/../h/_sem.hpp **** 
  13:src/../h/_sem.hpp **** 
  14:src/../h/_sem.hpp **** class _sem{
  15:src/../h/_sem.hpp **** 
  16:src/../h/_sem.hpp **** public:
  17:src/../h/_sem.hpp ****     static int createSem(sem_t*, uint64);
  18:src/../h/_sem.hpp ****     ~_sem();
  19:src/../h/_sem.hpp **** 
  20:src/../h/_sem.hpp ****     int wait();
  21:src/../h/_sem.hpp ****     int signal();
  22:src/../h/_sem.hpp **** 
  23:src/../h/_sem.hpp ****     int value(){
  24:src/../h/_sem.hpp ****         return val;
  25:src/../h/_sem.hpp ****     }
  26:src/../h/_sem.hpp ****     friend class _thread;
  27:src/../h/_sem.hpp ****     List<_thread>& blockedList();
  28:src/../h/_sem.hpp **** 
  29:src/../h/_sem.hpp **** 
  30:src/../h/_sem.hpp ****     _sem(int val=1) : val(val) {}
  38              		.loc 2 30 30
  39 002c 23202501 		sw	s2,0(a0)
  40              	.LVL3:
  41              	.LBB16:
  42              	.LBB17:
  43              		.file 3 "src/../h/list.hpp"
   1:src/../h/list.hpp **** //
   2:src/../h/list.hpp **** // Created by marko on 20.4.22..
   3:src/../h/list.hpp **** //
   4:src/../h/list.hpp **** 
   5:src/../h/list.hpp **** #ifndef OS1_VEZBE07_RISCV_CONTEXT_SWITCH_2_INTERRUPT_LIST_HPP
   6:src/../h/list.hpp **** #define OS1_VEZBE07_RISCV_CONTEXT_SWITCH_2_INTERRUPT_LIST_HPP
   7:src/../h/list.hpp **** 
   8:src/../h/list.hpp **** //#include "riscv.hpp"
   9:src/../h/list.hpp **** 
  10:src/../h/list.hpp **** //class Scheduler;
  11:src/../h/list.hpp **** template<typename T>
  12:src/../h/list.hpp **** class List
  13:src/../h/list.hpp **** {
  14:src/../h/list.hpp **** private:
  15:src/../h/list.hpp ****     struct Elem
  16:src/../h/list.hpp ****     {
  17:src/../h/list.hpp ****         T *data;
  18:src/../h/list.hpp ****         Elem *next;
  19:src/../h/list.hpp ****         int sleepTime;
  20:src/../h/list.hpp ****         Elem(T *data, Elem *next, int sleepTime = 0) : data(data), next(next), sleepTime(sleepTime)
  21:src/../h/list.hpp ****         Elem(T *data) : data(data), next(nullptr), sleepTime(0) {}
  22:src/../h/list.hpp ****     };
  23:src/../h/list.hpp **** 
  24:src/../h/list.hpp ****     Elem *head, *tail;
  25:src/../h/list.hpp **** 
  26:src/../h/list.hpp **** public:
GAS LISTING /tmp/ccL8NOmJ.s 			page 3


  27:src/../h/list.hpp ****     List() : head(0), tail(0) {}
  44              		.loc 3 27 29
  45 0030 23340500 		sd	zero,8(a0)
  46 0034 23380500 		sd	zero,16(a0)
  47              	.LVL4:
  48              	.LBE17:
  49              	.LBE16:
  50              	.LBE15:
  51              	.LBE14:
  52              		.loc 1 15 13
  53 0038 23B0A400 		sd	a0,0(s1)
  16:src/_sem.cpp  ****     if(*handle  != nullptr)
  54              		.loc 1 16 5 is_stmt 1
  55 003c 63000502 		beqz	a0,.L3
  17:src/_sem.cpp  ****         return 0;
  56              		.loc 1 17 16 is_stmt 0
  57 0040 13050000 		li	a0,0
  58              	.L2:
  18:src/_sem.cpp  ****     else
  19:src/_sem.cpp  ****         return -2;
  20:src/_sem.cpp  **** }
  59              		.loc 1 20 1
  60 0044 83308101 		ld	ra,24(sp)
  61              		.cfi_remember_state
  62              		.cfi_restore 1
  63 0048 03340101 		ld	s0,16(sp)
  64              		.cfi_restore 8
  65              		.cfi_def_cfa 2, 32
  66 004c 83348100 		ld	s1,8(sp)
  67              		.cfi_restore 9
  68              	.LVL5:
  69 0050 03390100 		ld	s2,0(sp)
  70              		.cfi_restore 18
  71              	.LVL6:
  72 0054 13010102 		addi	sp,sp,32
  73              		.cfi_def_cfa_offset 0
  74 0058 67800000 		jr	ra
  75              	.LVL7:
  76              	.L3:
  77              		.cfi_restore_state
  19:src/_sem.cpp  **** }
  78              		.loc 1 19 17
  79 005c 1305E0FF 		li	a0,-2
  80 0060 6FF05FFE 		j	.L2
  81              		.cfi_endproc
  82              	.LFE29:
  84              		.align	2
  85              		.globl	_ZN4_semD2Ev
  87              	_ZN4_semD2Ev:
  88              	.LFB31:
  21:src/_sem.cpp  **** 
  22:src/_sem.cpp  **** _sem::~_sem() {
  89              		.loc 1 22 1 is_stmt 1
  90              		.cfi_startproc
  91              		.cfi_personality 0x9b,DW.ref.__gxx_personality_v0
  92              		.cfi_lsda 0x1b,.LLSDA31
  93              	.LVL8:
GAS LISTING /tmp/ccL8NOmJ.s 			page 4


  94 0064 130101FE 		addi	sp,sp,-32
  95              		.cfi_def_cfa_offset 32
  96 0068 233C1100 		sd	ra,24(sp)
  97 006c 23388100 		sd	s0,16(sp)
  98 0070 23349100 		sd	s1,8(sp)
  99 0074 23302101 		sd	s2,0(sp)
 100              		.cfi_offset 1, -8
 101              		.cfi_offset 8, -16
 102              		.cfi_offset 9, -24
 103              		.cfi_offset 18, -32
 104 0078 13040102 		addi	s0,sp,32
 105              		.cfi_def_cfa 8, 0
 106              	.LBB26:
  23:src/_sem.cpp  **** //    lock();
  24:src/_sem.cpp  ****     _thread *t;
 107              		.loc 1 24 5
  25:src/_sem.cpp  ****     t = blockedThreadQueue.removeLast();
 108              		.loc 1 25 5
 109              		.loc 1 25 38 is_stmt 0
 110 007c 13098500 		addi	s2,a0,8
 111              	.LVL9:
 112              	.LBB27:
 113              	.LBB28:
  28:src/../h/list.hpp **** 
  29:src/../h/list.hpp ****     List(const List<T> &) = delete;
  30:src/../h/list.hpp **** 
  31:src/../h/list.hpp ****     List<T> &operator=(const List<T> &) = delete;
  32:src/../h/list.hpp **** 
  33:src/../h/list.hpp ****     void addFirst(T *data)
  34:src/../h/list.hpp ****     {
  35:src/../h/list.hpp ****         Elem *elem = new Elem(data, head);
  36:src/../h/list.hpp ****         head = elem;
  37:src/../h/list.hpp ****         if (!tail) { tail = head; }
  38:src/../h/list.hpp ****     }
  39:src/../h/list.hpp **** 
  40:src/../h/list.hpp ****     void addLast(T *data)
  41:src/../h/list.hpp ****     {
  42:src/../h/list.hpp ****         Elem *elem = new Elem(data, 0);
  43:src/../h/list.hpp ****         if (tail)
  44:src/../h/list.hpp ****         {
  45:src/../h/list.hpp ****             tail->next = elem;
  46:src/../h/list.hpp ****             tail = elem;
  47:src/../h/list.hpp ****         } else
  48:src/../h/list.hpp ****         {
  49:src/../h/list.hpp ****             head = tail = elem;
  50:src/../h/list.hpp ****         }
  51:src/../h/list.hpp ****     }
  52:src/../h/list.hpp **** 
  53:src/../h/list.hpp ****     T *removeFirst()
  54:src/../h/list.hpp ****     {
  55:src/../h/list.hpp ****         if (!head) { return 0; }
  56:src/../h/list.hpp **** 
  57:src/../h/list.hpp ****         Elem *elem = head;
  58:src/../h/list.hpp ****         head = head->next;
  59:src/../h/list.hpp ****         if (!head) { tail = 0; }
  60:src/../h/list.hpp **** 
  61:src/../h/list.hpp ****         T *ret = elem->data;
GAS LISTING /tmp/ccL8NOmJ.s 			page 5


  62:src/../h/list.hpp ****         delete elem;
  63:src/../h/list.hpp ****         return ret;
  64:src/../h/list.hpp ****     }
  65:src/../h/list.hpp **** 
  66:src/../h/list.hpp ****     T *peekFirst()
  67:src/../h/list.hpp ****     {
  68:src/../h/list.hpp ****         if (!head) { return 0; }
  69:src/../h/list.hpp ****         return head->data;
  70:src/../h/list.hpp ****     }
  71:src/../h/list.hpp **** 
  72:src/../h/list.hpp ****     T *removeLast()
  73:src/../h/list.hpp ****     {
  74:src/../h/list.hpp ****         if (!head) { return 0; }
 114              		.loc 3 74 14
 115 0080 83348500 		ld	s1,8(a0)
 116              		.loc 3 74 9
 117 0084 63880406 		beqz	s1,.L17
 118 0088 93060500 		mv	a3,a0
  75:src/../h/list.hpp **** 
  76:src/../h/list.hpp ****         Elem *prev = 0;
 119              		.loc 3 76 15
 120 008c 13070000 		li	a4,0
 121              	.L8:
 122              	.LVL10:
 123              	.LBB29:
  77:src/../h/list.hpp ****         for (Elem *curr = head; curr && curr != tail; curr = curr->next)
 124              		.loc 3 77 38 is_stmt 1
 125 0090 638C0400 		beqz	s1,.L7
 126              		.loc 3 77 49 is_stmt 0
 127 0094 83378900 		ld	a5,8(s2)
 128              		.loc 3 77 38
 129 0098 6388F400 		beq	s1,a5,.L7
 130              	.LVL11:
 131              		.loc 3 77 9 is_stmt 1
  78:src/../h/list.hpp ****         {
  79:src/../h/list.hpp ****             prev = curr;
 132              		.loc 3 79 13 is_stmt 0
 133 009c 13870400 		mv	a4,s1
  77:src/../h/list.hpp ****         for (Elem *curr = head; curr && curr != tail; curr = curr->next)
 134              		.loc 3 77 9
 135 00a0 83B48400 		ld	s1,8(s1)
 136              	.LVL12:
 137 00a4 6FF0DFFE 		j	.L8
 138              	.L7:
 139              	.LBE29:
  80:src/../h/list.hpp ****         }
  81:src/../h/list.hpp **** 
  82:src/../h/list.hpp ****         Elem *elem = tail;
 140              		.loc 3 82 15
 141 00a8 03358900 		ld	a0,8(s2)
 142              	.LVL13:
  83:src/../h/list.hpp ****         if (prev) { prev->next = 0; }
 143              		.loc 3 83 9
 144 00ac 63000702 		beqz	a4,.L9
 145              		.loc 3 83 21
 146 00b0 23340700 		sd	zero,8(a4)
 147              	.L10:
GAS LISTING /tmp/ccL8NOmJ.s 			page 6


  84:src/../h/list.hpp ****         else { head = 0; }
  85:src/../h/list.hpp ****         tail = prev;
 148              		.loc 3 85 9
 149 00b4 2334E900 		sd	a4,8(s2)
  86:src/../h/list.hpp **** 
  87:src/../h/list.hpp ****         T *ret = elem->data;
 150              		.loc 3 87 12
 151 00b8 83340500 		ld	s1,0(a0)
 152              	.LVL14:
  88:src/../h/list.hpp ****         delete elem;
 153              		.loc 3 88 9
 154 00bc 630C0502 		beqz	a0,.L17
 155 00c0 97000000 		call	_ZdlPv@plt
 155      E7800000 
 156              	.LVL15:
 157 00c8 6F00C002 		j	.L17
 158              	.LVL16:
 159              	.L9:
  84:src/../h/list.hpp ****         else { head = 0; }
 160              		.loc 3 84 16
 161 00cc 23B40600 		sd	zero,8(a3)
 162 00d0 6FF05FFE 		j	.L10
 163              	.LVL17:
 164              	.L13:
 165              	.LBE28:
 166              	.LBE27:
 167              	.LBB30:
 168              	.LBB31:
  82:src/../h/list.hpp ****         if (prev) { prev->next = 0; }
 169              		.loc 3 82 15
 170 00d4 03358900 		ld	a0,8(s2)
 171              	.LVL18:
  83:src/../h/list.hpp ****         else { head = 0; }
 172              		.loc 3 83 9
 173 00d8 63880704 		beqz	a5,.L15
  83:src/../h/list.hpp ****         else { head = 0; }
 174              		.loc 3 83 21
 175 00dc 23B40700 		sd	zero,8(a5)
 176              	.L16:
  85:src/../h/list.hpp **** 
 177              		.loc 3 85 9
 178 00e0 2334F900 		sd	a5,8(s2)
  87:src/../h/list.hpp ****         delete elem;
 179              		.loc 3 87 12
 180 00e4 83340500 		ld	s1,0(a0)
 181              	.LVL19:
 182              		.loc 3 88 9
 183 00e8 63060500 		beqz	a0,.L17
 184 00ec 97000000 		call	_ZdlPv@plt
 184      E7800000 
 185              	.LVL20:
 186              	.L17:
 187              	.LBE31:
 188              	.LBE30:
  26:src/_sem.cpp  ****     while(t){
 189              		.loc 1 26 5 is_stmt 1
 190              		.loc 1 26 11
GAS LISTING /tmp/ccL8NOmJ.s 			page 7


 191 00f4 638E0402 		beqz	s1,.L5
  27:src/_sem.cpp  ****         Scheduler::put(t);
 192              		.loc 1 27 9
 193              		.loc 1 27 23 is_stmt 0
 194 00f8 13850400 		mv	a0,s1
 195 00fc 97000000 		call	_ZN9Scheduler3putEP7_thread@plt
 195      E7800000 
 196              	.LVL21:
  28:src/_sem.cpp  ****         t = blockedThreadQueue.removeLast();
 197              		.loc 1 28 9 is_stmt 1
 198              	.LBB34:
 199              	.LBB33:
  74:src/../h/list.hpp **** 
 200              		.loc 3 74 14 is_stmt 0
 201 0104 83340900 		ld	s1,0(s2)
 202              	.LVL22:
  74:src/../h/list.hpp **** 
 203              		.loc 3 74 9
 204 0108 E38604FE 		beqz	s1,.L17
  76:src/../h/list.hpp ****         for (Elem *curr = head; curr && curr != tail; curr = curr->next)
 205              		.loc 3 76 15
 206 010c 93070000 		li	a5,0
 207              	.L14:
 208              	.LVL23:
 209              	.LBB32:
  77:src/../h/list.hpp ****         {
 210              		.loc 3 77 38 is_stmt 1
 211 0110 E38204FC 		beqz	s1,.L13
  77:src/../h/list.hpp ****         {
 212              		.loc 3 77 49 is_stmt 0
 213 0114 03378900 		ld	a4,8(s2)
  77:src/../h/list.hpp ****         {
 214              		.loc 3 77 38
 215 0118 E38EE4FA 		beq	s1,a4,.L13
 216              	.LVL24:
  77:src/../h/list.hpp ****         {
 217              		.loc 3 77 9 is_stmt 1
  79:src/../h/list.hpp ****         }
 218              		.loc 3 79 13 is_stmt 0
 219 011c 93870400 		mv	a5,s1
  77:src/../h/list.hpp ****         {
 220              		.loc 3 77 9
 221 0120 83B48400 		ld	s1,8(s1)
 222              	.LVL25:
 223 0124 6FF0DFFE 		j	.L14
 224              	.LVL26:
 225              	.L15:
 226              	.LBE32:
  84:src/../h/list.hpp ****         tail = prev;
 227              		.loc 3 84 16
 228 0128 23300900 		sd	zero,0(s2)
 229 012c 6FF05FFB 		j	.L16
 230              	.LVL27:
 231              	.L5:
 232              	.LBE33:
 233              	.LBE34:
 234              	.LBE26:
GAS LISTING /tmp/ccL8NOmJ.s 			page 8


  29:src/_sem.cpp  ****     }
  30:src/_sem.cpp  **** //    unlock();
  31:src/_sem.cpp  **** }
 235              		.loc 1 31 1
 236 0130 83308101 		ld	ra,24(sp)
 237              		.cfi_restore 1
 238 0134 03340101 		ld	s0,16(sp)
 239              		.cfi_restore 8
 240              		.cfi_def_cfa 2, 32
 241 0138 83348100 		ld	s1,8(sp)
 242              		.cfi_restore 9
 243              	.LVL28:
 244 013c 03390100 		ld	s2,0(sp)
 245              		.cfi_restore 18
 246              	.LVL29:
 247 0140 13010102 		addi	sp,sp,32
 248              		.cfi_def_cfa_offset 0
 249 0144 67800000 		jr	ra
 250              		.cfi_endproc
 251              	.LFE31:
 252              		.globl	__gxx_personality_v0
 253              		.section	.gcc_except_table,"a",@progbits
 254              	.LLSDA31:
 255 0000 FF       		.byte	0xff
 256 0001 FF       		.byte	0xff
 257 0002 03       		.byte	0x3
 258 0003 00       		.byte	0
 259              		.text
 261              		.globl	_ZN4_semD1Ev
 262              		.set	_ZN4_semD1Ev,_ZN4_semD2Ev
 263              		.align	2
 264              		.globl	_ZN4_sem5blockEv
 266              	_ZN4_sem5blockEv:
 267              	.LFB33:
  32:src/_sem.cpp  **** 
  33:src/_sem.cpp  **** void _sem::block() {
 268              		.loc 1 33 20 is_stmt 1
 269              		.cfi_startproc
 270              	.LVL30:
 271 0148 130101FF 		addi	sp,sp,-16
 272              		.cfi_def_cfa_offset 16
 273 014c 23341100 		sd	ra,8(sp)
 274 0150 23308100 		sd	s0,0(sp)
 275              		.cfi_offset 1, -8
 276              		.cfi_offset 8, -16
 277 0154 13040101 		addi	s0,sp,16
 278              		.cfi_def_cfa 8, 0
  34:src/_sem.cpp  **** 
  35:src/_sem.cpp  ****     _thread::running->blocked  = true;
 279              		.loc 1 35 5
 280              		.loc 1 35 23 is_stmt 0
 281 0158 97070000 		la	a5,_ZN7_thread7runningE
 281      83B70700 
 282 0160 83B70700 		ld	a5,0(a5)
 283              		.loc 1 35 32
 284 0164 13071000 		li	a4,1
 285 0168 238CE702 		sb	a4,56(a5)
GAS LISTING /tmp/ccL8NOmJ.s 			page 9


  36:src/_sem.cpp  ****     _thread::running->blockedBy = this;
 286              		.loc 1 36 5 is_stmt 1
 287              		.loc 1 36 33 is_stmt 0
 288 016c 23B0A704 		sd	a0,64(a5)
  37:src/_sem.cpp  ****     _thread::dispatch();
 289              		.loc 1 37 5 is_stmt 1
 290              		.loc 1 37 22 is_stmt 0
 291 0170 97000000 		call	_ZN7_thread8dispatchEv@plt
 291      E7800000 
 292              	.LVL31:
  38:src/_sem.cpp  ****     //pozvace se zamena konteksta, ako je blocked = true u dispach()-u ce se ubaciti nit u blocked 
  39:src/_sem.cpp  **** }
 293              		.loc 1 39 1
 294 0178 83308100 		ld	ra,8(sp)
 295              		.cfi_restore 1
 296 017c 03340100 		ld	s0,0(sp)
 297              		.cfi_restore 8
 298              		.cfi_def_cfa 2, 16
 299 0180 13010101 		addi	sp,sp,16
 300              		.cfi_def_cfa_offset 0
 301 0184 67800000 		jr	ra
 302              		.cfi_endproc
 303              	.LFE33:
 305              		.align	2
 306              		.globl	_ZN4_sem7deblockEv
 308              	_ZN4_sem7deblockEv:
 309              	.LFB34:
  40:src/_sem.cpp  **** 
  41:src/_sem.cpp  **** void _sem::deblock(){
 310              		.loc 1 41 21 is_stmt 1
 311              		.cfi_startproc
 312              	.LVL32:
 313 0188 130101FE 		addi	sp,sp,-32
 314              		.cfi_def_cfa_offset 32
 315 018c 233C1100 		sd	ra,24(sp)
 316 0190 23388100 		sd	s0,16(sp)
 317 0194 23349100 		sd	s1,8(sp)
 318              		.cfi_offset 1, -8
 319              		.cfi_offset 8, -16
 320              		.cfi_offset 9, -24
 321 0198 13040102 		addi	s0,sp,32
 322              		.cfi_def_cfa 8, 0
 323 019c 93070500 		mv	a5,a0
  42:src/_sem.cpp  ****     _thread *t = blockedThreadQueue.removeFirst();
 324              		.loc 1 42 5
 325              	.LVL33:
 326              	.LBB35:
 327              	.LBB36:
  55:src/../h/list.hpp **** 
 328              		.loc 3 55 14 is_stmt 0
 329 01a0 03358500 		ld	a0,8(a0)
 330              	.LVL34:
  55:src/../h/list.hpp **** 
 331              		.loc 3 55 9
 332 01a4 63080504 		beqz	a0,.L24
 333              	.LVL35:
  58:src/../h/list.hpp ****         if (!head) { tail = 0; }
GAS LISTING /tmp/ccL8NOmJ.s 			page 10


 334              		.loc 3 58 22
 335 01a8 03378500 		ld	a4,8(a0)
  58:src/../h/list.hpp ****         if (!head) { tail = 0; }
 336              		.loc 3 58 9
 337 01ac 23B4E700 		sd	a4,8(a5)
  59:src/../h/list.hpp **** 
 338              		.loc 3 59 9
 339 01b0 630E0702 		beqz	a4,.L26
 340              	.L23:
  61:src/../h/list.hpp ****         delete elem;
 341              		.loc 3 61 12
 342 01b4 83340500 		ld	s1,0(a0)
 343              	.LVL36:
  62:src/../h/list.hpp ****         return ret;
 344              		.loc 3 62 9
 345 01b8 97000000 		call	_ZdlPv@plt
 345      E7800000 
 346              	.LVL37:
 347              	.L22:
 348              	.LBE36:
 349              	.LBE35:
  43:src/_sem.cpp  ****     t->dblck();
 350              		.loc 1 43 5 is_stmt 1
 351              		.loc 1 43 13 is_stmt 0
 352 01c0 13850400 		mv	a0,s1
 353 01c4 97000000 		call	_ZN7_thread5dblckEv@plt
 353      E7800000 
 354              	.LVL38:
  44:src/_sem.cpp  ****     Scheduler::put(t);
 355              		.loc 1 44 5 is_stmt 1
 356              		.loc 1 44 19 is_stmt 0
 357 01cc 13850400 		mv	a0,s1
 358 01d0 97000000 		call	_ZN9Scheduler3putEP7_thread@plt
 358      E7800000 
 359              	.LVL39:
  45:src/_sem.cpp  **** }
 360              		.loc 1 45 1
 361 01d8 83308101 		ld	ra,24(sp)
 362              		.cfi_remember_state
 363              		.cfi_restore 1
 364 01dc 03340101 		ld	s0,16(sp)
 365              		.cfi_restore 8
 366              		.cfi_def_cfa 2, 32
 367 01e0 83348100 		ld	s1,8(sp)
 368              		.cfi_restore 9
 369              	.LVL40:
 370 01e4 13010102 		addi	sp,sp,32
 371              		.cfi_def_cfa_offset 0
 372 01e8 67800000 		jr	ra
 373              	.LVL41:
 374              	.L26:
 375              		.cfi_restore_state
 376              	.LBB38:
 377              	.LBB37:
  59:src/../h/list.hpp **** 
 378              		.loc 3 59 22
 379 01ec 23B80700 		sd	zero,16(a5)
GAS LISTING /tmp/ccL8NOmJ.s 			page 11


 380 01f0 6FF05FFC 		j	.L23
 381              	.LVL42:
 382              	.L24:
  55:src/../h/list.hpp **** 
 383              		.loc 3 55 29
 384 01f4 93040500 		mv	s1,a0
 385 01f8 6FF09FFC 		j	.L22
 386              	.LBE37:
 387              	.LBE38:
 388              		.cfi_endproc
 389              	.LFE34:
 391              		.align	2
 392              		.globl	_ZN4_sem4waitEv
 394              	_ZN4_sem4waitEv:
 395              	.LFB35:
  46:src/_sem.cpp  **** 
  47:src/_sem.cpp  **** int _sem::wait() {
 396              		.loc 1 47 18 is_stmt 1
 397              		.cfi_startproc
 398              	.LVL43:
  48:src/_sem.cpp  **** //    lock();
  49:src/_sem.cpp  ****     if(--val < 0)
 399              		.loc 1 49 5
 400              		.loc 1 49 10 is_stmt 0
 401 01fc 83270500 		lw	a5,0(a0)
 402              		.loc 1 49 8
 403 0200 9B87F7FF 		addiw	a5,a5,-1
 404              		.loc 1 49 14
 405 0204 2320F500 		sw	a5,0(a0)
 406              		.loc 1 49 5
 407 0208 13970702 		slli	a4,a5,32
 408 020c 63460700 		bltz	a4,.L33
  50:src/_sem.cpp  ****         block();
  51:src/_sem.cpp  **** //    unlock();
  52:src/_sem.cpp  ****     return 0;
 409              		.loc 1 52 5 is_stmt 1
  53:src/_sem.cpp  **** }
 410              		.loc 1 53 1 is_stmt 0
 411 0210 13050000 		li	a0,0
 412              	.LVL44:
 413 0214 67800000 		ret
 414              	.LVL45:
 415              	.L33:
  47:src/_sem.cpp  **** //    lock();
 416              		.loc 1 47 18
 417 0218 130101FF 		addi	sp,sp,-16
 418              		.cfi_def_cfa_offset 16
 419 021c 23341100 		sd	ra,8(sp)
 420 0220 23308100 		sd	s0,0(sp)
 421              		.cfi_offset 1, -8
 422              		.cfi_offset 8, -16
 423 0224 13040101 		addi	s0,sp,16
 424              		.cfi_def_cfa 8, 0
  50:src/_sem.cpp  ****         block();
 425              		.loc 1 50 9 is_stmt 1
  50:src/_sem.cpp  ****         block();
 426              		.loc 1 50 14 is_stmt 0
GAS LISTING /tmp/ccL8NOmJ.s 			page 12


 427 0228 97000000 		call	_ZN4_sem5blockEv
 427      E7800000 
 428              	.LVL46:
  52:src/_sem.cpp  **** }
 429              		.loc 1 52 5 is_stmt 1
 430              		.loc 1 53 1 is_stmt 0
 431 0230 13050000 		li	a0,0
 432 0234 83308100 		ld	ra,8(sp)
 433              		.cfi_restore 1
 434 0238 03340100 		ld	s0,0(sp)
 435              		.cfi_restore 8
 436              		.cfi_def_cfa 2, 16
 437 023c 13010101 		addi	sp,sp,16
 438              		.cfi_def_cfa_offset 0
 439 0240 67800000 		jr	ra
 440              		.cfi_endproc
 441              	.LFE35:
 443              		.align	2
 444              		.globl	_ZN4_sem6signalEv
 446              	_ZN4_sem6signalEv:
 447              	.LFB36:
  54:src/_sem.cpp  **** 
  55:src/_sem.cpp  **** int _sem::signal() {
 448              		.loc 1 55 20 is_stmt 1
 449              		.cfi_startproc
 450              	.LVL47:
  56:src/_sem.cpp  **** //    lock();
  57:src/_sem.cpp  ****     if(val++ < 0)
 451              		.loc 1 57 5
 452              		.loc 1 57 8 is_stmt 0
 453 0244 83270500 		lw	a5,0(a0)
 454              		.loc 1 57 11
 455 0248 1B871700 		addiw	a4,a5,1
 456 024c 2320E500 		sw	a4,0(a0)
 457              		.loc 1 57 5
 458 0250 63C60700 		bltz	a5,.L40
  58:src/_sem.cpp  ****         deblock();
  59:src/_sem.cpp  **** //    unlock();
  60:src/_sem.cpp  ****     return 0;
 459              		.loc 1 60 5 is_stmt 1
  61:src/_sem.cpp  **** }
 460              		.loc 1 61 1 is_stmt 0
 461 0254 13050000 		li	a0,0
 462              	.LVL48:
 463 0258 67800000 		ret
 464              	.LVL49:
 465              	.L40:
  55:src/_sem.cpp  **** //    lock();
 466              		.loc 1 55 20
 467 025c 130101FF 		addi	sp,sp,-16
 468              		.cfi_def_cfa_offset 16
 469 0260 23341100 		sd	ra,8(sp)
 470 0264 23308100 		sd	s0,0(sp)
 471              		.cfi_offset 1, -8
 472              		.cfi_offset 8, -16
 473 0268 13040101 		addi	s0,sp,16
 474              		.cfi_def_cfa 8, 0
GAS LISTING /tmp/ccL8NOmJ.s 			page 13


  58:src/_sem.cpp  ****         deblock();
 475              		.loc 1 58 9 is_stmt 1
  58:src/_sem.cpp  ****         deblock();
 476              		.loc 1 58 16 is_stmt 0
 477 026c 97000000 		call	_ZN4_sem7deblockEv
 477      E7800000 
 478              	.LVL50:
  60:src/_sem.cpp  **** }
 479              		.loc 1 60 5 is_stmt 1
 480              		.loc 1 61 1 is_stmt 0
 481 0274 13050000 		li	a0,0
 482 0278 83308100 		ld	ra,8(sp)
 483              		.cfi_restore 1
 484 027c 03340100 		ld	s0,0(sp)
 485              		.cfi_restore 8
 486              		.cfi_def_cfa 2, 16
 487 0280 13010101 		addi	sp,sp,16
 488              		.cfi_def_cfa_offset 0
 489 0284 67800000 		jr	ra
 490              		.cfi_endproc
 491              	.LFE36:
 493              		.align	2
 494              		.globl	_ZN4_sem11blockedListEv
 496              	_ZN4_sem11blockedListEv:
 497              	.LFB37:
  62:src/_sem.cpp  **** 
  63:src/_sem.cpp  **** List<_thread>& _sem::blockedList(){
 498              		.loc 1 63 35 is_stmt 1
 499              		.cfi_startproc
 500              	.LVL51:
 501 0288 130101FF 		addi	sp,sp,-16
 502              		.cfi_def_cfa_offset 16
 503 028c 23348100 		sd	s0,8(sp)
 504              		.cfi_offset 8, -8
 505 0290 13040101 		addi	s0,sp,16
 506              		.cfi_def_cfa 8, 0
  64:src/_sem.cpp  ****     return _sem::blockedThreadQueue;
 507              		.loc 1 64 5
  65:src/_sem.cpp  **** }
 508              		.loc 1 65 1 is_stmt 0
 509 0294 13058500 		addi	a0,a0,8
 510              	.LVL52:
 511 0298 03348100 		ld	s0,8(sp)
 512              		.cfi_restore 8
 513              		.cfi_def_cfa 2, 16
 514 029c 13010101 		addi	sp,sp,16
 515              		.cfi_def_cfa_offset 0
 516 02a0 67800000 		jr	ra
 517              		.cfi_endproc
 518              	.LFE37:
 520              	.Letext0:
 521              		.file 4 "src/../h/../lib/hw.h"
 522              		.file 5 "src/../h/syscall_c.h"
 523              		.file 6 "src/../h/tcb.hpp"
 524              		.file 7 "src/../h/scheduler.hpp"
 3769              		.align	3
 3772              	DW.ref.__gxx_personality_v0:
GAS LISTING /tmp/ccL8NOmJ.s 			page 14


 3773 0000 00000000 		.dword	__gxx_personality_v0
 3773      00000000 
 3774              		.ident	"GCC: (Ubuntu 9.4.0-1ubuntu1~20.04) 9.4.0"
 3775              		.section	.note.GNU-stack,"",@progbits
GAS LISTING /tmp/ccL8NOmJ.s 			page 15


DEFINED SYMBOLS
                            *ABS*:0000000000000000 _sem.cpp
     /tmp/ccL8NOmJ.s:9      .text:0000000000000000 _ZN4_sem9createSemEPPS_m
     /tmp/ccL8NOmJ.s:13     .text:0000000000000000 .L0 
     /tmp/ccL8NOmJ.s:15     .text:0000000000000000 .L0 
     /tmp/ccL8NOmJ.s:16     .text:0000000000000004 .L0 
     /tmp/ccL8NOmJ.s:21     .text:0000000000000014 .L0 
     /tmp/ccL8NOmJ.s:22     .text:0000000000000014 .L0 
     /tmp/ccL8NOmJ.s:23     .text:0000000000000014 .L0 
     /tmp/ccL8NOmJ.s:24     .text:0000000000000014 .L0 
     /tmp/ccL8NOmJ.s:26     .text:0000000000000018 .L0 
     /tmp/ccL8NOmJ.s:30     .text:0000000000000020 .L0 
     /tmp/ccL8NOmJ.s:31     .text:0000000000000020 .L0 
     /tmp/ccL8NOmJ.s:39     .text:000000000000002c .L0 
     /tmp/ccL8NOmJ.s:45     .text:0000000000000030 .L0 
     /tmp/ccL8NOmJ.s:53     .text:0000000000000038 .L0 
     /tmp/ccL8NOmJ.s:55     .text:000000000000003c .L0 
     /tmp/ccL8NOmJ.s:57     .text:0000000000000040 .L0 
     /tmp/ccL8NOmJ.s:60     .text:0000000000000044 .L0 
     /tmp/ccL8NOmJ.s:61     .text:0000000000000048 .L0 
     /tmp/ccL8NOmJ.s:62     .text:0000000000000048 .L0 
     /tmp/ccL8NOmJ.s:64     .text:000000000000004c .L0 
     /tmp/ccL8NOmJ.s:65     .text:000000000000004c .L0 
     /tmp/ccL8NOmJ.s:67     .text:0000000000000050 .L0 
     /tmp/ccL8NOmJ.s:70     .text:0000000000000054 .L0 
     /tmp/ccL8NOmJ.s:73     .text:0000000000000058 .L0 
     /tmp/ccL8NOmJ.s:77     .text:000000000000005c .L0 
     /tmp/ccL8NOmJ.s:79     .text:000000000000005c .L0 
     /tmp/ccL8NOmJ.s:81     .text:0000000000000064 .L0 
     /tmp/ccL8NOmJ.s:87     .text:0000000000000064 _ZN4_semD2Ev
     /tmp/ccL8NOmJ.s:90     .text:0000000000000064 .L0 
     /tmp/ccL8NOmJ.s:3772   .data.rel.local.DW.ref.__gxx_personality_v0:0000000000000000 DW.ref.__gxx_personality_v0
     /tmp/ccL8NOmJ.s:94     .text:0000000000000064 .L0 
     /tmp/ccL8NOmJ.s:95     .text:0000000000000068 .L0 
     /tmp/ccL8NOmJ.s:100    .text:0000000000000078 .L0 
     /tmp/ccL8NOmJ.s:101    .text:0000000000000078 .L0 
     /tmp/ccL8NOmJ.s:102    .text:0000000000000078 .L0 
     /tmp/ccL8NOmJ.s:103    .text:0000000000000078 .L0 
     /tmp/ccL8NOmJ.s:105    .text:000000000000007c .L0 
     /tmp/ccL8NOmJ.s:108    .text:000000000000007c .L0 
     /tmp/ccL8NOmJ.s:109    .text:000000000000007c .L0 
     /tmp/ccL8NOmJ.s:110    .text:000000000000007c .L0 
     /tmp/ccL8NOmJ.s:115    .text:0000000000000080 .L0 
     /tmp/ccL8NOmJ.s:117    .text:0000000000000084 .L0 
     /tmp/ccL8NOmJ.s:120    .text:000000000000008c .L0 
     /tmp/ccL8NOmJ.s:125    .text:0000000000000090 .L0 
     /tmp/ccL8NOmJ.s:127    .text:0000000000000094 .L0 
     /tmp/ccL8NOmJ.s:129    .text:0000000000000098 .L0 
     /tmp/ccL8NOmJ.s:132    .text:000000000000009c .L0 
     /tmp/ccL8NOmJ.s:133    .text:000000000000009c .L0 
     /tmp/ccL8NOmJ.s:135    .text:00000000000000a0 .L0 
     /tmp/ccL8NOmJ.s:141    .text:00000000000000a8 .L0 
     /tmp/ccL8NOmJ.s:144    .text:00000000000000ac .L0 
     /tmp/ccL8NOmJ.s:146    .text:00000000000000b0 .L0 
     /tmp/ccL8NOmJ.s:149    .text:00000000000000b4 .L0 
     /tmp/ccL8NOmJ.s:151    .text:00000000000000b8 .L0 
     /tmp/ccL8NOmJ.s:154    .text:00000000000000bc .L0 
GAS LISTING /tmp/ccL8NOmJ.s 			page 16


     /tmp/ccL8NOmJ.s:161    .text:00000000000000cc .L0 
     /tmp/ccL8NOmJ.s:170    .text:00000000000000d4 .L0 
     /tmp/ccL8NOmJ.s:173    .text:00000000000000d8 .L0 
     /tmp/ccL8NOmJ.s:175    .text:00000000000000dc .L0 
     /tmp/ccL8NOmJ.s:178    .text:00000000000000e0 .L0 
     /tmp/ccL8NOmJ.s:180    .text:00000000000000e4 .L0 
     /tmp/ccL8NOmJ.s:183    .text:00000000000000e8 .L0 
     /tmp/ccL8NOmJ.s:190    .text:00000000000000f4 .L0 
     /tmp/ccL8NOmJ.s:191    .text:00000000000000f4 .L0 
     /tmp/ccL8NOmJ.s:193    .text:00000000000000f8 .L0 
     /tmp/ccL8NOmJ.s:194    .text:00000000000000f8 .L0 
     /tmp/ccL8NOmJ.s:200    .text:0000000000000104 .L0 
     /tmp/ccL8NOmJ.s:201    .text:0000000000000104 .L0 
     /tmp/ccL8NOmJ.s:204    .text:0000000000000108 .L0 
     /tmp/ccL8NOmJ.s:206    .text:000000000000010c .L0 
     /tmp/ccL8NOmJ.s:211    .text:0000000000000110 .L0 
     /tmp/ccL8NOmJ.s:213    .text:0000000000000114 .L0 
     /tmp/ccL8NOmJ.s:215    .text:0000000000000118 .L0 
     /tmp/ccL8NOmJ.s:218    .text:000000000000011c .L0 
     /tmp/ccL8NOmJ.s:219    .text:000000000000011c .L0 
     /tmp/ccL8NOmJ.s:221    .text:0000000000000120 .L0 
     /tmp/ccL8NOmJ.s:228    .text:0000000000000128 .L0 
     /tmp/ccL8NOmJ.s:236    .text:0000000000000130 .L0 
     /tmp/ccL8NOmJ.s:237    .text:0000000000000134 .L0 
     /tmp/ccL8NOmJ.s:239    .text:0000000000000138 .L0 
     /tmp/ccL8NOmJ.s:240    .text:0000000000000138 .L0 
     /tmp/ccL8NOmJ.s:242    .text:000000000000013c .L0 
     /tmp/ccL8NOmJ.s:245    .text:0000000000000140 .L0 
     /tmp/ccL8NOmJ.s:248    .text:0000000000000144 .L0 
     /tmp/ccL8NOmJ.s:250    .text:0000000000000148 .L0 
     /tmp/ccL8NOmJ.s:87     .text:0000000000000064 _ZN4_semD1Ev
     /tmp/ccL8NOmJ.s:266    .text:0000000000000148 _ZN4_sem5blockEv
     /tmp/ccL8NOmJ.s:269    .text:0000000000000148 .L0 
     /tmp/ccL8NOmJ.s:271    .text:0000000000000148 .L0 
     /tmp/ccL8NOmJ.s:272    .text:000000000000014c .L0 
     /tmp/ccL8NOmJ.s:275    .text:0000000000000154 .L0 
     /tmp/ccL8NOmJ.s:276    .text:0000000000000154 .L0 
     /tmp/ccL8NOmJ.s:278    .text:0000000000000158 .L0 
     /tmp/ccL8NOmJ.s:280    .text:0000000000000158 .L0 
     /tmp/ccL8NOmJ.s:281    .text:0000000000000158 .L0 
     /tmp/ccL8NOmJ.s:284    .text:0000000000000164 .L0 
     /tmp/ccL8NOmJ.s:287    .text:000000000000016c .L0 
     /tmp/ccL8NOmJ.s:288    .text:000000000000016c .L0 
     /tmp/ccL8NOmJ.s:290    .text:0000000000000170 .L0 
     /tmp/ccL8NOmJ.s:291    .text:0000000000000170 .L0 
     /tmp/ccL8NOmJ.s:294    .text:0000000000000178 .L0 
     /tmp/ccL8NOmJ.s:295    .text:000000000000017c .L0 
     /tmp/ccL8NOmJ.s:297    .text:0000000000000180 .L0 
     /tmp/ccL8NOmJ.s:298    .text:0000000000000180 .L0 
     /tmp/ccL8NOmJ.s:300    .text:0000000000000184 .L0 
     /tmp/ccL8NOmJ.s:302    .text:0000000000000188 .L0 
     /tmp/ccL8NOmJ.s:308    .text:0000000000000188 _ZN4_sem7deblockEv
     /tmp/ccL8NOmJ.s:311    .text:0000000000000188 .L0 
     /tmp/ccL8NOmJ.s:313    .text:0000000000000188 .L0 
     /tmp/ccL8NOmJ.s:314    .text:000000000000018c .L0 
     /tmp/ccL8NOmJ.s:318    .text:0000000000000198 .L0 
     /tmp/ccL8NOmJ.s:319    .text:0000000000000198 .L0 
GAS LISTING /tmp/ccL8NOmJ.s 			page 17


     /tmp/ccL8NOmJ.s:320    .text:0000000000000198 .L0 
     /tmp/ccL8NOmJ.s:322    .text:000000000000019c .L0 
     /tmp/ccL8NOmJ.s:328    .text:00000000000001a0 .L0 
     /tmp/ccL8NOmJ.s:329    .text:00000000000001a0 .L0 
     /tmp/ccL8NOmJ.s:332    .text:00000000000001a4 .L0 
     /tmp/ccL8NOmJ.s:335    .text:00000000000001a8 .L0 
     /tmp/ccL8NOmJ.s:337    .text:00000000000001ac .L0 
     /tmp/ccL8NOmJ.s:339    .text:00000000000001b0 .L0 
     /tmp/ccL8NOmJ.s:342    .text:00000000000001b4 .L0 
     /tmp/ccL8NOmJ.s:345    .text:00000000000001b8 .L0 
     /tmp/ccL8NOmJ.s:351    .text:00000000000001c0 .L0 
     /tmp/ccL8NOmJ.s:352    .text:00000000000001c0 .L0 
     /tmp/ccL8NOmJ.s:356    .text:00000000000001cc .L0 
     /tmp/ccL8NOmJ.s:357    .text:00000000000001cc .L0 
     /tmp/ccL8NOmJ.s:361    .text:00000000000001d8 .L0 
     /tmp/ccL8NOmJ.s:362    .text:00000000000001dc .L0 
     /tmp/ccL8NOmJ.s:363    .text:00000000000001dc .L0 
     /tmp/ccL8NOmJ.s:365    .text:00000000000001e0 .L0 
     /tmp/ccL8NOmJ.s:366    .text:00000000000001e0 .L0 
     /tmp/ccL8NOmJ.s:368    .text:00000000000001e4 .L0 
     /tmp/ccL8NOmJ.s:371    .text:00000000000001e8 .L0 
     /tmp/ccL8NOmJ.s:375    .text:00000000000001ec .L0 
     /tmp/ccL8NOmJ.s:379    .text:00000000000001ec .L0 
     /tmp/ccL8NOmJ.s:384    .text:00000000000001f4 .L0 
     /tmp/ccL8NOmJ.s:388    .text:00000000000001fc .L0 
     /tmp/ccL8NOmJ.s:394    .text:00000000000001fc _ZN4_sem4waitEv
     /tmp/ccL8NOmJ.s:397    .text:00000000000001fc .L0 
     /tmp/ccL8NOmJ.s:399    .text:00000000000001fc .L0 
     /tmp/ccL8NOmJ.s:400    .text:00000000000001fc .L0 
     /tmp/ccL8NOmJ.s:401    .text:00000000000001fc .L0 
     /tmp/ccL8NOmJ.s:403    .text:0000000000000200 .L0 
     /tmp/ccL8NOmJ.s:405    .text:0000000000000204 .L0 
     /tmp/ccL8NOmJ.s:407    .text:0000000000000208 .L0 
     /tmp/ccL8NOmJ.s:410    .text:0000000000000210 .L0 
     /tmp/ccL8NOmJ.s:411    .text:0000000000000210 .L0 
     /tmp/ccL8NOmJ.s:417    .text:0000000000000218 .L0 
     /tmp/ccL8NOmJ.s:418    .text:000000000000021c .L0 
     /tmp/ccL8NOmJ.s:421    .text:0000000000000224 .L0 
     /tmp/ccL8NOmJ.s:422    .text:0000000000000224 .L0 
     /tmp/ccL8NOmJ.s:424    .text:0000000000000228 .L0 
     /tmp/ccL8NOmJ.s:426    .text:0000000000000228 .L0 
     /tmp/ccL8NOmJ.s:427    .text:0000000000000228 .L0 
     /tmp/ccL8NOmJ.s:430    .text:0000000000000230 .L0 
     /tmp/ccL8NOmJ.s:431    .text:0000000000000230 .L0 
     /tmp/ccL8NOmJ.s:433    .text:0000000000000238 .L0 
     /tmp/ccL8NOmJ.s:435    .text:000000000000023c .L0 
     /tmp/ccL8NOmJ.s:436    .text:000000000000023c .L0 
     /tmp/ccL8NOmJ.s:438    .text:0000000000000240 .L0 
     /tmp/ccL8NOmJ.s:440    .text:0000000000000244 .L0 
     /tmp/ccL8NOmJ.s:446    .text:0000000000000244 _ZN4_sem6signalEv
     /tmp/ccL8NOmJ.s:449    .text:0000000000000244 .L0 
     /tmp/ccL8NOmJ.s:451    .text:0000000000000244 .L0 
     /tmp/ccL8NOmJ.s:452    .text:0000000000000244 .L0 
     /tmp/ccL8NOmJ.s:453    .text:0000000000000244 .L0 
     /tmp/ccL8NOmJ.s:455    .text:0000000000000248 .L0 
     /tmp/ccL8NOmJ.s:458    .text:0000000000000250 .L0 
     /tmp/ccL8NOmJ.s:460    .text:0000000000000254 .L0 
GAS LISTING /tmp/ccL8NOmJ.s 			page 18


     /tmp/ccL8NOmJ.s:461    .text:0000000000000254 .L0 
     /tmp/ccL8NOmJ.s:467    .text:000000000000025c .L0 
     /tmp/ccL8NOmJ.s:468    .text:0000000000000260 .L0 
     /tmp/ccL8NOmJ.s:471    .text:0000000000000268 .L0 
     /tmp/ccL8NOmJ.s:472    .text:0000000000000268 .L0 
     /tmp/ccL8NOmJ.s:474    .text:000000000000026c .L0 
     /tmp/ccL8NOmJ.s:476    .text:000000000000026c .L0 
     /tmp/ccL8NOmJ.s:477    .text:000000000000026c .L0 
     /tmp/ccL8NOmJ.s:480    .text:0000000000000274 .L0 
     /tmp/ccL8NOmJ.s:481    .text:0000000000000274 .L0 
     /tmp/ccL8NOmJ.s:483    .text:000000000000027c .L0 
     /tmp/ccL8NOmJ.s:485    .text:0000000000000280 .L0 
     /tmp/ccL8NOmJ.s:486    .text:0000000000000280 .L0 
     /tmp/ccL8NOmJ.s:488    .text:0000000000000284 .L0 
     /tmp/ccL8NOmJ.s:490    .text:0000000000000288 .L0 
     /tmp/ccL8NOmJ.s:496    .text:0000000000000288 _ZN4_sem11blockedListEv
     /tmp/ccL8NOmJ.s:499    .text:0000000000000288 .L0 
     /tmp/ccL8NOmJ.s:501    .text:0000000000000288 .L0 
     /tmp/ccL8NOmJ.s:502    .text:000000000000028c .L0 
     /tmp/ccL8NOmJ.s:504    .text:0000000000000290 .L0 
     /tmp/ccL8NOmJ.s:506    .text:0000000000000294 .L0 
     /tmp/ccL8NOmJ.s:508    .text:0000000000000294 .L0 
     /tmp/ccL8NOmJ.s:509    .text:0000000000000294 .L0 
     /tmp/ccL8NOmJ.s:512    .text:000000000000029c .L0 
     /tmp/ccL8NOmJ.s:513    .text:000000000000029c .L0 
     /tmp/ccL8NOmJ.s:515    .text:00000000000002a0 .L0 
     /tmp/ccL8NOmJ.s:517    .text:00000000000002a4 .L0 
     /tmp/ccL8NOmJ.s:525    .text:00000000000002a4 .L0 
     /tmp/ccL8NOmJ.s:281    .text:0000000000000158 .L0 
     /tmp/ccL8NOmJ.s:76     .text:000000000000005c .L3
     /tmp/ccL8NOmJ.s:58     .text:0000000000000044 .L2
     /tmp/ccL8NOmJ.s:186    .text:00000000000000f4 .L17
     /tmp/ccL8NOmJ.s:138    .text:00000000000000a8 .L7
     /tmp/ccL8NOmJ.s:121    .text:0000000000000090 .L8
     /tmp/ccL8NOmJ.s:159    .text:00000000000000cc .L9
     /tmp/ccL8NOmJ.s:147    .text:00000000000000b4 .L10
     /tmp/ccL8NOmJ.s:225    .text:0000000000000128 .L15
     /tmp/ccL8NOmJ.s:231    .text:0000000000000130 .L5
     /tmp/ccL8NOmJ.s:164    .text:00000000000000d4 .L13
     /tmp/ccL8NOmJ.s:207    .text:0000000000000110 .L14
     /tmp/ccL8NOmJ.s:176    .text:00000000000000e0 .L16
     /tmp/ccL8NOmJ.s:382    .text:00000000000001f4 .L24
     /tmp/ccL8NOmJ.s:374    .text:00000000000001ec .L26
     /tmp/ccL8NOmJ.s:340    .text:00000000000001b4 .L23
     /tmp/ccL8NOmJ.s:347    .text:00000000000001c0 .L22
     /tmp/ccL8NOmJ.s:415    .text:0000000000000218 .L33
     /tmp/ccL8NOmJ.s:465    .text:000000000000025c .L40
     /tmp/ccL8NOmJ.s:1913   .debug_abbrev:0000000000000000 .Ldebug_abbrev0
     /tmp/ccL8NOmJ.s:3716   .debug_str:000000000000070a .LASF130
     /tmp/ccL8NOmJ.s:3500   .debug_str:000000000000006f .LASF131
     /tmp/ccL8NOmJ.s:3550   .debug_str:00000000000001d3 .LASF132
     /tmp/ccL8NOmJ.s:5      .text:0000000000000000 .Ltext0
     /tmp/ccL8NOmJ.s:520    .text:00000000000002a4 .Letext0
     /tmp/ccL8NOmJ.s:3480   .debug_line:0000000000000000 .Ldebug_line0
     /tmp/ccL8NOmJ.s:3634   .debug_str:000000000000049e .LASF0
     /tmp/ccL8NOmJ.s:3648   .debug_str:00000000000004e0 .LASF1
     /tmp/ccL8NOmJ.s:3616   .debug_str:0000000000000406 .LASF2
GAS LISTING /tmp/ccL8NOmJ.s 			page 19


     /tmp/ccL8NOmJ.s:3582   .debug_str:00000000000002fa .LASF4
     /tmp/ccL8NOmJ.s:3694   .debug_str:000000000000064d .LASF3
     /tmp/ccL8NOmJ.s:3506   .debug_str:00000000000000a2 .LASF5
     /tmp/ccL8NOmJ.s:3528   .debug_str:0000000000000153 .LASF6
     /tmp/ccL8NOmJ.s:3654   .debug_str:0000000000000511 .LASF7
     /tmp/ccL8NOmJ.s:3632   .debug_str:000000000000048b .LASF8
     /tmp/ccL8NOmJ.s:3736   .debug_str:0000000000000878 .LASF9
     /tmp/ccL8NOmJ.s:3562   .debug_str:0000000000000275 .LASF10
     /tmp/ccL8NOmJ.s:3668   .debug_str:0000000000000588 .LASF11
     /tmp/ccL8NOmJ.s:3720   .debug_str:00000000000007e9 .LASF12
     /tmp/ccL8NOmJ.s:3510   .debug_str:00000000000000b6 .LASF13
     /tmp/ccL8NOmJ.s:3494   .debug_str:000000000000004a .LASF14
     /tmp/ccL8NOmJ.s:3516   .debug_str:00000000000000f1 .LASF15
     /tmp/ccL8NOmJ.s:3684   .debug_str:0000000000000605 .LASF16
     /tmp/ccL8NOmJ.s:3520   .debug_str:0000000000000102 .LASF17
     /tmp/ccL8NOmJ.s:3482   .debug_str:0000000000000000 .LASF18
     /tmp/ccL8NOmJ.s:3578   .debug_str:00000000000002ed .LASF42
     /tmp/ccL8NOmJ.s:3498   .debug_str:0000000000000067 .LASF85
     /tmp/ccL8NOmJ.s:3728   .debug_str:0000000000000830 .LASF19
     /tmp/ccL8NOmJ.s:3660   .debug_str:0000000000000547 .LASF21
     /tmp/ccL8NOmJ.s:3656   .debug_str:0000000000000524 .LASF23
     /tmp/ccL8NOmJ.s:3614   .debug_str:00000000000003eb .LASF25
     /tmp/ccL8NOmJ.s:3618   .debug_str:0000000000000414 .LASF20
     /tmp/ccL8NOmJ.s:3610   .debug_str:00000000000003b5 .LASF22
     /tmp/ccL8NOmJ.s:3608   .debug_str:00000000000003a8 .LASF24
     /tmp/ccL8NOmJ.s:3672   .debug_str:00000000000005a0 .LASF26
     /tmp/ccL8NOmJ.s:3490   .debug_str:000000000000002a .LASF27
     /tmp/ccL8NOmJ.s:3532   .debug_str:0000000000000170 .LASF28
     /tmp/ccL8NOmJ.s:3704   .debug_str:00000000000006ab .LASF29
     /tmp/ccL8NOmJ.s:3738   .debug_str:0000000000000888 .LASF30
     /tmp/ccL8NOmJ.s:3732   .debug_str:0000000000000846 .LASF31
     /tmp/ccL8NOmJ.s:3544   .debug_str:00000000000001b5 .LASF32
     /tmp/ccL8NOmJ.s:3592   .debug_str:0000000000000331 .LASF33
     /tmp/ccL8NOmJ.s:3558   .debug_str:0000000000000233 .LASF34
     /tmp/ccL8NOmJ.s:3678   .debug_str:00000000000005eb .LASF133
     /tmp/ccL8NOmJ.s:3676   .debug_str:00000000000005c2 .LASF35
     /tmp/ccL8NOmJ.s:3686   .debug_str:000000000000061b .LASF36
     /tmp/ccL8NOmJ.s:3712   .debug_str:00000000000006ed .LASF38
     /tmp/ccL8NOmJ.s:3540   .debug_str:00000000000001a3 .LASF134
     /tmp/ccL8NOmJ.s:3504   .debug_str:0000000000000095 .LASF37
     /tmp/ccL8NOmJ.s:3606   .debug_str:000000000000038c .LASF39
     /tmp/ccL8NOmJ.s:3636   .debug_str:00000000000004ab .LASF40
     /tmp/ccL8NOmJ.s:3710   .debug_str:00000000000006d6 .LASF41
     /tmp/ccL8NOmJ.s:3700   .debug_str:000000000000067a .LASF43
     /tmp/ccL8NOmJ.s:3622   .debug_str:000000000000042c .LASF44
     /tmp/ccL8NOmJ.s:3586   .debug_str:000000000000030a .LASF45
     /tmp/ccL8NOmJ.s:3638   .debug_str:00000000000004b4 .LASF46
     /tmp/ccL8NOmJ.s:3590   .debug_str:0000000000000329 .LASF47
     /tmp/ccL8NOmJ.s:3644   .debug_str:00000000000004ca .LASF48
     /tmp/ccL8NOmJ.s:3584   .debug_str:0000000000000301 .LASF49
     /tmp/ccL8NOmJ.s:3640   .debug_str:00000000000004ba .LASF50
     /tmp/ccL8NOmJ.s:3484   .debug_str:0000000000000009 .LASF51
     /tmp/ccL8NOmJ.s:3670   .debug_str:0000000000000597 .LASF52
     /tmp/ccL8NOmJ.s:3626   .debug_str:000000000000044a .LASF53
     /tmp/ccL8NOmJ.s:3600   .debug_str:0000000000000370 .LASF135
     /tmp/ccL8NOmJ.s:3568   .debug_str:0000000000000295 .LASF136
     /tmp/ccL8NOmJ.s:3740   .debug_str:00000000000008a7 .LASF83
GAS LISTING /tmp/ccL8NOmJ.s 			page 20


     /tmp/ccL8NOmJ.s:3724   .debug_str:00000000000007fd .LASF91
     /tmp/ccL8NOmJ.s:3650   .debug_str:00000000000004f3 .LASF54
     /tmp/ccL8NOmJ.s:3588   .debug_str:000000000000030f .LASF55
     /tmp/ccL8NOmJ.s:3762   .debug_str:0000000000000955 .LASF56
     /tmp/ccL8NOmJ.s:3628   .debug_str:0000000000000454 .LASF57
     /tmp/ccL8NOmJ.s:3696   .debug_str:000000000000065f .LASF81
     /tmp/ccL8NOmJ.s:3598   .debug_str:0000000000000365 .LASF58
     /tmp/ccL8NOmJ.s:3572   .debug_str:00000000000002c4 .LASF59
     /tmp/ccL8NOmJ.s:3538   .debug_str:000000000000019d .LASF60
     /tmp/ccL8NOmJ.s:3580   .debug_str:00000000000002f5 .LASF61
     /tmp/ccL8NOmJ.s:3698   .debug_str:0000000000000670 .LASF62
     /tmp/ccL8NOmJ.s:3502   .debug_str:000000000000007c .LASF63
     /tmp/ccL8NOmJ.s:3604   .debug_str:0000000000000386 .LASF64
     /tmp/ccL8NOmJ.s:3508   .debug_str:00000000000000a9 .LASF65
     /tmp/ccL8NOmJ.s:3546   .debug_str:00000000000001c9 .LASF66
     /tmp/ccL8NOmJ.s:3682   .debug_str:00000000000005f5 .LASF67
     /tmp/ccL8NOmJ.s:3662   .debug_str:0000000000000557 .LASF68
     /tmp/ccL8NOmJ.s:3570   .debug_str:00000000000002b2 .LASF69
     /tmp/ccL8NOmJ.s:3522   .debug_str:0000000000000118 .LASF70
     /tmp/ccL8NOmJ.s:3524   .debug_str:000000000000011e .LASF71
     /tmp/ccL8NOmJ.s:3646   .debug_str:00000000000004d4 .LASF72
     /tmp/ccL8NOmJ.s:3658   .debug_str:000000000000052f .LASF73
     /tmp/ccL8NOmJ.s:3706   .debug_str:00000000000006bb .LASF74
     /tmp/ccL8NOmJ.s:3536   .debug_str:0000000000000197 .LASF75
     /tmp/ccL8NOmJ.s:3486   .debug_str:0000000000000011 .LASF76
     /tmp/ccL8NOmJ.s:3602   .debug_str:000000000000037e .LASF77
     /tmp/ccL8NOmJ.s:3752   .debug_str:0000000000000902 .LASF78
     /tmp/ccL8NOmJ.s:3652   .debug_str:00000000000004fe .LASF79
     /tmp/ccL8NOmJ.s:3664   .debug_str:000000000000055e .LASF80
     /tmp/ccL8NOmJ.s:3552   .debug_str:00000000000001f1 .LASF82
     /tmp/ccL8NOmJ.s:3574   .debug_str:00000000000002cf .LASF137
     /tmp/ccL8NOmJ.s:3702   .debug_str:000000000000068f .LASF138
     /tmp/ccL8NOmJ.s:3708   .debug_str:00000000000006c8 .LASF84
     /tmp/ccL8NOmJ.s:3722   .debug_str:00000000000007f8 .LASF86
     /tmp/ccL8NOmJ.s:3680   .debug_str:00000000000005f0 .LASF87
     /tmp/ccL8NOmJ.s:3756   .debug_str:000000000000092c .LASF88
     /tmp/ccL8NOmJ.s:3542   .debug_str:00000000000001ab .LASF89
     /tmp/ccL8NOmJ.s:3526   .debug_str:000000000000012f .LASF90
     /tmp/ccL8NOmJ.s:3758   .debug_str:0000000000000931 .LASF92
     /tmp/ccL8NOmJ.s:3518   .debug_str:00000000000000fd .LASF93
     /tmp/ccL8NOmJ.s:3624   .debug_str:0000000000000445 .LASF94
     /tmp/ccL8NOmJ.s:3748   .debug_str:00000000000008f3 .LASF95
     /tmp/ccL8NOmJ.s:3754   .debug_str:0000000000000915 .LASF96
     /tmp/ccL8NOmJ.s:3612   .debug_str:00000000000003d0 .LASF97
     /tmp/ccL8NOmJ.s:3750   .debug_str:00000000000008f8 .LASF139
     /tmp/ccL8NOmJ.s:3718   .debug_str:00000000000007ce .LASF140
     /tmp/ccL8NOmJ.s:3714   .debug_str:0000000000000701 .LASF98
     /tmp/ccL8NOmJ.s:3512   .debug_str:00000000000000c6 .LASF99
     /tmp/ccL8NOmJ.s:3488   .debug_str:0000000000000022 .LASF100
     /tmp/ccL8NOmJ.s:3666   .debug_str:0000000000000568 .LASF101
     /tmp/ccL8NOmJ.s:3620   .debug_str:0000000000000420 .LASF102
     /tmp/ccL8NOmJ.s:3560   .debug_str:0000000000000253 .LASF103
     /tmp/ccL8NOmJ.s:3514   .debug_str:00000000000000e7 .LASF104
     /tmp/ccL8NOmJ.s:3556   .debug_str:0000000000000214 .LASF105
     /tmp/ccL8NOmJ.s:3642   .debug_str:00000000000004bf .LASF106
     /tmp/ccL8NOmJ.s:3688   .debug_str:0000000000000621 .LASF107
     /tmp/ccL8NOmJ.s:3596   .debug_str:000000000000035c .LASF108
GAS LISTING /tmp/ccL8NOmJ.s 			page 21


     /tmp/ccL8NOmJ.s:3594   .debug_str:000000000000033e .LASF109
     /tmp/ccL8NOmJ.s:3554   .debug_str:0000000000000202 .LASF110
     /tmp/ccL8NOmJ.s:3742   .debug_str:00000000000008b5 .LASF111
     /tmp/ccL8NOmJ.s:3530   .debug_str:000000000000015a .LASF112
     /tmp/ccL8NOmJ.s:3734   .debug_str:000000000000084c .LASF113
     /tmp/ccL8NOmJ.s:3730   .debug_str:0000000000000839 .LASF114
     /tmp/ccL8NOmJ.s:3630   .debug_str:0000000000000468 .LASF115
     /tmp/ccL8NOmJ.s:3548   .debug_str:00000000000001ce .LASF116
     /tmp/ccL8NOmJ.s:3674   .debug_str:00000000000005bd .LASF118
     /tmp/ccL8NOmJ.s:3690   .debug_str:0000000000000642 .LASF117
     /tmp/ccL8NOmJ.s:3746   .debug_str:00000000000008ee .LASF119
     /tmp/ccL8NOmJ.s:3760   .debug_str:0000000000000950 .LASF120
     /tmp/ccL8NOmJ.s:3492   .debug_str:0000000000000033 .LASF124
     /tmp/ccL8NOmJ.s:497    .text:0000000000000288 .LFB37
     /tmp/ccL8NOmJ.s:518    .text:00000000000002a4 .LFE37
     /tmp/ccL8NOmJ.s:3047   .debug_loc:0000000000000000 .LLST25
     /tmp/ccL8NOmJ.s:447    .text:0000000000000244 .LFB36
     /tmp/ccL8NOmJ.s:491    .text:0000000000000288 .LFE36
     /tmp/ccL8NOmJ.s:3060   .debug_loc:0000000000000038 .LLST24
     /tmp/ccL8NOmJ.s:478    .text:0000000000000274 .LVL50
     /tmp/ccL8NOmJ.s:395    .text:00000000000001fc .LFB35
     /tmp/ccL8NOmJ.s:441    .text:0000000000000244 .LFE35
     /tmp/ccL8NOmJ.s:3085   .debug_loc:000000000000009a .LLST23
     /tmp/ccL8NOmJ.s:428    .text:0000000000000230 .LVL46
     /tmp/ccL8NOmJ.s:309    .text:0000000000000188 .LFB34
     /tmp/ccL8NOmJ.s:389    .text:00000000000001fc .LFE34
     /tmp/ccL8NOmJ.s:3110   .debug_loc:00000000000000fc .LLST18
     /tmp/ccL8NOmJ.s:3132   .debug_loc:000000000000015b .LLST19
     /tmp/ccL8NOmJ.s:326    .text:00000000000001a0 .LBB35
     /tmp/ccL8NOmJ.s:3466   .debug_ranges:0000000000000000 .Ldebug_ranges0
     /tmp/ccL8NOmJ.s:3139   .debug_loc:000000000000017e .LLST20
     /tmp/ccL8NOmJ.s:3169   .debug_loc:00000000000001e5 .LLST21
     /tmp/ccL8NOmJ.s:3180   .debug_loc:000000000000021b .LLST22
     /tmp/ccL8NOmJ.s:346    .text:00000000000001c0 .LVL37
     /tmp/ccL8NOmJ.s:354    .text:00000000000001cc .LVL38
     /tmp/ccL8NOmJ.s:359    .text:00000000000001d8 .LVL39
     /tmp/ccL8NOmJ.s:267    .text:0000000000000148 .LFB33
     /tmp/ccL8NOmJ.s:303    .text:0000000000000188 .LFE33
     /tmp/ccL8NOmJ.s:3187   .debug_loc:000000000000023e .LLST17
     /tmp/ccL8NOmJ.s:292    .text:0000000000000178 .LVL31
     /tmp/ccL8NOmJ.s:3576   .debug_str:00000000000002e3 .LASF121
     /tmp/ccL8NOmJ.s:3564   .debug_str:0000000000000283 .LASF141
     /tmp/ccL8NOmJ.s:88     .text:0000000000000064 .LFB31
     /tmp/ccL8NOmJ.s:251    .text:0000000000000148 .LFE31
     /tmp/ccL8NOmJ.s:3201   .debug_loc:0000000000000277 .LLST5
     /tmp/ccL8NOmJ.s:196    .text:0000000000000104 .LVL21
     /tmp/ccL8NOmJ.s:106    .text:000000000000007c .LBB26
     /tmp/ccL8NOmJ.s:234    .text:0000000000000130 .LBE26
     /tmp/ccL8NOmJ.s:3235   .debug_loc:0000000000000300 .LLST6
     /tmp/ccL8NOmJ.s:112    .text:0000000000000080 .LBB27
     /tmp/ccL8NOmJ.s:166    .text:00000000000000d4 .LBE27
     /tmp/ccL8NOmJ.s:3250   .debug_loc:0000000000000349 .LLST7
     /tmp/ccL8NOmJ.s:3261   .debug_loc:000000000000037f .LLST8
     /tmp/ccL8NOmJ.s:3280   .debug_loc:00000000000003db .LLST9
     /tmp/ccL8NOmJ.s:3291   .debug_loc:0000000000000411 .LLST10
     /tmp/ccL8NOmJ.s:123    .text:0000000000000090 .LBB29
     /tmp/ccL8NOmJ.s:139    .text:00000000000000a8 .LBE29
GAS LISTING /tmp/ccL8NOmJ.s 			page 22


     /tmp/ccL8NOmJ.s:3298   .debug_loc:0000000000000434 .LLST11
     /tmp/ccL8NOmJ.s:156    .text:00000000000000c8 .LVL15
     /tmp/ccL8NOmJ.s:167    .text:00000000000000d4 .LBB30
     /tmp/ccL8NOmJ.s:3318   .debug_loc:0000000000000491 .LLST12
     /tmp/ccL8NOmJ.s:3329   .debug_loc:00000000000004c7 .LLST13
     /tmp/ccL8NOmJ.s:3348   .debug_loc:0000000000000523 .LLST14
     /tmp/ccL8NOmJ.s:3359   .debug_loc:0000000000000559 .LLST15
     /tmp/ccL8NOmJ.s:209    .text:0000000000000110 .LBB32
     /tmp/ccL8NOmJ.s:226    .text:0000000000000128 .LBE32
     /tmp/ccL8NOmJ.s:3366   .debug_loc:000000000000057c .LLST16
     /tmp/ccL8NOmJ.s:185    .text:00000000000000f4 .LVL20
     /tmp/ccL8NOmJ.s:10     .text:0000000000000000 .LFB29
     /tmp/ccL8NOmJ.s:82     .text:0000000000000064 .LFE29
     /tmp/ccL8NOmJ.s:3726   .debug_str:0000000000000829 .LASF122
     /tmp/ccL8NOmJ.s:3386   .debug_loc:00000000000005d9 .LLST0
     /tmp/ccL8NOmJ.s:3566   .debug_str:0000000000000290 .LASF123
     /tmp/ccL8NOmJ.s:3408   .debug_loc:0000000000000638 .LLST1
     /tmp/ccL8NOmJ.s:35     .text:000000000000002c .LBB14
     /tmp/ccL8NOmJ.s:51     .text:0000000000000038 .LBE14
     /tmp/ccL8NOmJ.s:3430   .debug_loc:0000000000000697 .LLST2
     /tmp/ccL8NOmJ.s:3437   .debug_loc:00000000000006ba .LLST3
     /tmp/ccL8NOmJ.s:41     .text:0000000000000030 .LBB16
     /tmp/ccL8NOmJ.s:49     .text:0000000000000038 .LBE16
     /tmp/ccL8NOmJ.s:3444   .debug_loc:00000000000006dd .LLST4
     /tmp/ccL8NOmJ.s:34     .text:000000000000002c .LVL2
     /tmp/ccL8NOmJ.s:3496   .debug_str:000000000000005a .LASF125
     /tmp/ccL8NOmJ.s:3764   .debug_str:000000000000095b .LASF126
     /tmp/ccL8NOmJ.s:3534   .debug_str:0000000000000187 .LASF128
     /tmp/ccL8NOmJ.s:3692   .debug_str:0000000000000647 .LASF127
     /tmp/ccL8NOmJ.s:3744   .debug_str:00000000000008e1 .LASF129
     /tmp/ccL8NOmJ.s:500    .text:0000000000000288 .LVL51
     /tmp/ccL8NOmJ.s:510    .text:0000000000000298 .LVL52
     /tmp/ccL8NOmJ.s:450    .text:0000000000000244 .LVL47
     /tmp/ccL8NOmJ.s:462    .text:0000000000000258 .LVL48
     /tmp/ccL8NOmJ.s:464    .text:000000000000025c .LVL49
     /tmp/ccL8NOmJ.s:398    .text:00000000000001fc .LVL43
     /tmp/ccL8NOmJ.s:412    .text:0000000000000214 .LVL44
     /tmp/ccL8NOmJ.s:414    .text:0000000000000218 .LVL45
     /tmp/ccL8NOmJ.s:312    .text:0000000000000188 .LVL32
     /tmp/ccL8NOmJ.s:330    .text:00000000000001a4 .LVL34
     /tmp/ccL8NOmJ.s:373    .text:00000000000001ec .LVL41
     /tmp/ccL8NOmJ.s:369    .text:00000000000001e4 .LVL40
     /tmp/ccL8NOmJ.s:325    .text:00000000000001a0 .LVL33
     /tmp/ccL8NOmJ.s:333    .text:00000000000001a8 .LVL35
     /tmp/ccL8NOmJ.s:381    .text:00000000000001f4 .LVL42
     /tmp/ccL8NOmJ.s:343    .text:00000000000001b8 .LVL36
     /tmp/ccL8NOmJ.s:270    .text:0000000000000148 .LVL30
     /tmp/ccL8NOmJ.s:93     .text:0000000000000064 .LVL8
     /tmp/ccL8NOmJ.s:142    .text:00000000000000ac .LVL13
     /tmp/ccL8NOmJ.s:158    .text:00000000000000cc .LVL16
     /tmp/ccL8NOmJ.s:163    .text:00000000000000d4 .LVL17
     /tmp/ccL8NOmJ.s:246    .text:0000000000000140 .LVL29
     /tmp/ccL8NOmJ.s:202    .text:0000000000000108 .LVL22
     /tmp/ccL8NOmJ.s:230    .text:0000000000000130 .LVL27
     /tmp/ccL8NOmJ.s:243    .text:000000000000013c .LVL28
     /tmp/ccL8NOmJ.s:111    .text:0000000000000080 .LVL9
     /tmp/ccL8NOmJ.s:122    .text:0000000000000090 .LVL10
GAS LISTING /tmp/ccL8NOmJ.s 			page 23


     /tmp/ccL8NOmJ.s:130    .text:000000000000009c .LVL11
     /tmp/ccL8NOmJ.s:136    .text:00000000000000a4 .LVL12
     /tmp/ccL8NOmJ.s:152    .text:00000000000000bc .LVL14
     /tmp/ccL8NOmJ.s:208    .text:0000000000000110 .LVL23
     /tmp/ccL8NOmJ.s:216    .text:000000000000011c .LVL24
     /tmp/ccL8NOmJ.s:222    .text:0000000000000124 .LVL25
     /tmp/ccL8NOmJ.s:171    .text:00000000000000d8 .LVL18
     /tmp/ccL8NOmJ.s:224    .text:0000000000000128 .LVL26
     /tmp/ccL8NOmJ.s:181    .text:00000000000000e8 .LVL19
     /tmp/ccL8NOmJ.s:14     .text:0000000000000000 .LVL0
     /tmp/ccL8NOmJ.s:32     .text:0000000000000024 .LVL1
     /tmp/ccL8NOmJ.s:68     .text:0000000000000050 .LVL5
     /tmp/ccL8NOmJ.s:75     .text:000000000000005c .LVL7
     /tmp/ccL8NOmJ.s:71     .text:0000000000000054 .LVL6
     /tmp/ccL8NOmJ.s:47     .text:0000000000000038 .LVL4
     /tmp/ccL8NOmJ.s:40     .text:0000000000000030 .LVL3
     /tmp/ccL8NOmJ.s:526    .debug_info:0000000000000000 .Ldebug_info0
     /tmp/ccL8NOmJ.s:188    .text:00000000000000f4 .LBE30
     /tmp/ccL8NOmJ.s:198    .text:0000000000000104 .LBB34
     /tmp/ccL8NOmJ.s:233    .text:0000000000000130 .LBE34
     /tmp/ccL8NOmJ.s:349    .text:00000000000001c0 .LBE35
     /tmp/ccL8NOmJ.s:376    .text:00000000000001ec .LBB38
     /tmp/ccL8NOmJ.s:387    .text:00000000000001fc .LBE38
     /tmp/ccL8NOmJ.s:254    .gcc_except_table:0000000000000000 .LLSDA31

UNDEFINED SYMBOLS
_Znwm
_ZdlPv
_ZN9Scheduler3putEP7_thread
__gxx_personality_v0
_ZN7_thread7runningE
_ZN7_thread8dispatchEv
_ZN7_thread5dblckEv
