GAS LISTING /tmp/ccmiawjN.s 			page 1


   1              		.file	"_sem.cpp"
   2              		.option pic
   3              		.option norelax
   4              		.text
   5              	.Ltext0:
   6              		.align	2
   7              		.globl	_Z4lockv
   9              	_Z4lockv:
  10              	.LFB45:
  11              		.file 1 "src/_sem.cpp"
   1:src/_sem.cpp  **** //
   2:src/_sem.cpp  **** // Created by os on 8/30/22.
   3:src/_sem.cpp  **** //
   4:src/_sem.cpp  **** 
   5:src/_sem.cpp  **** #include "../h/_sem.hpp"
   6:src/_sem.cpp  **** 
   7:src/_sem.cpp  **** void lock(){
  12              		.loc 1 7 12
  13              		.cfi_startproc
  14 0000 130101FF 		addi	sp,sp,-16
  15              		.cfi_def_cfa_offset 16
  16 0004 23348100 		sd	s0,8(sp)
  17              		.cfi_offset 8, -8
  18 0008 13040101 		addi	s0,sp,16
  19              		.cfi_def_cfa 8, 0
   8:src/_sem.cpp  ****     Riscv::mc_sstatus(Riscv::SSTATUS_SIE);
  20              		.loc 1 8 5
  21              	.LVL0:
  22              	.LBB18:
  23              	.LBB19:
  24              		.file 2 "src/../h/riscv.hpp"
   1:src/../h/riscv.hpp **** //
   2:src/../h/riscv.hpp **** // Created by marko on 20.4.22..
   3:src/../h/riscv.hpp **** //
   4:src/../h/riscv.hpp **** 
   5:src/../h/riscv.hpp **** #ifndef OS1_VEZBE07_RISCV_CONTEXT_SWITCH_2_INTERRUPT_RISCV_HPP
   6:src/../h/riscv.hpp **** #define OS1_VEZBE07_RISCV_CONTEXT_SWITCH_2_INTERRUPT_RISCV_HPP
   7:src/../h/riscv.hpp **** 
   8:src/../h/riscv.hpp **** #include "../lib/hw.h"
   9:src/../h/riscv.hpp **** #include "../h/tcb.hpp"
  10:src/../h/riscv.hpp **** #include "list.hpp"
  11:src/../h/riscv.hpp **** 
  12:src/../h/riscv.hpp **** template<typename T>
  13:src/../h/riscv.hpp **** class List;
  14:src/../h/riscv.hpp **** class Riscv
  15:src/../h/riscv.hpp **** {
  16:src/../h/riscv.hpp **** public:
  17:src/../h/riscv.hpp **** 
  18:src/../h/riscv.hpp ****     // pop sstatus.spp and sstatus.spie bits (has to be a non inline function)
  19:src/../h/riscv.hpp ****     static void popSppSpie();
  20:src/../h/riscv.hpp **** 
  21:src/../h/riscv.hpp ****     // read register scause
  22:src/../h/riscv.hpp ****     static uint64 r_scause();
  23:src/../h/riscv.hpp **** 
  24:src/../h/riscv.hpp ****     // write register scause
  25:src/../h/riscv.hpp ****     static void w_scause(uint64 scause);
  26:src/../h/riscv.hpp **** 
GAS LISTING /tmp/ccmiawjN.s 			page 2


  27:src/../h/riscv.hpp ****     // read register sepc
  28:src/../h/riscv.hpp ****     static uint64 r_sepc();
  29:src/../h/riscv.hpp **** 
  30:src/../h/riscv.hpp ****     // write register sepc
  31:src/../h/riscv.hpp ****     static void w_sepc(uint64 sepc);
  32:src/../h/riscv.hpp **** 
  33:src/../h/riscv.hpp ****     // read register stvec
  34:src/../h/riscv.hpp ****     static uint64 r_stvec();
  35:src/../h/riscv.hpp **** 
  36:src/../h/riscv.hpp ****     // write register stvec
  37:src/../h/riscv.hpp ****     static void w_stvec(uint64 stvec);
  38:src/../h/riscv.hpp **** 
  39:src/../h/riscv.hpp ****     // read register stval
  40:src/../h/riscv.hpp ****     static uint64 r_stval();
  41:src/../h/riscv.hpp **** 
  42:src/../h/riscv.hpp ****     // write register stval
  43:src/../h/riscv.hpp ****     static void w_stval(uint64 stval);
  44:src/../h/riscv.hpp **** 
  45:src/../h/riscv.hpp ****     enum BitMaskSip
  46:src/../h/riscv.hpp ****     {
  47:src/../h/riscv.hpp ****         SIP_SSIP = (1 << 1),
  48:src/../h/riscv.hpp ****         SIP_STIP = (1 << 5),
  49:src/../h/riscv.hpp ****         SIP_SEIP = (1 << 9),
  50:src/../h/riscv.hpp ****     };
  51:src/../h/riscv.hpp **** 
  52:src/../h/riscv.hpp ****     // mask set register sip
  53:src/../h/riscv.hpp ****     static void ms_sip(uint64 mask);
  54:src/../h/riscv.hpp **** 
  55:src/../h/riscv.hpp ****     // mask clear register sip
  56:src/../h/riscv.hpp ****     static void mc_sip(uint64 mask);
  57:src/../h/riscv.hpp **** 
  58:src/../h/riscv.hpp ****     // read register sip
  59:src/../h/riscv.hpp ****     static uint64 r_sip();
  60:src/../h/riscv.hpp **** 
  61:src/../h/riscv.hpp ****     // write register sip
  62:src/../h/riscv.hpp ****     static void w_sip(uint64 sip);
  63:src/../h/riscv.hpp **** 
  64:src/../h/riscv.hpp ****     enum BitMaskSstatus
  65:src/../h/riscv.hpp ****     {
  66:src/../h/riscv.hpp ****         SSTATUS_SIE = (1 << 1),
  67:src/../h/riscv.hpp ****         SSTATUS_SPIE = (1 << 5),
  68:src/../h/riscv.hpp ****         SSTATUS_SPP = (1 << 8),
  69:src/../h/riscv.hpp ****     };
  70:src/../h/riscv.hpp **** 
  71:src/../h/riscv.hpp ****     // mask set register sstatus
  72:src/../h/riscv.hpp ****     static void ms_sstatus(uint64 mask);
  73:src/../h/riscv.hpp **** 
  74:src/../h/riscv.hpp ****     // mask clear register sstatus
  75:src/../h/riscv.hpp ****     static void mc_sstatus(uint64 mask);
  76:src/../h/riscv.hpp **** 
  77:src/../h/riscv.hpp ****     // read register sstatus
  78:src/../h/riscv.hpp ****     static uint64 r_sstatus();
  79:src/../h/riscv.hpp **** 
  80:src/../h/riscv.hpp ****     // write register sstatus
  81:src/../h/riscv.hpp ****     static void w_sstatus(uint64 sstatus);
  82:src/../h/riscv.hpp **** 
  83:src/../h/riscv.hpp ****     // supervisor trap
GAS LISTING /tmp/ccmiawjN.s 			page 3


  84:src/../h/riscv.hpp ****     static void supervisorTrap();
  85:src/../h/riscv.hpp **** 
  86:src/../h/riscv.hpp **** private:
  87:src/../h/riscv.hpp **** 
  88:src/../h/riscv.hpp ****     // supervisor trap handler
  89:src/../h/riscv.hpp ****     static void handleSupervisorTrap();
  90:src/../h/riscv.hpp ****     friend class _thread;
  91:src/../h/riscv.hpp ****     static List<_thread> sleepingThreads;
  92:src/../h/riscv.hpp **** };
  93:src/../h/riscv.hpp **** 
  94:src/../h/riscv.hpp **** inline uint64 Riscv::r_scause()
  95:src/../h/riscv.hpp **** {
  96:src/../h/riscv.hpp ****     uint64 volatile scause;
  97:src/../h/riscv.hpp ****     __asm__ volatile ("csrr %[scause], scause" : [scause] "=r"(scause));
  98:src/../h/riscv.hpp ****     return scause;
  99:src/../h/riscv.hpp **** }
 100:src/../h/riscv.hpp **** 
 101:src/../h/riscv.hpp **** inline void Riscv::w_scause(uint64 scause)
 102:src/../h/riscv.hpp **** {
 103:src/../h/riscv.hpp ****     __asm__ volatile ("csrw scause, %[scause]" : : [scause] "r"(scause));
 104:src/../h/riscv.hpp **** }
 105:src/../h/riscv.hpp **** 
 106:src/../h/riscv.hpp **** inline uint64 Riscv::r_sepc()
 107:src/../h/riscv.hpp **** {
 108:src/../h/riscv.hpp ****     uint64 volatile sepc;
 109:src/../h/riscv.hpp ****     __asm__ volatile ("csrr %[sepc], sepc" : [sepc] "=r"(sepc));
 110:src/../h/riscv.hpp ****     return sepc;
 111:src/../h/riscv.hpp **** }
 112:src/../h/riscv.hpp **** 
 113:src/../h/riscv.hpp **** inline void Riscv::w_sepc(uint64 sepc)
 114:src/../h/riscv.hpp **** {
 115:src/../h/riscv.hpp ****     __asm__ volatile ("csrw sepc, %[sepc]" : : [sepc] "r"(sepc));
 116:src/../h/riscv.hpp **** }
 117:src/../h/riscv.hpp **** 
 118:src/../h/riscv.hpp **** inline uint64 Riscv::r_stvec()
 119:src/../h/riscv.hpp **** {
 120:src/../h/riscv.hpp ****     uint64 volatile stvec;
 121:src/../h/riscv.hpp ****     __asm__ volatile ("csrr %[stvec], stvec" : [stvec] "=r"(stvec));
 122:src/../h/riscv.hpp ****     return stvec;
 123:src/../h/riscv.hpp **** }
 124:src/../h/riscv.hpp **** 
 125:src/../h/riscv.hpp **** inline void Riscv::w_stvec(uint64 stvec)
 126:src/../h/riscv.hpp **** {
 127:src/../h/riscv.hpp ****     __asm__ volatile ("csrw stvec, %[stvec]" : : [stvec] "r"(stvec));
 128:src/../h/riscv.hpp **** }
 129:src/../h/riscv.hpp **** 
 130:src/../h/riscv.hpp **** inline uint64 Riscv::r_stval()
 131:src/../h/riscv.hpp **** {
 132:src/../h/riscv.hpp ****     uint64 volatile stval;
 133:src/../h/riscv.hpp ****     __asm__ volatile ("csrr %[stval], stval" : [stval] "=r"(stval));
 134:src/../h/riscv.hpp ****     return stval;
 135:src/../h/riscv.hpp **** }
 136:src/../h/riscv.hpp **** 
 137:src/../h/riscv.hpp **** inline void Riscv::w_stval(uint64 stval)
 138:src/../h/riscv.hpp **** {
 139:src/../h/riscv.hpp ****     __asm__ volatile ("csrw stval, %[stval]" : : [stval] "r"(stval));
 140:src/../h/riscv.hpp **** }
GAS LISTING /tmp/ccmiawjN.s 			page 4


 141:src/../h/riscv.hpp **** 
 142:src/../h/riscv.hpp **** inline void Riscv::ms_sip(uint64 mask)
 143:src/../h/riscv.hpp **** {
 144:src/../h/riscv.hpp ****     __asm__ volatile ("csrs sip, %[mask]" : : [mask] "r"(mask));
 145:src/../h/riscv.hpp **** }
 146:src/../h/riscv.hpp **** 
 147:src/../h/riscv.hpp **** inline void Riscv::mc_sip(uint64 mask)
 148:src/../h/riscv.hpp **** {
 149:src/../h/riscv.hpp ****     __asm__ volatile ("csrc sip, %[mask]" : : [mask] "r"(mask));
 150:src/../h/riscv.hpp **** }
 151:src/../h/riscv.hpp **** 
 152:src/../h/riscv.hpp **** inline uint64 Riscv::r_sip()
 153:src/../h/riscv.hpp **** {
 154:src/../h/riscv.hpp ****     uint64 volatile sip;
 155:src/../h/riscv.hpp ****     __asm__ volatile ("csrr %[sip], sip" : [sip] "=r"(sip));
 156:src/../h/riscv.hpp ****     return sip;
 157:src/../h/riscv.hpp **** }
 158:src/../h/riscv.hpp **** 
 159:src/../h/riscv.hpp **** inline void Riscv::w_sip(uint64 sip)
 160:src/../h/riscv.hpp **** {
 161:src/../h/riscv.hpp ****     __asm__ volatile ("csrw sip, %[sip]" : : [sip] "r"(sip));
 162:src/../h/riscv.hpp **** }
 163:src/../h/riscv.hpp **** 
 164:src/../h/riscv.hpp **** inline void Riscv::ms_sstatus(uint64 mask)
 165:src/../h/riscv.hpp **** {
 166:src/../h/riscv.hpp ****     __asm__ volatile ("csrs sstatus, %[mask]" : : [mask] "r"(mask));
 167:src/../h/riscv.hpp **** }
 168:src/../h/riscv.hpp **** 
 169:src/../h/riscv.hpp **** inline void Riscv::mc_sstatus(uint64 mask)
 170:src/../h/riscv.hpp **** {
 171:src/../h/riscv.hpp ****     __asm__ volatile ("csrc sstatus, %[mask]" : : [mask] "r"(mask));
  25              		.loc 2 171 5
  26              		.loc 2 171 68 is_stmt 0
  27 000c 93072000 		li	a5,2
  28              	#APP
  29              	# 171 "src/../h/riscv.hpp" 1
 172              	}
  30              		csrc sstatus, a5
  31              	# 0 "" 2
  32              	.LVL1:
  33              	#NO_APP
  34              	.LBE19:
  35              	.LBE18:
   9:src/_sem.cpp  **** }
  36              		.loc 1 9 1
  37 0014 03348100 		ld	s0,8(sp)
  38              		.cfi_restore 8
  39              		.cfi_def_cfa 2, 16
  40 0018 13010101 		addi	sp,sp,16
  41              		.cfi_def_cfa_offset 0
  42 001c 67800000 		jr	ra
  43              		.cfi_endproc
  44              	.LFE45:
  46              		.align	2
  47              		.globl	_Z6unlockv
  49              	_Z6unlockv:
  50              	.LFB46:
GAS LISTING /tmp/ccmiawjN.s 			page 5


  10:src/_sem.cpp  **** void unlock(){
  51              		.loc 1 10 14 is_stmt 1
  52              		.cfi_startproc
  53 0020 130101FF 		addi	sp,sp,-16
  54              		.cfi_def_cfa_offset 16
  55 0024 23348100 		sd	s0,8(sp)
  56              		.cfi_offset 8, -8
  57 0028 13040101 		addi	s0,sp,16
  58              		.cfi_def_cfa 8, 0
  11:src/_sem.cpp  ****     Riscv::ms_sstatus(Riscv::SSTATUS_SIE);
  59              		.loc 1 11 5
  60              	.LVL2:
  61              	.LBB20:
  62              	.LBB21:
 166:src/../h/riscv.hpp **** }
  63              		.loc 2 166 5
 166:src/../h/riscv.hpp **** }
  64              		.loc 2 166 68 is_stmt 0
  65 002c 93072000 		li	a5,2
  66              	#APP
  67              	# 166 "src/../h/riscv.hpp" 1
  68              		csrs sstatus, a5
  69              	# 0 "" 2
  70              	.LVL3:
  71              	#NO_APP
  72              	.LBE21:
  73              	.LBE20:
  12:src/_sem.cpp  **** }
  74              		.loc 1 12 1
  75 0034 03348100 		ld	s0,8(sp)
  76              		.cfi_restore 8
  77              		.cfi_def_cfa 2, 16
  78 0038 13010101 		addi	sp,sp,16
  79              		.cfi_def_cfa_offset 0
  80 003c 67800000 		jr	ra
  81              		.cfi_endproc
  82              	.LFE46:
  84              		.align	2
  85              		.globl	_ZN4_sem9createSemEPPS_m
  87              	_ZN4_sem9createSemEPPS_m:
  88              	.LFB47:
  13:src/_sem.cpp  **** 
  14:src/_sem.cpp  **** int _sem::createSem(sem_t *handle, uint64 init){
  89              		.loc 1 14 48 is_stmt 1
  90              		.cfi_startproc
  91              	.LVL4:
  92 0040 130101FE 		addi	sp,sp,-32
  93              		.cfi_def_cfa_offset 32
  94 0044 233C1100 		sd	ra,24(sp)
  95 0048 23388100 		sd	s0,16(sp)
  96 004c 23349100 		sd	s1,8(sp)
  97 0050 23302101 		sd	s2,0(sp)
  98              		.cfi_offset 1, -8
  99              		.cfi_offset 8, -16
 100              		.cfi_offset 9, -24
 101              		.cfi_offset 18, -32
 102 0054 13040102 		addi	s0,sp,32
GAS LISTING /tmp/ccmiawjN.s 			page 6


 103              		.cfi_def_cfa 8, 0
 104 0058 93040500 		mv	s1,a0
 105 005c 13890500 		mv	s2,a1
  15:src/_sem.cpp  ****     *handle = new _sem(init);
 106              		.loc 1 15 5
 107              		.loc 1 15 28 is_stmt 0
 108 0060 13058001 		li	a0,24
 109              	.LVL5:
 110 0064 97000000 		call	_Znwm@plt
 110      E7800000 
 111              	.LVL6:
 112              	.LBB22:
 113              	.LBB23:
 114              		.file 3 "src/../h/_sem.hpp"
   1:src/../h/_sem.hpp **** //
   2:src/../h/_sem.hpp **** // Created by os on 8/30/22.
   3:src/../h/_sem.hpp **** //
   4:src/../h/_sem.hpp **** 
   5:src/../h/_sem.hpp **** #ifndef PROJECT_BASE__SEM_HPP
   6:src/../h/_sem.hpp **** #define PROJECT_BASE__SEM_HPP
   7:src/../h/_sem.hpp **** 
   8:src/../h/_sem.hpp **** #include "list.hpp"
   9:src/../h/_sem.hpp **** #include "tcb.hpp"
  10:src/../h/_sem.hpp **** #include "riscv.hpp"
  11:src/../h/_sem.hpp **** #include "syscall_c.h"
  12:src/../h/_sem.hpp **** #include "scheduler.hpp"
  13:src/../h/_sem.hpp **** 
  14:src/../h/_sem.hpp **** 
  15:src/../h/_sem.hpp **** class _sem{
  16:src/../h/_sem.hpp **** 
  17:src/../h/_sem.hpp **** public:
  18:src/../h/_sem.hpp ****     static int createSem(sem_t*, uint64);
  19:src/../h/_sem.hpp ****     ~_sem();
  20:src/../h/_sem.hpp **** 
  21:src/../h/_sem.hpp ****     int wait();
  22:src/../h/_sem.hpp ****     int signal();
  23:src/../h/_sem.hpp **** 
  24:src/../h/_sem.hpp ****     int value(){
  25:src/../h/_sem.hpp ****         return val;
  26:src/../h/_sem.hpp ****     }
  27:src/../h/_sem.hpp ****     friend class _thread;
  28:src/../h/_sem.hpp ****     List<_thread>& blockedList();
  29:src/../h/_sem.hpp **** 
  30:src/../h/_sem.hpp **** 
  31:src/../h/_sem.hpp **** private:
  32:src/../h/_sem.hpp ****     _sem(int val=1) : val(val) {}
 115              		.loc 3 32 30
 116 006c 23202501 		sw	s2,0(a0)
 117              	.LVL7:
 118              	.LBB24:
 119              	.LBB25:
 120              		.file 4 "src/../h/list.hpp"
   1:src/../h/list.hpp **** //
   2:src/../h/list.hpp **** // Created by marko on 20.4.22..
   3:src/../h/list.hpp **** //
   4:src/../h/list.hpp **** 
   5:src/../h/list.hpp **** #ifndef OS1_VEZBE07_RISCV_CONTEXT_SWITCH_2_INTERRUPT_LIST_HPP
GAS LISTING /tmp/ccmiawjN.s 			page 7


   6:src/../h/list.hpp **** #define OS1_VEZBE07_RISCV_CONTEXT_SWITCH_2_INTERRUPT_LIST_HPP
   7:src/../h/list.hpp **** 
   8:src/../h/list.hpp **** //#include "riscv.hpp"
   9:src/../h/list.hpp **** 
  10:src/../h/list.hpp **** //class Scheduler;
  11:src/../h/list.hpp **** template<typename T>
  12:src/../h/list.hpp **** class List
  13:src/../h/list.hpp **** {
  14:src/../h/list.hpp **** private:
  15:src/../h/list.hpp ****     struct Elem
  16:src/../h/list.hpp ****     {
  17:src/../h/list.hpp ****         T *data;
  18:src/../h/list.hpp ****         Elem *next;
  19:src/../h/list.hpp ****         int sleepTime;
  20:src/../h/list.hpp ****         Elem(T *data, Elem *next, int sleepTime = 0) : data(data), next(next), sleepTime(sleepTime)
  21:src/../h/list.hpp ****         Elem(T *data) : data(data), next(nullptr), sleepTime(0) {}
  22:src/../h/list.hpp ****     };
  23:src/../h/list.hpp **** 
  24:src/../h/list.hpp ****     Elem *head, *tail;
  25:src/../h/list.hpp **** 
  26:src/../h/list.hpp **** public:
  27:src/../h/list.hpp ****     List() : head(0), tail(0) {}
 121              		.loc 4 27 29
 122 0070 23340500 		sd	zero,8(a0)
 123 0074 23380500 		sd	zero,16(a0)
 124              	.LVL8:
 125              	.LBE25:
 126              	.LBE24:
 127              	.LBE23:
 128              	.LBE22:
 129              		.loc 1 15 13
 130 0078 23B0A400 		sd	a0,0(s1)
  16:src/_sem.cpp  ****     if(*handle  != nullptr)
 131              		.loc 1 16 5 is_stmt 1
 132 007c 63000502 		beqz	a0,.L7
  17:src/_sem.cpp  ****         return 0;
 133              		.loc 1 17 16 is_stmt 0
 134 0080 13050000 		li	a0,0
 135              	.L6:
  18:src/_sem.cpp  ****     else
  19:src/_sem.cpp  ****         return -2;
  20:src/_sem.cpp  **** }
 136              		.loc 1 20 1
 137 0084 83308101 		ld	ra,24(sp)
 138              		.cfi_remember_state
 139              		.cfi_restore 1
 140 0088 03340101 		ld	s0,16(sp)
 141              		.cfi_restore 8
 142              		.cfi_def_cfa 2, 32
 143 008c 83348100 		ld	s1,8(sp)
 144              		.cfi_restore 9
 145              	.LVL9:
 146 0090 03390100 		ld	s2,0(sp)
 147              		.cfi_restore 18
 148              	.LVL10:
 149 0094 13010102 		addi	sp,sp,32
 150              		.cfi_def_cfa_offset 0
GAS LISTING /tmp/ccmiawjN.s 			page 8


 151 0098 67800000 		jr	ra
 152              	.LVL11:
 153              	.L7:
 154              		.cfi_restore_state
  19:src/_sem.cpp  **** }
 155              		.loc 1 19 17
 156 009c 1305E0FF 		li	a0,-2
 157 00a0 6FF05FFE 		j	.L6
 158              		.cfi_endproc
 159              	.LFE47:
 161              		.align	2
 162              		.globl	_ZN4_semD2Ev
 164              	_ZN4_semD2Ev:
 165              	.LFB49:
  21:src/_sem.cpp  **** 
  22:src/_sem.cpp  **** _sem::~_sem() {
 166              		.loc 1 22 1 is_stmt 1
 167              		.cfi_startproc
 168              		.cfi_personality 0x9b,DW.ref.__gxx_personality_v0
 169              		.cfi_lsda 0x1b,.LLSDA49
 170              	.LVL12:
 171 00a4 130101FD 		addi	sp,sp,-48
 172              		.cfi_def_cfa_offset 48
 173 00a8 23341102 		sd	ra,40(sp)
 174 00ac 23308102 		sd	s0,32(sp)
 175 00b0 233C9100 		sd	s1,24(sp)
 176 00b4 23382101 		sd	s2,16(sp)
 177 00b8 23343101 		sd	s3,8(sp)
 178              		.cfi_offset 1, -8
 179              		.cfi_offset 8, -16
 180              		.cfi_offset 9, -24
 181              		.cfi_offset 18, -32
 182              		.cfi_offset 19, -40
 183 00bc 13040103 		addi	s0,sp,48
 184              		.cfi_def_cfa 8, 0
 185 00c0 93090500 		mv	s3,a0
 186              	.LBB34:
  23:src/_sem.cpp  ****     lock();
 187              		.loc 1 23 5
 188              		.loc 1 23 9 is_stmt 0
 189 00c4 97000000 		call	_Z4lockv
 189      E7800000 
 190              	.LVL13:
  24:src/_sem.cpp  ****     _thread *t;
 191              		.loc 1 24 5 is_stmt 1
  25:src/_sem.cpp  ****     t = blockedThreadQueue.removeLast();
 192              		.loc 1 25 5
 193              		.loc 1 25 38 is_stmt 0
 194 00cc 13898900 		addi	s2,s3,8
 195              	.LVL14:
 196              	.LBB35:
 197              	.LBB36:
  28:src/../h/list.hpp **** 
  29:src/../h/list.hpp ****     List(const List<T> &) = delete;
  30:src/../h/list.hpp **** 
  31:src/../h/list.hpp ****     List<T> &operator=(const List<T> &) = delete;
  32:src/../h/list.hpp **** 
GAS LISTING /tmp/ccmiawjN.s 			page 9


  33:src/../h/list.hpp ****     void addFirst(T *data)
  34:src/../h/list.hpp ****     {
  35:src/../h/list.hpp ****         Elem *elem = new Elem(data, head);
  36:src/../h/list.hpp ****         head = elem;
  37:src/../h/list.hpp ****         if (!tail) { tail = head; }
  38:src/../h/list.hpp ****     }
  39:src/../h/list.hpp **** 
  40:src/../h/list.hpp ****     void addLast(T *data)
  41:src/../h/list.hpp ****     {
  42:src/../h/list.hpp ****         Elem *elem = new Elem(data, 0);
  43:src/../h/list.hpp ****         if (tail)
  44:src/../h/list.hpp ****         {
  45:src/../h/list.hpp ****             tail->next = elem;
  46:src/../h/list.hpp ****             tail = elem;
  47:src/../h/list.hpp ****         } else
  48:src/../h/list.hpp ****         {
  49:src/../h/list.hpp ****             head = tail = elem;
  50:src/../h/list.hpp ****         }
  51:src/../h/list.hpp ****     }
  52:src/../h/list.hpp **** 
  53:src/../h/list.hpp ****     T *removeFirst()
  54:src/../h/list.hpp ****     {
  55:src/../h/list.hpp ****         if (!head) { return 0; }
  56:src/../h/list.hpp **** 
  57:src/../h/list.hpp ****         Elem *elem = head;
  58:src/../h/list.hpp ****         head = head->next;
  59:src/../h/list.hpp ****         if (!head) { tail = 0; }
  60:src/../h/list.hpp **** 
  61:src/../h/list.hpp ****         T *ret = elem->data;
  62:src/../h/list.hpp ****         delete elem;
  63:src/../h/list.hpp ****         return ret;
  64:src/../h/list.hpp ****     }
  65:src/../h/list.hpp **** 
  66:src/../h/list.hpp ****     T *peekFirst()
  67:src/../h/list.hpp ****     {
  68:src/../h/list.hpp ****         if (!head) { return 0; }
  69:src/../h/list.hpp ****         return head->data;
  70:src/../h/list.hpp ****     }
  71:src/../h/list.hpp **** 
  72:src/../h/list.hpp ****     T *removeLast()
  73:src/../h/list.hpp ****     {
  74:src/../h/list.hpp ****         if (!head) { return 0; }
 198              		.loc 4 74 14
 199 00d0 83B48900 		ld	s1,8(s3)
 200              		.loc 4 74 9
 201 00d4 63860406 		beqz	s1,.L21
  75:src/../h/list.hpp **** 
  76:src/../h/list.hpp ****         Elem *prev = 0;
 202              		.loc 4 76 15
 203 00d8 13070000 		li	a4,0
 204              	.L12:
 205              	.LVL15:
 206              	.LBB37:
  77:src/../h/list.hpp ****         for (Elem *curr = head; curr && curr != tail; curr = curr->next)
 207              		.loc 4 77 38 is_stmt 1
 208 00dc 638C0400 		beqz	s1,.L11
 209              		.loc 4 77 49 is_stmt 0
GAS LISTING /tmp/ccmiawjN.s 			page 10


 210 00e0 83378900 		ld	a5,8(s2)
 211              		.loc 4 77 38
 212 00e4 6388F400 		beq	s1,a5,.L11
 213              	.LVL16:
 214              		.loc 4 77 9 is_stmt 1
  78:src/../h/list.hpp ****         {
  79:src/../h/list.hpp ****             prev = curr;
 215              		.loc 4 79 13 is_stmt 0
 216 00e8 13870400 		mv	a4,s1
  77:src/../h/list.hpp ****         for (Elem *curr = head; curr && curr != tail; curr = curr->next)
 217              		.loc 4 77 9
 218 00ec 83B48400 		ld	s1,8(s1)
 219              	.LVL17:
 220 00f0 6FF0DFFE 		j	.L12
 221              	.L11:
 222              	.LBE37:
  80:src/../h/list.hpp ****         }
  81:src/../h/list.hpp **** 
  82:src/../h/list.hpp ****         Elem *elem = tail;
 223              		.loc 4 82 15
 224 00f4 03358900 		ld	a0,8(s2)
 225              	.LVL18:
  83:src/../h/list.hpp ****         if (prev) { prev->next = 0; }
 226              		.loc 4 83 9
 227 00f8 63000702 		beqz	a4,.L13
 228              		.loc 4 83 21
 229 00fc 23340700 		sd	zero,8(a4)
 230              	.L14:
  84:src/../h/list.hpp ****         else { head = 0; }
  85:src/../h/list.hpp ****         tail = prev;
 231              		.loc 4 85 9
 232 0100 2334E900 		sd	a4,8(s2)
  86:src/../h/list.hpp **** 
  87:src/../h/list.hpp ****         T *ret = elem->data;
 233              		.loc 4 87 12
 234 0104 83340500 		ld	s1,0(a0)
 235              	.LVL19:
  88:src/../h/list.hpp ****         delete elem;
 236              		.loc 4 88 9
 237 0108 630C0502 		beqz	a0,.L21
 238 010c 97000000 		call	_ZdlPv@plt
 238      E7800000 
 239              	.LVL20:
 240 0114 6F00C002 		j	.L21
 241              	.LVL21:
 242              	.L13:
  84:src/../h/list.hpp ****         else { head = 0; }
 243              		.loc 4 84 16
 244 0118 23B40900 		sd	zero,8(s3)
 245 011c 6FF05FFE 		j	.L14
 246              	.LVL22:
 247              	.L17:
 248              	.LBE36:
 249              	.LBE35:
 250              	.LBB38:
 251              	.LBB39:
  82:src/../h/list.hpp ****         if (prev) { prev->next = 0; }
GAS LISTING /tmp/ccmiawjN.s 			page 11


 252              		.loc 4 82 15
 253 0120 03358900 		ld	a0,8(s2)
 254              	.LVL23:
  83:src/../h/list.hpp ****         else { head = 0; }
 255              		.loc 4 83 9
 256 0124 63880704 		beqz	a5,.L19
  83:src/../h/list.hpp ****         else { head = 0; }
 257              		.loc 4 83 21
 258 0128 23B40700 		sd	zero,8(a5)
 259              	.L20:
  85:src/../h/list.hpp **** 
 260              		.loc 4 85 9
 261 012c 2334F900 		sd	a5,8(s2)
  87:src/../h/list.hpp ****         delete elem;
 262              		.loc 4 87 12
 263 0130 83340500 		ld	s1,0(a0)
 264              	.LVL24:
 265              		.loc 4 88 9
 266 0134 63060500 		beqz	a0,.L21
 267 0138 97000000 		call	_ZdlPv@plt
 267      E7800000 
 268              	.LVL25:
 269              	.L21:
 270              	.LBE39:
 271              	.LBE38:
  26:src/_sem.cpp  ****     while(t){
 272              		.loc 1 26 5 is_stmt 1
 273              		.loc 1 26 11
 274 0140 638E0402 		beqz	s1,.L15
  27:src/_sem.cpp  ****         Scheduler::put(t);
 275              		.loc 1 27 9
 276              		.loc 1 27 23 is_stmt 0
 277 0144 13850400 		mv	a0,s1
 278 0148 97000000 		call	_ZN9Scheduler3putEP7_thread@plt
 278      E7800000 
 279              	.LVL26:
  28:src/_sem.cpp  ****         t = blockedThreadQueue.removeLast();
 280              		.loc 1 28 9 is_stmt 1
 281              	.LBB42:
 282              	.LBB41:
  74:src/../h/list.hpp **** 
 283              		.loc 4 74 14 is_stmt 0
 284 0150 83340900 		ld	s1,0(s2)
 285              	.LVL27:
  74:src/../h/list.hpp **** 
 286              		.loc 4 74 9
 287 0154 E38604FE 		beqz	s1,.L21
  76:src/../h/list.hpp ****         for (Elem *curr = head; curr && curr != tail; curr = curr->next)
 288              		.loc 4 76 15
 289 0158 93070000 		li	a5,0
 290              	.L18:
 291              	.LVL28:
 292              	.LBB40:
  77:src/../h/list.hpp ****         {
 293              		.loc 4 77 38 is_stmt 1
 294 015c E38204FC 		beqz	s1,.L17
  77:src/../h/list.hpp ****         {
GAS LISTING /tmp/ccmiawjN.s 			page 12


 295              		.loc 4 77 49 is_stmt 0
 296 0160 03378900 		ld	a4,8(s2)
  77:src/../h/list.hpp ****         {
 297              		.loc 4 77 38
 298 0164 E38EE4FA 		beq	s1,a4,.L17
 299              	.LVL29:
  77:src/../h/list.hpp ****         {
 300              		.loc 4 77 9 is_stmt 1
  79:src/../h/list.hpp ****         }
 301              		.loc 4 79 13 is_stmt 0
 302 0168 93870400 		mv	a5,s1
  77:src/../h/list.hpp ****         {
 303              		.loc 4 77 9
 304 016c 83B48400 		ld	s1,8(s1)
 305              	.LVL30:
 306 0170 6FF0DFFE 		j	.L18
 307              	.LVL31:
 308              	.L19:
 309              	.LBE40:
  84:src/../h/list.hpp ****         tail = prev;
 310              		.loc 4 84 16
 311 0174 23300900 		sd	zero,0(s2)
 312 0178 6FF05FFB 		j	.L20
 313              	.LVL32:
 314              	.L15:
 315              	.LBE41:
 316              	.LBE42:
  29:src/_sem.cpp  ****     }
  30:src/_sem.cpp  ****     unlock();
 317              		.loc 1 30 5 is_stmt 1
 318              		.loc 1 30 11 is_stmt 0
 319 017c 97000000 		call	_Z6unlockv
 319      E7800000 
 320              	.LVL33:
 321              	.LBE34:
  31:src/_sem.cpp  **** }
 322              		.loc 1 31 1
 323 0184 83308102 		ld	ra,40(sp)
 324              		.cfi_restore 1
 325 0188 03340102 		ld	s0,32(sp)
 326              		.cfi_restore 8
 327              		.cfi_def_cfa 2, 48
 328 018c 83348101 		ld	s1,24(sp)
 329              		.cfi_restore 9
 330              	.LVL34:
 331 0190 03390101 		ld	s2,16(sp)
 332              		.cfi_restore 18
 333 0194 83398100 		ld	s3,8(sp)
 334              		.cfi_restore 19
 335              	.LVL35:
 336 0198 13010103 		addi	sp,sp,48
 337              		.cfi_def_cfa_offset 0
 338 019c 67800000 		jr	ra
 339              		.cfi_endproc
 340              	.LFE49:
 341              		.globl	__gxx_personality_v0
 342              		.section	.gcc_except_table,"a",@progbits
GAS LISTING /tmp/ccmiawjN.s 			page 13


 343              	.LLSDA49:
 344 0000 FF       		.byte	0xff
 345 0001 FF       		.byte	0xff
 346 0002 03       		.byte	0x3
 347 0003 00       		.byte	0
 348              		.text
 350              		.globl	_ZN4_semD1Ev
 351              		.set	_ZN4_semD1Ev,_ZN4_semD2Ev
 352              		.align	2
 353              		.globl	_ZN4_sem5blockEv
 355              	_ZN4_sem5blockEv:
 356              	.LFB51:
  32:src/_sem.cpp  **** 
  33:src/_sem.cpp  **** void _sem::block() {
 357              		.loc 1 33 20 is_stmt 1
 358              		.cfi_startproc
 359              	.LVL36:
 360 01a0 130101FF 		addi	sp,sp,-16
 361              		.cfi_def_cfa_offset 16
 362 01a4 23341100 		sd	ra,8(sp)
 363 01a8 23308100 		sd	s0,0(sp)
 364              		.cfi_offset 1, -8
 365              		.cfi_offset 8, -16
 366 01ac 13040101 		addi	s0,sp,16
 367              		.cfi_def_cfa 8, 0
  34:src/_sem.cpp  **** 
  35:src/_sem.cpp  ****     _thread::running->blocked  = true;
 368              		.loc 1 35 5
 369              		.loc 1 35 23 is_stmt 0
 370 01b0 97070000 		la	a5,_ZN7_thread7runningE
 370      83B70700 
 371 01b8 83B70700 		ld	a5,0(a5)
 372              		.loc 1 35 32
 373 01bc 13071000 		li	a4,1
 374 01c0 238CE702 		sb	a4,56(a5)
  36:src/_sem.cpp  ****     _thread::running->blockedBy = this;
 375              		.loc 1 36 5 is_stmt 1
 376              		.loc 1 36 33 is_stmt 0
 377 01c4 23B0A704 		sd	a0,64(a5)
  37:src/_sem.cpp  ****     _thread::dispatch();
 378              		.loc 1 37 5 is_stmt 1
 379              		.loc 1 37 22 is_stmt 0
 380 01c8 97000000 		call	_ZN7_thread8dispatchEv@plt
 380      E7800000 
 381              	.LVL37:
  38:src/_sem.cpp  ****     //pozvace se zamena konteksta, ako je blocked = true u dispach()-u ce se ubaciti nit u blocked 
  39:src/_sem.cpp  **** }
 382              		.loc 1 39 1
 383 01d0 83308100 		ld	ra,8(sp)
 384              		.cfi_restore 1
 385 01d4 03340100 		ld	s0,0(sp)
 386              		.cfi_restore 8
 387              		.cfi_def_cfa 2, 16
 388 01d8 13010101 		addi	sp,sp,16
 389              		.cfi_def_cfa_offset 0
 390 01dc 67800000 		jr	ra
 391              		.cfi_endproc
GAS LISTING /tmp/ccmiawjN.s 			page 14


 392              	.LFE51:
 394              		.align	2
 395              		.globl	_ZN4_sem7deblockEv
 397              	_ZN4_sem7deblockEv:
 398              	.LFB52:
  40:src/_sem.cpp  **** 
  41:src/_sem.cpp  **** void _sem::deblock(){
 399              		.loc 1 41 21 is_stmt 1
 400              		.cfi_startproc
 401              	.LVL38:
 402 01e0 130101FE 		addi	sp,sp,-32
 403              		.cfi_def_cfa_offset 32
 404 01e4 233C1100 		sd	ra,24(sp)
 405 01e8 23388100 		sd	s0,16(sp)
 406 01ec 23349100 		sd	s1,8(sp)
 407              		.cfi_offset 1, -8
 408              		.cfi_offset 8, -16
 409              		.cfi_offset 9, -24
 410 01f0 13040102 		addi	s0,sp,32
 411              		.cfi_def_cfa 8, 0
 412 01f4 93070500 		mv	a5,a0
  42:src/_sem.cpp  ****     _thread *t = blockedThreadQueue.removeFirst();
 413              		.loc 1 42 5
 414              	.LVL39:
 415              	.LBB43:
 416              	.LBB44:
  55:src/../h/list.hpp **** 
 417              		.loc 4 55 14 is_stmt 0
 418 01f8 03358500 		ld	a0,8(a0)
 419              	.LVL40:
  55:src/../h/list.hpp **** 
 420              		.loc 4 55 9
 421 01fc 63080504 		beqz	a0,.L28
 422              	.LVL41:
  58:src/../h/list.hpp ****         if (!head) { tail = 0; }
 423              		.loc 4 58 22
 424 0200 03378500 		ld	a4,8(a0)
  58:src/../h/list.hpp ****         if (!head) { tail = 0; }
 425              		.loc 4 58 9
 426 0204 23B4E700 		sd	a4,8(a5)
  59:src/../h/list.hpp **** 
 427              		.loc 4 59 9
 428 0208 630E0702 		beqz	a4,.L30
 429              	.L27:
  61:src/../h/list.hpp ****         delete elem;
 430              		.loc 4 61 12
 431 020c 83340500 		ld	s1,0(a0)
 432              	.LVL42:
  62:src/../h/list.hpp ****         return ret;
 433              		.loc 4 62 9
 434 0210 97000000 		call	_ZdlPv@plt
 434      E7800000 
 435              	.LVL43:
 436              	.L26:
 437              	.LBE44:
 438              	.LBE43:
  43:src/_sem.cpp  ****     t->dblck();
GAS LISTING /tmp/ccmiawjN.s 			page 15


 439              		.loc 1 43 5 is_stmt 1
 440              		.loc 1 43 13 is_stmt 0
 441 0218 13850400 		mv	a0,s1
 442 021c 97000000 		call	_ZN7_thread5dblckEv@plt
 442      E7800000 
 443              	.LVL44:
  44:src/_sem.cpp  ****     Scheduler::put(t);
 444              		.loc 1 44 5 is_stmt 1
 445              		.loc 1 44 19 is_stmt 0
 446 0224 13850400 		mv	a0,s1
 447 0228 97000000 		call	_ZN9Scheduler3putEP7_thread@plt
 447      E7800000 
 448              	.LVL45:
  45:src/_sem.cpp  **** }
 449              		.loc 1 45 1
 450 0230 83308101 		ld	ra,24(sp)
 451              		.cfi_remember_state
 452              		.cfi_restore 1
 453 0234 03340101 		ld	s0,16(sp)
 454              		.cfi_restore 8
 455              		.cfi_def_cfa 2, 32
 456 0238 83348100 		ld	s1,8(sp)
 457              		.cfi_restore 9
 458              	.LVL46:
 459 023c 13010102 		addi	sp,sp,32
 460              		.cfi_def_cfa_offset 0
 461 0240 67800000 		jr	ra
 462              	.LVL47:
 463              	.L30:
 464              		.cfi_restore_state
 465              	.LBB46:
 466              	.LBB45:
  59:src/../h/list.hpp **** 
 467              		.loc 4 59 22
 468 0244 23B80700 		sd	zero,16(a5)
 469 0248 6FF05FFC 		j	.L27
 470              	.LVL48:
 471              	.L28:
  55:src/../h/list.hpp **** 
 472              		.loc 4 55 29
 473 024c 93040500 		mv	s1,a0
 474 0250 6FF09FFC 		j	.L26
 475              	.LBE45:
 476              	.LBE46:
 477              		.cfi_endproc
 478              	.LFE52:
 480              		.align	2
 481              		.globl	_ZN4_sem4waitEv
 483              	_ZN4_sem4waitEv:
 484              	.LFB53:
  46:src/_sem.cpp  **** 
  47:src/_sem.cpp  **** int _sem::wait() {
 485              		.loc 1 47 18 is_stmt 1
 486              		.cfi_startproc
 487              	.LVL49:
 488 0254 130101FE 		addi	sp,sp,-32
 489              		.cfi_def_cfa_offset 32
GAS LISTING /tmp/ccmiawjN.s 			page 16


 490 0258 233C1100 		sd	ra,24(sp)
 491 025c 23388100 		sd	s0,16(sp)
 492 0260 23349100 		sd	s1,8(sp)
 493              		.cfi_offset 1, -8
 494              		.cfi_offset 8, -16
 495              		.cfi_offset 9, -24
 496 0264 13040102 		addi	s0,sp,32
 497              		.cfi_def_cfa 8, 0
 498 0268 93040500 		mv	s1,a0
  48:src/_sem.cpp  ****     lock();
 499              		.loc 1 48 5
 500              		.loc 1 48 9 is_stmt 0
 501 026c 97000000 		call	_Z4lockv
 501      E7800000 
 502              	.LVL50:
  49:src/_sem.cpp  ****     if(--val < 0)
 503              		.loc 1 49 5 is_stmt 1
 504              		.loc 1 49 10 is_stmt 0
 505 0274 83A70400 		lw	a5,0(s1)
 506              		.loc 1 49 8
 507 0278 9B87F7FF 		addiw	a5,a5,-1
 508              		.loc 1 49 14
 509 027c 23A0F400 		sw	a5,0(s1)
 510              		.loc 1 49 5
 511 0280 13970702 		slli	a4,a5,32
 512 0284 63420702 		bltz	a4,.L34
 513              	.L32:
  50:src/_sem.cpp  ****         block();
  51:src/_sem.cpp  ****     unlock();
 514              		.loc 1 51 5 is_stmt 1
 515              		.loc 1 51 11 is_stmt 0
 516 0288 97000000 		call	_Z6unlockv
 516      E7800000 
 517              	.LVL51:
  52:src/_sem.cpp  ****     return 0;
 518              		.loc 1 52 5 is_stmt 1
  53:src/_sem.cpp  **** }
 519              		.loc 1 53 1 is_stmt 0
 520 0290 13050000 		li	a0,0
 521 0294 83308101 		ld	ra,24(sp)
 522              		.cfi_remember_state
 523              		.cfi_restore 1
 524 0298 03340101 		ld	s0,16(sp)
 525              		.cfi_restore 8
 526              		.cfi_def_cfa 2, 32
 527 029c 83348100 		ld	s1,8(sp)
 528              		.cfi_restore 9
 529              	.LVL52:
 530 02a0 13010102 		addi	sp,sp,32
 531              		.cfi_def_cfa_offset 0
 532 02a4 67800000 		jr	ra
 533              	.LVL53:
 534              	.L34:
 535              		.cfi_restore_state
  50:src/_sem.cpp  ****         block();
 536              		.loc 1 50 9 is_stmt 1
  50:src/_sem.cpp  ****         block();
GAS LISTING /tmp/ccmiawjN.s 			page 17


 537              		.loc 1 50 14 is_stmt 0
 538 02a8 13850400 		mv	a0,s1
 539 02ac 97000000 		call	_ZN4_sem5blockEv
 539      E7800000 
 540              	.LVL54:
 541 02b4 6FF05FFD 		j	.L32
 542              		.cfi_endproc
 543              	.LFE53:
 545              		.align	2
 546              		.globl	_ZN4_sem6signalEv
 548              	_ZN4_sem6signalEv:
 549              	.LFB54:
  54:src/_sem.cpp  **** 
  55:src/_sem.cpp  **** int _sem::signal() {
 550              		.loc 1 55 20 is_stmt 1
 551              		.cfi_startproc
 552              	.LVL55:
 553 02b8 130101FE 		addi	sp,sp,-32
 554              		.cfi_def_cfa_offset 32
 555 02bc 233C1100 		sd	ra,24(sp)
 556 02c0 23388100 		sd	s0,16(sp)
 557 02c4 23349100 		sd	s1,8(sp)
 558              		.cfi_offset 1, -8
 559              		.cfi_offset 8, -16
 560              		.cfi_offset 9, -24
 561 02c8 13040102 		addi	s0,sp,32
 562              		.cfi_def_cfa 8, 0
 563 02cc 93040500 		mv	s1,a0
  56:src/_sem.cpp  ****     lock();
 564              		.loc 1 56 5
 565              		.loc 1 56 9 is_stmt 0
 566 02d0 97000000 		call	_Z4lockv
 566      E7800000 
 567              	.LVL56:
  57:src/_sem.cpp  ****     if(val++ < 0)
 568              		.loc 1 57 5 is_stmt 1
 569              		.loc 1 57 8 is_stmt 0
 570 02d8 83A70400 		lw	a5,0(s1)
 571              		.loc 1 57 11
 572 02dc 1B871700 		addiw	a4,a5,1
 573 02e0 23A0E400 		sw	a4,0(s1)
 574              		.loc 1 57 5
 575 02e4 63C20702 		bltz	a5,.L38
 576              	.L36:
  58:src/_sem.cpp  ****         deblock();
  59:src/_sem.cpp  ****     unlock();
 577              		.loc 1 59 5 is_stmt 1
 578              		.loc 1 59 11 is_stmt 0
 579 02e8 97000000 		call	_Z6unlockv
 579      E7800000 
 580              	.LVL57:
  60:src/_sem.cpp  ****     return 0;
 581              		.loc 1 60 5 is_stmt 1
  61:src/_sem.cpp  **** }
 582              		.loc 1 61 1 is_stmt 0
 583 02f0 13050000 		li	a0,0
 584 02f4 83308101 		ld	ra,24(sp)
GAS LISTING /tmp/ccmiawjN.s 			page 18


 585              		.cfi_remember_state
 586              		.cfi_restore 1
 587 02f8 03340101 		ld	s0,16(sp)
 588              		.cfi_restore 8
 589              		.cfi_def_cfa 2, 32
 590 02fc 83348100 		ld	s1,8(sp)
 591              		.cfi_restore 9
 592              	.LVL58:
 593 0300 13010102 		addi	sp,sp,32
 594              		.cfi_def_cfa_offset 0
 595 0304 67800000 		jr	ra
 596              	.LVL59:
 597              	.L38:
 598              		.cfi_restore_state
  58:src/_sem.cpp  ****         deblock();
 599              		.loc 1 58 9 is_stmt 1
  58:src/_sem.cpp  ****         deblock();
 600              		.loc 1 58 16 is_stmt 0
 601 0308 13850400 		mv	a0,s1
 602 030c 97000000 		call	_ZN4_sem7deblockEv
 602      E7800000 
 603              	.LVL60:
 604 0314 6FF05FFD 		j	.L36
 605              		.cfi_endproc
 606              	.LFE54:
 608              		.align	2
 609              		.globl	_ZN4_sem11blockedListEv
 611              	_ZN4_sem11blockedListEv:
 612              	.LFB55:
  62:src/_sem.cpp  **** 
  63:src/_sem.cpp  **** List<_thread>& _sem::blockedList(){
 613              		.loc 1 63 35 is_stmt 1
 614              		.cfi_startproc
 615              	.LVL61:
 616 0318 130101FF 		addi	sp,sp,-16
 617              		.cfi_def_cfa_offset 16
 618 031c 23348100 		sd	s0,8(sp)
 619              		.cfi_offset 8, -8
 620 0320 13040101 		addi	s0,sp,16
 621              		.cfi_def_cfa 8, 0
  64:src/_sem.cpp  ****     return _sem::blockedThreadQueue;
 622              		.loc 1 64 5
  65:src/_sem.cpp  **** }
 623              		.loc 1 65 1 is_stmt 0
 624 0324 13058500 		addi	a0,a0,8
 625              	.LVL62:
 626 0328 03348100 		ld	s0,8(sp)
 627              		.cfi_restore 8
 628              		.cfi_def_cfa 2, 16
 629 032c 13010101 		addi	sp,sp,16
 630              		.cfi_def_cfa_offset 0
 631 0330 67800000 		jr	ra
 632              		.cfi_endproc
 633              	.LFE55:
 635              	.Letext0:
 636              		.file 5 "src/../h/../lib/hw.h"
 637              		.file 6 "src/../h/syscall_c.h"
GAS LISTING /tmp/ccmiawjN.s 			page 19


 638              		.file 7 "src/../h/tcb.hpp"
 639              		.file 8 "src/../h/scheduler.hpp"
 4424              		.align	3
 4427              	DW.ref.__gxx_personality_v0:
 4428 0000 00000000 		.dword	__gxx_personality_v0
 4428      00000000 
 4429              		.ident	"GCC: (Ubuntu 9.4.0-1ubuntu1~20.04) 9.4.0"
 4430              		.section	.note.GNU-stack,"",@progbits
GAS LISTING /tmp/ccmiawjN.s 			page 20


DEFINED SYMBOLS
                            *ABS*:0000000000000000 _sem.cpp
     /tmp/ccmiawjN.s:9      .text:0000000000000000 _Z4lockv
     /tmp/ccmiawjN.s:13     .text:0000000000000000 .L0 
     /tmp/ccmiawjN.s:14     .text:0000000000000000 .L0 
     /tmp/ccmiawjN.s:15     .text:0000000000000004 .L0 
     /tmp/ccmiawjN.s:17     .text:0000000000000008 .L0 
     /tmp/ccmiawjN.s:19     .text:000000000000000c .L0 
     /tmp/ccmiawjN.s:25     .text:000000000000000c .L0 
     /tmp/ccmiawjN.s:26     .text:000000000000000c .L0 
     /tmp/ccmiawjN.s:27     .text:000000000000000c .L0 
     /tmp/ccmiawjN.s:37     .text:0000000000000014 .L0 
     /tmp/ccmiawjN.s:38     .text:0000000000000018 .L0 
     /tmp/ccmiawjN.s:39     .text:0000000000000018 .L0 
     /tmp/ccmiawjN.s:41     .text:000000000000001c .L0 
     /tmp/ccmiawjN.s:43     .text:0000000000000020 .L0 
     /tmp/ccmiawjN.s:49     .text:0000000000000020 _Z6unlockv
     /tmp/ccmiawjN.s:52     .text:0000000000000020 .L0 
     /tmp/ccmiawjN.s:53     .text:0000000000000020 .L0 
     /tmp/ccmiawjN.s:54     .text:0000000000000024 .L0 
     /tmp/ccmiawjN.s:56     .text:0000000000000028 .L0 
     /tmp/ccmiawjN.s:58     .text:000000000000002c .L0 
     /tmp/ccmiawjN.s:63     .text:000000000000002c .L0 
     /tmp/ccmiawjN.s:64     .text:000000000000002c .L0 
     /tmp/ccmiawjN.s:65     .text:000000000000002c .L0 
     /tmp/ccmiawjN.s:75     .text:0000000000000034 .L0 
     /tmp/ccmiawjN.s:76     .text:0000000000000038 .L0 
     /tmp/ccmiawjN.s:77     .text:0000000000000038 .L0 
     /tmp/ccmiawjN.s:79     .text:000000000000003c .L0 
     /tmp/ccmiawjN.s:81     .text:0000000000000040 .L0 
     /tmp/ccmiawjN.s:87     .text:0000000000000040 _ZN4_sem9createSemEPPS_m
     /tmp/ccmiawjN.s:90     .text:0000000000000040 .L0 
     /tmp/ccmiawjN.s:92     .text:0000000000000040 .L0 
     /tmp/ccmiawjN.s:93     .text:0000000000000044 .L0 
     /tmp/ccmiawjN.s:98     .text:0000000000000054 .L0 
     /tmp/ccmiawjN.s:99     .text:0000000000000054 .L0 
     /tmp/ccmiawjN.s:100    .text:0000000000000054 .L0 
     /tmp/ccmiawjN.s:101    .text:0000000000000054 .L0 
     /tmp/ccmiawjN.s:103    .text:0000000000000058 .L0 
     /tmp/ccmiawjN.s:107    .text:0000000000000060 .L0 
     /tmp/ccmiawjN.s:108    .text:0000000000000060 .L0 
     /tmp/ccmiawjN.s:116    .text:000000000000006c .L0 
     /tmp/ccmiawjN.s:122    .text:0000000000000070 .L0 
     /tmp/ccmiawjN.s:130    .text:0000000000000078 .L0 
     /tmp/ccmiawjN.s:132    .text:000000000000007c .L0 
     /tmp/ccmiawjN.s:134    .text:0000000000000080 .L0 
     /tmp/ccmiawjN.s:137    .text:0000000000000084 .L0 
     /tmp/ccmiawjN.s:138    .text:0000000000000088 .L0 
     /tmp/ccmiawjN.s:139    .text:0000000000000088 .L0 
     /tmp/ccmiawjN.s:141    .text:000000000000008c .L0 
     /tmp/ccmiawjN.s:142    .text:000000000000008c .L0 
     /tmp/ccmiawjN.s:144    .text:0000000000000090 .L0 
     /tmp/ccmiawjN.s:147    .text:0000000000000094 .L0 
     /tmp/ccmiawjN.s:150    .text:0000000000000098 .L0 
     /tmp/ccmiawjN.s:154    .text:000000000000009c .L0 
     /tmp/ccmiawjN.s:156    .text:000000000000009c .L0 
     /tmp/ccmiawjN.s:158    .text:00000000000000a4 .L0 
GAS LISTING /tmp/ccmiawjN.s 			page 21


     /tmp/ccmiawjN.s:164    .text:00000000000000a4 _ZN4_semD2Ev
     /tmp/ccmiawjN.s:167    .text:00000000000000a4 .L0 
     /tmp/ccmiawjN.s:4427   .data.rel.local.DW.ref.__gxx_personality_v0:0000000000000000 DW.ref.__gxx_personality_v0
     /tmp/ccmiawjN.s:171    .text:00000000000000a4 .L0 
     /tmp/ccmiawjN.s:172    .text:00000000000000a8 .L0 
     /tmp/ccmiawjN.s:178    .text:00000000000000bc .L0 
     /tmp/ccmiawjN.s:179    .text:00000000000000bc .L0 
     /tmp/ccmiawjN.s:180    .text:00000000000000bc .L0 
     /tmp/ccmiawjN.s:181    .text:00000000000000bc .L0 
     /tmp/ccmiawjN.s:182    .text:00000000000000bc .L0 
     /tmp/ccmiawjN.s:184    .text:00000000000000c0 .L0 
     /tmp/ccmiawjN.s:188    .text:00000000000000c4 .L0 
     /tmp/ccmiawjN.s:189    .text:00000000000000c4 .L0 
     /tmp/ccmiawjN.s:192    .text:00000000000000cc .L0 
     /tmp/ccmiawjN.s:193    .text:00000000000000cc .L0 
     /tmp/ccmiawjN.s:194    .text:00000000000000cc .L0 
     /tmp/ccmiawjN.s:199    .text:00000000000000d0 .L0 
     /tmp/ccmiawjN.s:201    .text:00000000000000d4 .L0 
     /tmp/ccmiawjN.s:203    .text:00000000000000d8 .L0 
     /tmp/ccmiawjN.s:208    .text:00000000000000dc .L0 
     /tmp/ccmiawjN.s:210    .text:00000000000000e0 .L0 
     /tmp/ccmiawjN.s:212    .text:00000000000000e4 .L0 
     /tmp/ccmiawjN.s:215    .text:00000000000000e8 .L0 
     /tmp/ccmiawjN.s:216    .text:00000000000000e8 .L0 
     /tmp/ccmiawjN.s:218    .text:00000000000000ec .L0 
     /tmp/ccmiawjN.s:224    .text:00000000000000f4 .L0 
     /tmp/ccmiawjN.s:227    .text:00000000000000f8 .L0 
     /tmp/ccmiawjN.s:229    .text:00000000000000fc .L0 
     /tmp/ccmiawjN.s:232    .text:0000000000000100 .L0 
     /tmp/ccmiawjN.s:234    .text:0000000000000104 .L0 
     /tmp/ccmiawjN.s:237    .text:0000000000000108 .L0 
     /tmp/ccmiawjN.s:244    .text:0000000000000118 .L0 
     /tmp/ccmiawjN.s:253    .text:0000000000000120 .L0 
     /tmp/ccmiawjN.s:256    .text:0000000000000124 .L0 
     /tmp/ccmiawjN.s:258    .text:0000000000000128 .L0 
     /tmp/ccmiawjN.s:261    .text:000000000000012c .L0 
     /tmp/ccmiawjN.s:263    .text:0000000000000130 .L0 
     /tmp/ccmiawjN.s:266    .text:0000000000000134 .L0 
     /tmp/ccmiawjN.s:273    .text:0000000000000140 .L0 
     /tmp/ccmiawjN.s:274    .text:0000000000000140 .L0 
     /tmp/ccmiawjN.s:276    .text:0000000000000144 .L0 
     /tmp/ccmiawjN.s:277    .text:0000000000000144 .L0 
     /tmp/ccmiawjN.s:283    .text:0000000000000150 .L0 
     /tmp/ccmiawjN.s:284    .text:0000000000000150 .L0 
     /tmp/ccmiawjN.s:287    .text:0000000000000154 .L0 
     /tmp/ccmiawjN.s:289    .text:0000000000000158 .L0 
     /tmp/ccmiawjN.s:294    .text:000000000000015c .L0 
     /tmp/ccmiawjN.s:296    .text:0000000000000160 .L0 
     /tmp/ccmiawjN.s:298    .text:0000000000000164 .L0 
     /tmp/ccmiawjN.s:301    .text:0000000000000168 .L0 
     /tmp/ccmiawjN.s:302    .text:0000000000000168 .L0 
     /tmp/ccmiawjN.s:304    .text:000000000000016c .L0 
     /tmp/ccmiawjN.s:311    .text:0000000000000174 .L0 
     /tmp/ccmiawjN.s:318    .text:000000000000017c .L0 
     /tmp/ccmiawjN.s:319    .text:000000000000017c .L0 
     /tmp/ccmiawjN.s:323    .text:0000000000000184 .L0 
     /tmp/ccmiawjN.s:324    .text:0000000000000188 .L0 
GAS LISTING /tmp/ccmiawjN.s 			page 22


     /tmp/ccmiawjN.s:326    .text:000000000000018c .L0 
     /tmp/ccmiawjN.s:327    .text:000000000000018c .L0 
     /tmp/ccmiawjN.s:329    .text:0000000000000190 .L0 
     /tmp/ccmiawjN.s:332    .text:0000000000000194 .L0 
     /tmp/ccmiawjN.s:334    .text:0000000000000198 .L0 
     /tmp/ccmiawjN.s:337    .text:000000000000019c .L0 
     /tmp/ccmiawjN.s:339    .text:00000000000001a0 .L0 
     /tmp/ccmiawjN.s:164    .text:00000000000000a4 _ZN4_semD1Ev
     /tmp/ccmiawjN.s:355    .text:00000000000001a0 _ZN4_sem5blockEv
     /tmp/ccmiawjN.s:358    .text:00000000000001a0 .L0 
     /tmp/ccmiawjN.s:360    .text:00000000000001a0 .L0 
     /tmp/ccmiawjN.s:361    .text:00000000000001a4 .L0 
     /tmp/ccmiawjN.s:364    .text:00000000000001ac .L0 
     /tmp/ccmiawjN.s:365    .text:00000000000001ac .L0 
     /tmp/ccmiawjN.s:367    .text:00000000000001b0 .L0 
     /tmp/ccmiawjN.s:369    .text:00000000000001b0 .L0 
     /tmp/ccmiawjN.s:370    .text:00000000000001b0 .L0 
     /tmp/ccmiawjN.s:373    .text:00000000000001bc .L0 
     /tmp/ccmiawjN.s:376    .text:00000000000001c4 .L0 
     /tmp/ccmiawjN.s:377    .text:00000000000001c4 .L0 
     /tmp/ccmiawjN.s:379    .text:00000000000001c8 .L0 
     /tmp/ccmiawjN.s:380    .text:00000000000001c8 .L0 
     /tmp/ccmiawjN.s:383    .text:00000000000001d0 .L0 
     /tmp/ccmiawjN.s:384    .text:00000000000001d4 .L0 
     /tmp/ccmiawjN.s:386    .text:00000000000001d8 .L0 
     /tmp/ccmiawjN.s:387    .text:00000000000001d8 .L0 
     /tmp/ccmiawjN.s:389    .text:00000000000001dc .L0 
     /tmp/ccmiawjN.s:391    .text:00000000000001e0 .L0 
     /tmp/ccmiawjN.s:397    .text:00000000000001e0 _ZN4_sem7deblockEv
     /tmp/ccmiawjN.s:400    .text:00000000000001e0 .L0 
     /tmp/ccmiawjN.s:402    .text:00000000000001e0 .L0 
     /tmp/ccmiawjN.s:403    .text:00000000000001e4 .L0 
     /tmp/ccmiawjN.s:407    .text:00000000000001f0 .L0 
     /tmp/ccmiawjN.s:408    .text:00000000000001f0 .L0 
     /tmp/ccmiawjN.s:409    .text:00000000000001f0 .L0 
     /tmp/ccmiawjN.s:411    .text:00000000000001f4 .L0 
     /tmp/ccmiawjN.s:417    .text:00000000000001f8 .L0 
     /tmp/ccmiawjN.s:418    .text:00000000000001f8 .L0 
     /tmp/ccmiawjN.s:421    .text:00000000000001fc .L0 
     /tmp/ccmiawjN.s:424    .text:0000000000000200 .L0 
     /tmp/ccmiawjN.s:426    .text:0000000000000204 .L0 
     /tmp/ccmiawjN.s:428    .text:0000000000000208 .L0 
     /tmp/ccmiawjN.s:431    .text:000000000000020c .L0 
     /tmp/ccmiawjN.s:434    .text:0000000000000210 .L0 
     /tmp/ccmiawjN.s:440    .text:0000000000000218 .L0 
     /tmp/ccmiawjN.s:441    .text:0000000000000218 .L0 
     /tmp/ccmiawjN.s:445    .text:0000000000000224 .L0 
     /tmp/ccmiawjN.s:446    .text:0000000000000224 .L0 
     /tmp/ccmiawjN.s:450    .text:0000000000000230 .L0 
     /tmp/ccmiawjN.s:451    .text:0000000000000234 .L0 
     /tmp/ccmiawjN.s:452    .text:0000000000000234 .L0 
     /tmp/ccmiawjN.s:454    .text:0000000000000238 .L0 
     /tmp/ccmiawjN.s:455    .text:0000000000000238 .L0 
     /tmp/ccmiawjN.s:457    .text:000000000000023c .L0 
     /tmp/ccmiawjN.s:460    .text:0000000000000240 .L0 
     /tmp/ccmiawjN.s:464    .text:0000000000000244 .L0 
     /tmp/ccmiawjN.s:468    .text:0000000000000244 .L0 
GAS LISTING /tmp/ccmiawjN.s 			page 23


     /tmp/ccmiawjN.s:473    .text:000000000000024c .L0 
     /tmp/ccmiawjN.s:477    .text:0000000000000254 .L0 
     /tmp/ccmiawjN.s:483    .text:0000000000000254 _ZN4_sem4waitEv
     /tmp/ccmiawjN.s:486    .text:0000000000000254 .L0 
     /tmp/ccmiawjN.s:488    .text:0000000000000254 .L0 
     /tmp/ccmiawjN.s:489    .text:0000000000000258 .L0 
     /tmp/ccmiawjN.s:493    .text:0000000000000264 .L0 
     /tmp/ccmiawjN.s:494    .text:0000000000000264 .L0 
     /tmp/ccmiawjN.s:495    .text:0000000000000264 .L0 
     /tmp/ccmiawjN.s:497    .text:0000000000000268 .L0 
     /tmp/ccmiawjN.s:500    .text:000000000000026c .L0 
     /tmp/ccmiawjN.s:501    .text:000000000000026c .L0 
     /tmp/ccmiawjN.s:504    .text:0000000000000274 .L0 
     /tmp/ccmiawjN.s:505    .text:0000000000000274 .L0 
     /tmp/ccmiawjN.s:507    .text:0000000000000278 .L0 
     /tmp/ccmiawjN.s:509    .text:000000000000027c .L0 
     /tmp/ccmiawjN.s:511    .text:0000000000000280 .L0 
     /tmp/ccmiawjN.s:515    .text:0000000000000288 .L0 
     /tmp/ccmiawjN.s:516    .text:0000000000000288 .L0 
     /tmp/ccmiawjN.s:519    .text:0000000000000290 .L0 
     /tmp/ccmiawjN.s:520    .text:0000000000000290 .L0 
     /tmp/ccmiawjN.s:522    .text:0000000000000298 .L0 
     /tmp/ccmiawjN.s:523    .text:0000000000000298 .L0 
     /tmp/ccmiawjN.s:525    .text:000000000000029c .L0 
     /tmp/ccmiawjN.s:526    .text:000000000000029c .L0 
     /tmp/ccmiawjN.s:528    .text:00000000000002a0 .L0 
     /tmp/ccmiawjN.s:531    .text:00000000000002a4 .L0 
     /tmp/ccmiawjN.s:535    .text:00000000000002a8 .L0 
     /tmp/ccmiawjN.s:537    .text:00000000000002a8 .L0 
     /tmp/ccmiawjN.s:538    .text:00000000000002a8 .L0 
     /tmp/ccmiawjN.s:542    .text:00000000000002b8 .L0 
     /tmp/ccmiawjN.s:548    .text:00000000000002b8 _ZN4_sem6signalEv
     /tmp/ccmiawjN.s:551    .text:00000000000002b8 .L0 
     /tmp/ccmiawjN.s:553    .text:00000000000002b8 .L0 
     /tmp/ccmiawjN.s:554    .text:00000000000002bc .L0 
     /tmp/ccmiawjN.s:558    .text:00000000000002c8 .L0 
     /tmp/ccmiawjN.s:559    .text:00000000000002c8 .L0 
     /tmp/ccmiawjN.s:560    .text:00000000000002c8 .L0 
     /tmp/ccmiawjN.s:562    .text:00000000000002cc .L0 
     /tmp/ccmiawjN.s:565    .text:00000000000002d0 .L0 
     /tmp/ccmiawjN.s:566    .text:00000000000002d0 .L0 
     /tmp/ccmiawjN.s:569    .text:00000000000002d8 .L0 
     /tmp/ccmiawjN.s:570    .text:00000000000002d8 .L0 
     /tmp/ccmiawjN.s:572    .text:00000000000002dc .L0 
     /tmp/ccmiawjN.s:575    .text:00000000000002e4 .L0 
     /tmp/ccmiawjN.s:578    .text:00000000000002e8 .L0 
     /tmp/ccmiawjN.s:579    .text:00000000000002e8 .L0 
     /tmp/ccmiawjN.s:582    .text:00000000000002f0 .L0 
     /tmp/ccmiawjN.s:583    .text:00000000000002f0 .L0 
     /tmp/ccmiawjN.s:585    .text:00000000000002f8 .L0 
     /tmp/ccmiawjN.s:586    .text:00000000000002f8 .L0 
     /tmp/ccmiawjN.s:588    .text:00000000000002fc .L0 
     /tmp/ccmiawjN.s:589    .text:00000000000002fc .L0 
     /tmp/ccmiawjN.s:591    .text:0000000000000300 .L0 
     /tmp/ccmiawjN.s:594    .text:0000000000000304 .L0 
     /tmp/ccmiawjN.s:598    .text:0000000000000308 .L0 
     /tmp/ccmiawjN.s:600    .text:0000000000000308 .L0 
GAS LISTING /tmp/ccmiawjN.s 			page 24


     /tmp/ccmiawjN.s:601    .text:0000000000000308 .L0 
     /tmp/ccmiawjN.s:605    .text:0000000000000318 .L0 
     /tmp/ccmiawjN.s:611    .text:0000000000000318 _ZN4_sem11blockedListEv
     /tmp/ccmiawjN.s:614    .text:0000000000000318 .L0 
     /tmp/ccmiawjN.s:616    .text:0000000000000318 .L0 
     /tmp/ccmiawjN.s:617    .text:000000000000031c .L0 
     /tmp/ccmiawjN.s:619    .text:0000000000000320 .L0 
     /tmp/ccmiawjN.s:621    .text:0000000000000324 .L0 
     /tmp/ccmiawjN.s:623    .text:0000000000000324 .L0 
     /tmp/ccmiawjN.s:624    .text:0000000000000324 .L0 
     /tmp/ccmiawjN.s:627    .text:000000000000032c .L0 
     /tmp/ccmiawjN.s:628    .text:000000000000032c .L0 
     /tmp/ccmiawjN.s:630    .text:0000000000000330 .L0 
     /tmp/ccmiawjN.s:632    .text:0000000000000334 .L0 
     /tmp/ccmiawjN.s:640    .text:0000000000000334 .L0 
     /tmp/ccmiawjN.s:370    .text:00000000000001b0 .L0 
     /tmp/ccmiawjN.s:153    .text:000000000000009c .L7
     /tmp/ccmiawjN.s:135    .text:0000000000000084 .L6
     /tmp/ccmiawjN.s:269    .text:0000000000000140 .L21
     /tmp/ccmiawjN.s:221    .text:00000000000000f4 .L11
     /tmp/ccmiawjN.s:204    .text:00000000000000dc .L12
     /tmp/ccmiawjN.s:242    .text:0000000000000118 .L13
     /tmp/ccmiawjN.s:230    .text:0000000000000100 .L14
     /tmp/ccmiawjN.s:308    .text:0000000000000174 .L19
     /tmp/ccmiawjN.s:314    .text:000000000000017c .L15
     /tmp/ccmiawjN.s:247    .text:0000000000000120 .L17
     /tmp/ccmiawjN.s:290    .text:000000000000015c .L18
     /tmp/ccmiawjN.s:259    .text:000000000000012c .L20
     /tmp/ccmiawjN.s:471    .text:000000000000024c .L28
     /tmp/ccmiawjN.s:463    .text:0000000000000244 .L30
     /tmp/ccmiawjN.s:429    .text:000000000000020c .L27
     /tmp/ccmiawjN.s:436    .text:0000000000000218 .L26
     /tmp/ccmiawjN.s:534    .text:00000000000002a8 .L34
     /tmp/ccmiawjN.s:513    .text:0000000000000288 .L32
     /tmp/ccmiawjN.s:597    .text:0000000000000308 .L38
     /tmp/ccmiawjN.s:576    .text:00000000000002e8 .L36
     /tmp/ccmiawjN.s:2336   .debug_abbrev:0000000000000000 .Ldebug_abbrev0
     /tmp/ccmiawjN.s:4329   .debug_str:0000000000000865 .LASF178
     /tmp/ccmiawjN.s:4049   .debug_str:000000000000001a .LASF179
     /tmp/ccmiawjN.s:4143   .debug_str:00000000000002f5 .LASF180
     /tmp/ccmiawjN.s:5      .text:0000000000000000 .Ltext0
     /tmp/ccmiawjN.s:635    .text:0000000000000334 .Letext0
     /tmp/ccmiawjN.s:4041   .debug_line:0000000000000000 .Ldebug_line0
     /tmp/ccmiawjN.s:4163   .debug_str:00000000000003ae .LASF0
     /tmp/ccmiawjN.s:4193   .debug_str:00000000000004ab .LASF1
     /tmp/ccmiawjN.s:4273   .debug_str:0000000000000700 .LASF2
     /tmp/ccmiawjN.s:4281   .debug_str:000000000000073b .LASF4
     /tmp/ccmiawjN.s:4173   .debug_str:00000000000003df .LASF3
     /tmp/ccmiawjN.s:4053   .debug_str:0000000000000031 .LASF5
     /tmp/ccmiawjN.s:4245   .debug_str:0000000000000616 .LASF6
     /tmp/ccmiawjN.s:4239   .debug_str:00000000000005cf .LASF7
     /tmp/ccmiawjN.s:4183   .debug_str:0000000000000457 .LASF8
     /tmp/ccmiawjN.s:4141   .debug_str:00000000000002e5 .LASF9
     /tmp/ccmiawjN.s:4147   .debug_str:000000000000032f .LASF10
     /tmp/ccmiawjN.s:4077   .debug_str:00000000000000d6 .LASF11
     /tmp/ccmiawjN.s:4127   .debug_str:000000000000025f .LASF12
     /tmp/ccmiawjN.s:4087   .debug_str:0000000000000131 .LASF13
GAS LISTING /tmp/ccmiawjN.s 			page 25


     /tmp/ccmiawjN.s:4075   .debug_str:00000000000000c6 .LASF14
     /tmp/ccmiawjN.s:4307   .debug_str:00000000000007f1 .LASF15
     /tmp/ccmiawjN.s:4115   .debug_str:00000000000001fe .LASF16
     /tmp/ccmiawjN.s:4297   .debug_str:000000000000079c .LASF17
     /tmp/ccmiawjN.s:4373   .debug_str:0000000000000a8a .LASF18
     /tmp/ccmiawjN.s:4063   .debug_str:0000000000000075 .LASF36
     /tmp/ccmiawjN.s:4317   .debug_str:0000000000000821 .LASF85
     /tmp/ccmiawjN.s:4309   .debug_str:00000000000007fd .LASF19
     /tmp/ccmiawjN.s:4189   .debug_str:0000000000000496 .LASF21
     /tmp/ccmiawjN.s:4319   .debug_str:0000000000000829 .LASF23
     /tmp/ccmiawjN.s:4303   .debug_str:00000000000007c9 .LASF25
     /tmp/ccmiawjN.s:4067   .debug_str:0000000000000082 .LASF20
     /tmp/ccmiawjN.s:4367   .debug_str:0000000000000a53 .LASF22
     /tmp/ccmiawjN.s:4197   .debug_str:00000000000004c4 .LASF24
     /tmp/ccmiawjN.s:4073   .debug_str:00000000000000a9 .LASF26
     /tmp/ccmiawjN.s:4361   .debug_str:0000000000000a0f .LASF27
     /tmp/ccmiawjN.s:4321   .debug_str:0000000000000834 .LASF28
     /tmp/ccmiawjN.s:4257   .debug_str:000000000000066f .LASF29
     /tmp/ccmiawjN.s:4111   .debug_str:00000000000001d9 .LASF30
     /tmp/ccmiawjN.s:4119   .debug_str:0000000000000236 .LASF31
     /tmp/ccmiawjN.s:4241   .debug_str:00000000000005e2 .LASF32
     /tmp/ccmiawjN.s:4305   .debug_str:00000000000007e4 .LASF33
     /tmp/ccmiawjN.s:4109   .debug_str:00000000000001b9 .LASF34
     /tmp/ccmiawjN.s:4235   .debug_str:00000000000005be .LASF181
     /tmp/ccmiawjN.s:4137   .debug_str:00000000000002af .LASF35
     /tmp/ccmiawjN.s:4195   .debug_str:00000000000004be .LASF52
     /tmp/ccmiawjN.s:4223   .debug_str:0000000000000567 .LASF54
     /tmp/ccmiawjN.s:4325   .debug_str:0000000000000850 .LASF182
     /tmp/ccmiawjN.s:4155   .debug_str:0000000000000369 .LASF37
     /tmp/ccmiawjN.s:4399   .debug_str:0000000000000b32 .LASF38
     /tmp/ccmiawjN.s:4045   .debug_str:0000000000000005 .LASF39
     /tmp/ccmiawjN.s:4407   .debug_str:0000000000000b8b .LASF40
     /tmp/ccmiawjN.s:4345   .debug_str:000000000000098a .LASF41
     /tmp/ccmiawjN.s:4339   .debug_str:0000000000000969 .LASF42
     /tmp/ccmiawjN.s:4295   .debug_str:0000000000000793 .LASF43
     /tmp/ccmiawjN.s:4359   .debug_str:0000000000000a0a .LASF44
     /tmp/ccmiawjN.s:4229   .debug_str:000000000000059a .LASF45
     /tmp/ccmiawjN.s:4315   .debug_str:0000000000000818 .LASF46
     /tmp/ccmiawjN.s:4209   .debug_str:000000000000050d .LASF47
     /tmp/ccmiawjN.s:4069   .debug_str:000000000000008e .LASF48
     /tmp/ccmiawjN.s:4259   .debug_str:000000000000067f .LASF50
     /tmp/ccmiawjN.s:4091   .debug_str:0000000000000146 .LASF83
     /tmp/ccmiawjN.s:4175   .debug_str:00000000000003f1 .LASF91
     /tmp/ccmiawjN.s:4101   .debug_str:00000000000001a0 .LASF49
     /tmp/ccmiawjN.s:4093   .debug_str:0000000000000154 .LASF51
     /tmp/ccmiawjN.s:4313   .debug_str:000000000000080d .LASF53
     /tmp/ccmiawjN.s:4385   .debug_str:0000000000000acd .LASF55
     /tmp/ccmiawjN.s:4059   .debug_str:000000000000004c .LASF56
     /tmp/ccmiawjN.s:4177   .debug_str:000000000000041d .LASF57
     /tmp/ccmiawjN.s:4287   .debug_str:000000000000075c .LASF81
     /tmp/ccmiawjN.s:4279   .debug_str:0000000000000730 .LASF58
     /tmp/ccmiawjN.s:4393   .debug_str:0000000000000b1a .LASF59
     /tmp/ccmiawjN.s:4395   .debug_str:0000000000000b25 .LASF60
     /tmp/ccmiawjN.s:4323   .debug_str:000000000000084b .LASF61
     /tmp/ccmiawjN.s:4293   .debug_str:0000000000000789 .LASF62
     /tmp/ccmiawjN.s:4185   .debug_str:000000000000046a .LASF63
     /tmp/ccmiawjN.s:4113   .debug_str:00000000000001f8 .LASF64
GAS LISTING /tmp/ccmiawjN.s 			page 26


     /tmp/ccmiawjN.s:4139   .debug_str:00000000000002d8 .LASF65
     /tmp/ccmiawjN.s:4103   .debug_str:00000000000001a9 .LASF66
     /tmp/ccmiawjN.s:4217   .debug_str:0000000000000539 .LASF67
     /tmp/ccmiawjN.s:4311   .debug_str:0000000000000806 .LASF68
     /tmp/ccmiawjN.s:4299   .debug_str:00000000000007b2 .LASF69
     /tmp/ccmiawjN.s:4153   .debug_str:0000000000000363 .LASF70
     /tmp/ccmiawjN.s:4337   .debug_str:0000000000000958 .LASF71
     /tmp/ccmiawjN.s:4391   .debug_str:0000000000000b0e .LASF72
     /tmp/ccmiawjN.s:4227   .debug_str:0000000000000582 .LASF73
     /tmp/ccmiawjN.s:4071   .debug_str:000000000000009c .LASF74
     /tmp/ccmiawjN.s:4161   .debug_str:00000000000003a8 .LASF75
     /tmp/ccmiawjN.s:4123   .debug_str:0000000000000248 .LASF76
     /tmp/ccmiawjN.s:4403   .debug_str:0000000000000b5f .LASF77
     /tmp/ccmiawjN.s:4377   .debug_str:0000000000000a9d .LASF78
     /tmp/ccmiawjN.s:4265   .debug_str:00000000000006d0 .LASF79
     /tmp/ccmiawjN.s:4181   .debug_str:000000000000044d .LASF80
     /tmp/ccmiawjN.s:4291   .debug_str:0000000000000778 .LASF82
     /tmp/ccmiawjN.s:4401   .debug_str:0000000000000b4b .LASF183
     /tmp/ccmiawjN.s:4179   .debug_str:0000000000000431 .LASF184
     /tmp/ccmiawjN.s:4417   .debug_str:0000000000000bdf .LASF84
     /tmp/ccmiawjN.s:4089   .debug_str:0000000000000141 .LASF86
     /tmp/ccmiawjN.s:4191   .debug_str:00000000000004a6 .LASF87
     /tmp/ccmiawjN.s:4079   .debug_str:00000000000000e5 .LASF88
     /tmp/ccmiawjN.s:4343   .debug_str:0000000000000980 .LASF89
     /tmp/ccmiawjN.s:4405   .debug_str:0000000000000b67 .LASF90
     /tmp/ccmiawjN.s:4387   .debug_str:0000000000000ae7 .LASF92
     /tmp/ccmiawjN.s:4301   .debug_str:00000000000007c4 .LASF93
     /tmp/ccmiawjN.s:4203   .debug_str:00000000000004e1 .LASF94
     /tmp/ccmiawjN.s:4215   .debug_str:0000000000000534 .LASF95
     /tmp/ccmiawjN.s:4369   .debug_str:0000000000000a6e .LASF96
     /tmp/ccmiawjN.s:4251   .debug_str:0000000000000637 .LASF97
     /tmp/ccmiawjN.s:4275   .debug_str:000000000000070e .LASF185
     /tmp/ccmiawjN.s:4149   .debug_str:000000000000033d .LASF186
     /tmp/ccmiawjN.s:4267   .debug_str:00000000000006e3 .LASF98
     /tmp/ccmiawjN.s:4409   .debug_str:0000000000000b91 .LASF99
     /tmp/ccmiawjN.s:4201   .debug_str:00000000000004d9 .LASF100
     /tmp/ccmiawjN.s:4243   .debug_str:00000000000005f6 .LASF101
     /tmp/ccmiawjN.s:4237   .debug_str:00000000000005c3 .LASF102
     /tmp/ccmiawjN.s:4207   .debug_str:00000000000004eb .LASF103
     /tmp/ccmiawjN.s:4419   .debug_str:0000000000000bed .LASF104
     /tmp/ccmiawjN.s:4263   .debug_str:00000000000006b1 .LASF105
     /tmp/ccmiawjN.s:4289   .debug_str:000000000000076d .LASF106
     /tmp/ccmiawjN.s:4129   .debug_str:000000000000026e .LASF107
     /tmp/ccmiawjN.s:4255   .debug_str:0000000000000666 .LASF108
     /tmp/ccmiawjN.s:4083   .debug_str:00000000000000fd .LASF109
     /tmp/ccmiawjN.s:4353   .debug_str:00000000000009e2 .LASF110
     /tmp/ccmiawjN.s:4349   .debug_str:00000000000009a7 .LASF111
     /tmp/ccmiawjN.s:4219   .debug_str:0000000000000549 .LASF112
     /tmp/ccmiawjN.s:4365   .debug_str:0000000000000a27 .LASF113
     /tmp/ccmiawjN.s:4357   .debug_str:00000000000009fd .LASF114
     /tmp/ccmiawjN.s:4061   .debug_str:0000000000000052 .LASF115
     /tmp/ccmiawjN.s:4205   .debug_str:00000000000004e6 .LASF116
     /tmp/ccmiawjN.s:4379   .debug_str:0000000000000ab0 .LASF117
     /tmp/ccmiawjN.s:4363   .debug_str:0000000000000a18 .LASF187
     /tmp/ccmiawjN.s:4121   .debug_str:000000000000023c .LASF118
     /tmp/ccmiawjN.s:4327   .debug_str:0000000000000858 .LASF119
     /tmp/ccmiawjN.s:4095   .debug_str:000000000000016b .LASF120
GAS LISTING /tmp/ccmiawjN.s 			page 27


     /tmp/ccmiawjN.s:4151   .debug_str:0000000000000358 .LASF121
     /tmp/ccmiawjN.s:4159   .debug_str:0000000000000390 .LASF122
     /tmp/ccmiawjN.s:4355   .debug_str:00000000000009f4 .LASF123
     /tmp/ccmiawjN.s:4347   .debug_str:0000000000000992 .LASF127
     /tmp/ccmiawjN.s:4269   .debug_str:00000000000006ec .LASF124
     /tmp/ccmiawjN.s:4231   .debug_str:00000000000005a2 .LASF125
     /tmp/ccmiawjN.s:4247   .debug_str:000000000000061d .LASF126
     /tmp/ccmiawjN.s:4249   .debug_str:0000000000000624 .LASF128
     /tmp/ccmiawjN.s:4225   .debug_str:000000000000057b .LASF129
     /tmp/ccmiawjN.s:4187   .debug_str:0000000000000483 .LASF130
     /tmp/ccmiawjN.s:4389   .debug_str:0000000000000b06 .LASF131
     /tmp/ccmiawjN.s:4333   .debug_str:0000000000000934 .LASF132
     /tmp/ccmiawjN.s:4221   .debug_str:000000000000055f .LASF133
     /tmp/ccmiawjN.s:4131   .debug_str:000000000000028f .LASF134
     /tmp/ccmiawjN.s:4199   .debug_str:00000000000004d1 .LASF135
     /tmp/ccmiawjN.s:4253   .debug_str:0000000000000652 .LASF136
     /tmp/ccmiawjN.s:4415   .debug_str:0000000000000bd7 .LASF137
     /tmp/ccmiawjN.s:4169   .debug_str:00000000000003c6 .LASF138
     /tmp/ccmiawjN.s:4397   .debug_str:0000000000000b2b .LASF139
     /tmp/ccmiawjN.s:4283   .debug_str:0000000000000742 .LASF140
     /tmp/ccmiawjN.s:4285   .debug_str:0000000000000755 .LASF141
     /tmp/ccmiawjN.s:4081   .debug_str:00000000000000ea .LASF142
     /tmp/ccmiawjN.s:4107   .debug_str:00000000000001b3 .LASF143
     /tmp/ccmiawjN.s:4157   .debug_str:000000000000037e .LASF144
     /tmp/ccmiawjN.s:4167   .debug_str:00000000000003c0 .LASF145
     /tmp/ccmiawjN.s:4097   .debug_str:0000000000000177 .LASF146
     /tmp/ccmiawjN.s:4055   .debug_str:0000000000000038 .LASF147
     /tmp/ccmiawjN.s:4277   .debug_str:0000000000000718 .LASF148
     /tmp/ccmiawjN.s:4271   .debug_str:00000000000006f5 .LASF149
     /tmp/ccmiawjN.s:4411   .debug_str:0000000000000bb2 .LASF150
     /tmp/ccmiawjN.s:4383   .debug_str:0000000000000ac3 .LASF151
     /tmp/ccmiawjN.s:4085   .debug_str:000000000000011b .LASF152
     /tmp/ccmiawjN.s:4375   .debug_str:0000000000000a93 .LASF153
     /tmp/ccmiawjN.s:4211   .debug_str:0000000000000517 .LASF154
     /tmp/ccmiawjN.s:4351   .debug_str:00000000000009d3 .LASF155
     /tmp/ccmiawjN.s:4145   .debug_str:0000000000000313 .LASF156
     /tmp/ccmiawjN.s:4261   .debug_str:000000000000069c .LASF157
     /tmp/ccmiawjN.s:4117   .debug_str:0000000000000214 .LASF158
     /tmp/ccmiawjN.s:4335   .debug_str:0000000000000948 .LASF159
     /tmp/ccmiawjN.s:4133   .debug_str:00000000000002a3 .LASF161
     /tmp/ccmiawjN.s:4165   .debug_str:00000000000003bb .LASF160
     /tmp/ccmiawjN.s:4043   .debug_str:0000000000000000 .LASF162
     /tmp/ccmiawjN.s:4171   .debug_str:00000000000003da .LASF163
     /tmp/ccmiawjN.s:4099   .debug_str:0000000000000189 .LASF171
     /tmp/ccmiawjN.s:612    .text:0000000000000318 .LFB55
     /tmp/ccmiawjN.s:633    .text:0000000000000334 .LFE55
     /tmp/ccmiawjN.s:3614   .debug_loc:0000000000000000 .LLST27
     /tmp/ccmiawjN.s:549    .text:00000000000002b8 .LFB54
     /tmp/ccmiawjN.s:606    .text:0000000000000318 .LFE54
     /tmp/ccmiawjN.s:3627   .debug_loc:0000000000000038 .LLST26
     /tmp/ccmiawjN.s:567    .text:00000000000002d8 .LVL56
     /tmp/ccmiawjN.s:580    .text:00000000000002f0 .LVL57
     /tmp/ccmiawjN.s:603    .text:0000000000000314 .LVL60
     /tmp/ccmiawjN.s:484    .text:0000000000000254 .LFB53
     /tmp/ccmiawjN.s:543    .text:00000000000002b8 .LFE53
     /tmp/ccmiawjN.s:3649   .debug_loc:0000000000000097 .LLST25
     /tmp/ccmiawjN.s:502    .text:0000000000000274 .LVL50
GAS LISTING /tmp/ccmiawjN.s 			page 28


     /tmp/ccmiawjN.s:517    .text:0000000000000290 .LVL51
     /tmp/ccmiawjN.s:540    .text:00000000000002b4 .LVL54
     /tmp/ccmiawjN.s:398    .text:00000000000001e0 .LFB52
     /tmp/ccmiawjN.s:478    .text:0000000000000254 .LFE52
     /tmp/ccmiawjN.s:3671   .debug_loc:00000000000000f6 .LLST20
     /tmp/ccmiawjN.s:3693   .debug_loc:0000000000000155 .LLST21
     /tmp/ccmiawjN.s:415    .text:00000000000001f8 .LBB43
     /tmp/ccmiawjN.s:4027   .debug_ranges:0000000000000000 .Ldebug_ranges0
     /tmp/ccmiawjN.s:3700   .debug_loc:0000000000000178 .LLST22
     /tmp/ccmiawjN.s:3730   .debug_loc:00000000000001df .LLST23
     /tmp/ccmiawjN.s:3741   .debug_loc:0000000000000215 .LLST24
     /tmp/ccmiawjN.s:435    .text:0000000000000218 .LVL43
     /tmp/ccmiawjN.s:443    .text:0000000000000224 .LVL44
     /tmp/ccmiawjN.s:448    .text:0000000000000230 .LVL45
     /tmp/ccmiawjN.s:356    .text:00000000000001a0 .LFB51
     /tmp/ccmiawjN.s:392    .text:00000000000001e0 .LFE51
     /tmp/ccmiawjN.s:3748   .debug_loc:0000000000000238 .LLST19
     /tmp/ccmiawjN.s:381    .text:00000000000001d0 .LVL37
     /tmp/ccmiawjN.s:4051   .debug_str:0000000000000027 .LASF164
     /tmp/ccmiawjN.s:4341   .debug_str:0000000000000973 .LASF188
     /tmp/ccmiawjN.s:165    .text:00000000000000a4 .LFB49
     /tmp/ccmiawjN.s:340    .text:00000000000001a0 .LFE49
     /tmp/ccmiawjN.s:3762   .debug_loc:0000000000000271 .LLST7
     /tmp/ccmiawjN.s:190    .text:00000000000000cc .LVL13
     /tmp/ccmiawjN.s:279    .text:0000000000000150 .LVL26
     /tmp/ccmiawjN.s:320    .text:0000000000000184 .LVL33
     /tmp/ccmiawjN.s:186    .text:00000000000000c4 .LBB34
     /tmp/ccmiawjN.s:321    .text:0000000000000184 .LBE34
     /tmp/ccmiawjN.s:3780   .debug_loc:00000000000002bd .LLST8
     /tmp/ccmiawjN.s:196    .text:00000000000000d0 .LBB35
     /tmp/ccmiawjN.s:249    .text:0000000000000120 .LBE35
     /tmp/ccmiawjN.s:3795   .debug_loc:0000000000000306 .LLST9
     /tmp/ccmiawjN.s:3806   .debug_loc:000000000000033c .LLST10
     /tmp/ccmiawjN.s:3825   .debug_loc:0000000000000398 .LLST11
     /tmp/ccmiawjN.s:3836   .debug_loc:00000000000003ce .LLST12
     /tmp/ccmiawjN.s:206    .text:00000000000000dc .LBB37
     /tmp/ccmiawjN.s:222    .text:00000000000000f4 .LBE37
     /tmp/ccmiawjN.s:3843   .debug_loc:00000000000003f1 .LLST13
     /tmp/ccmiawjN.s:239    .text:0000000000000114 .LVL20
     /tmp/ccmiawjN.s:250    .text:0000000000000120 .LBB38
     /tmp/ccmiawjN.s:3863   .debug_loc:000000000000044e .LLST14
     /tmp/ccmiawjN.s:3874   .debug_loc:0000000000000484 .LLST15
     /tmp/ccmiawjN.s:3893   .debug_loc:00000000000004e0 .LLST16
     /tmp/ccmiawjN.s:3904   .debug_loc:0000000000000516 .LLST17
     /tmp/ccmiawjN.s:292    .text:000000000000015c .LBB40
     /tmp/ccmiawjN.s:309    .text:0000000000000174 .LBE40
     /tmp/ccmiawjN.s:3911   .debug_loc:0000000000000539 .LLST18
     /tmp/ccmiawjN.s:268    .text:0000000000000140 .LVL25
     /tmp/ccmiawjN.s:88     .text:0000000000000040 .LFB47
     /tmp/ccmiawjN.s:159    .text:00000000000000a4 .LFE47
     /tmp/ccmiawjN.s:4213   .debug_str:000000000000052d .LASF165
     /tmp/ccmiawjN.s:3931   .debug_loc:0000000000000596 .LLST2
     /tmp/ccmiawjN.s:4065   .debug_str:000000000000007d .LASF166
     /tmp/ccmiawjN.s:3953   .debug_loc:00000000000005f5 .LLST3
     /tmp/ccmiawjN.s:112    .text:000000000000006c .LBB22
     /tmp/ccmiawjN.s:128    .text:0000000000000078 .LBE22
     /tmp/ccmiawjN.s:3975   .debug_loc:0000000000000654 .LLST4
GAS LISTING /tmp/ccmiawjN.s 			page 29


     /tmp/ccmiawjN.s:3982   .debug_loc:0000000000000677 .LLST5
     /tmp/ccmiawjN.s:118    .text:0000000000000070 .LBB24
     /tmp/ccmiawjN.s:126    .text:0000000000000078 .LBE24
     /tmp/ccmiawjN.s:3989   .debug_loc:000000000000069a .LLST6
     /tmp/ccmiawjN.s:111    .text:000000000000006c .LVL6
     /tmp/ccmiawjN.s:4135   .debug_str:00000000000002a8 .LASF167
     /tmp/ccmiawjN.s:4331   .debug_str:0000000000000929 .LASF168
     /tmp/ccmiawjN.s:50     .text:0000000000000020 .LFB46
     /tmp/ccmiawjN.s:82     .text:0000000000000040 .LFE46
     /tmp/ccmiawjN.s:61     .text:000000000000002c .LBB20
     /tmp/ccmiawjN.s:73     .text:0000000000000034 .LBE20
     /tmp/ccmiawjN.s:3998   .debug_loc:00000000000006bf .LLST1
     /tmp/ccmiawjN.s:4105   .debug_str:00000000000001ae .LASF169
     /tmp/ccmiawjN.s:4057   .debug_str:0000000000000043 .LASF170
     /tmp/ccmiawjN.s:10     .text:0000000000000000 .LFB45
     /tmp/ccmiawjN.s:44     .text:0000000000000020 .LFE45
     /tmp/ccmiawjN.s:22     .text:000000000000000c .LBB18
     /tmp/ccmiawjN.s:35     .text:0000000000000014 .LBE18
     /tmp/ccmiawjN.s:4006   .debug_loc:00000000000006e3 .LLST0
     /tmp/ccmiawjN.s:4381   .debug_str:0000000000000ab6 .LASF172
     /tmp/ccmiawjN.s:4371   .debug_str:0000000000000a85 .LASF173
     /tmp/ccmiawjN.s:4233   .debug_str:00000000000005b7 .LASF174
     /tmp/ccmiawjN.s:4047   .debug_str:000000000000000a .LASF176
     /tmp/ccmiawjN.s:4125   .debug_str:0000000000000259 .LASF175
     /tmp/ccmiawjN.s:4413   .debug_str:0000000000000bca .LASF177
     /tmp/ccmiawjN.s:615    .text:0000000000000318 .LVL61
     /tmp/ccmiawjN.s:625    .text:0000000000000328 .LVL62
     /tmp/ccmiawjN.s:552    .text:00000000000002b8 .LVL55
     /tmp/ccmiawjN.s:592    .text:0000000000000300 .LVL58
     /tmp/ccmiawjN.s:596    .text:0000000000000308 .LVL59
     /tmp/ccmiawjN.s:487    .text:0000000000000254 .LVL49
     /tmp/ccmiawjN.s:529    .text:00000000000002a0 .LVL52
     /tmp/ccmiawjN.s:533    .text:00000000000002a8 .LVL53
     /tmp/ccmiawjN.s:401    .text:00000000000001e0 .LVL38
     /tmp/ccmiawjN.s:419    .text:00000000000001fc .LVL40
     /tmp/ccmiawjN.s:462    .text:0000000000000244 .LVL47
     /tmp/ccmiawjN.s:458    .text:000000000000023c .LVL46
     /tmp/ccmiawjN.s:414    .text:00000000000001f8 .LVL39
     /tmp/ccmiawjN.s:422    .text:0000000000000200 .LVL41
     /tmp/ccmiawjN.s:470    .text:000000000000024c .LVL48
     /tmp/ccmiawjN.s:432    .text:0000000000000210 .LVL42
     /tmp/ccmiawjN.s:359    .text:00000000000001a0 .LVL36
     /tmp/ccmiawjN.s:170    .text:00000000000000a4 .LVL12
     /tmp/ccmiawjN.s:335    .text:0000000000000198 .LVL35
     /tmp/ccmiawjN.s:241    .text:0000000000000118 .LVL21
     /tmp/ccmiawjN.s:285    .text:0000000000000154 .LVL27
     /tmp/ccmiawjN.s:313    .text:000000000000017c .LVL32
     /tmp/ccmiawjN.s:330    .text:0000000000000190 .LVL34
     /tmp/ccmiawjN.s:195    .text:00000000000000d0 .LVL14
     /tmp/ccmiawjN.s:246    .text:0000000000000120 .LVL22
     /tmp/ccmiawjN.s:205    .text:00000000000000dc .LVL15
     /tmp/ccmiawjN.s:213    .text:00000000000000e8 .LVL16
     /tmp/ccmiawjN.s:219    .text:00000000000000f0 .LVL17
     /tmp/ccmiawjN.s:225    .text:00000000000000f8 .LVL18
     /tmp/ccmiawjN.s:235    .text:0000000000000108 .LVL19
     /tmp/ccmiawjN.s:291    .text:000000000000015c .LVL28
     /tmp/ccmiawjN.s:299    .text:0000000000000168 .LVL29
GAS LISTING /tmp/ccmiawjN.s 			page 30


     /tmp/ccmiawjN.s:305    .text:0000000000000170 .LVL30
     /tmp/ccmiawjN.s:254    .text:0000000000000124 .LVL23
     /tmp/ccmiawjN.s:307    .text:0000000000000174 .LVL31
     /tmp/ccmiawjN.s:264    .text:0000000000000134 .LVL24
     /tmp/ccmiawjN.s:91     .text:0000000000000040 .LVL4
     /tmp/ccmiawjN.s:109    .text:0000000000000064 .LVL5
     /tmp/ccmiawjN.s:145    .text:0000000000000090 .LVL9
     /tmp/ccmiawjN.s:152    .text:000000000000009c .LVL11
     /tmp/ccmiawjN.s:148    .text:0000000000000094 .LVL10
     /tmp/ccmiawjN.s:124    .text:0000000000000078 .LVL8
     /tmp/ccmiawjN.s:117    .text:0000000000000070 .LVL7
     /tmp/ccmiawjN.s:60     .text:000000000000002c .LVL2
     /tmp/ccmiawjN.s:70     .text:0000000000000034 .LVL3
     /tmp/ccmiawjN.s:21     .text:000000000000000c .LVL0
     /tmp/ccmiawjN.s:32     .text:0000000000000014 .LVL1
     /tmp/ccmiawjN.s:641    .debug_info:0000000000000000 .Ldebug_info0
     /tmp/ccmiawjN.s:271    .text:0000000000000140 .LBE38
     /tmp/ccmiawjN.s:281    .text:0000000000000150 .LBB42
     /tmp/ccmiawjN.s:316    .text:000000000000017c .LBE42
     /tmp/ccmiawjN.s:438    .text:0000000000000218 .LBE43
     /tmp/ccmiawjN.s:465    .text:0000000000000244 .LBB46
     /tmp/ccmiawjN.s:476    .text:0000000000000254 .LBE46
     /tmp/ccmiawjN.s:343    .gcc_except_table:0000000000000000 .LLSDA49

UNDEFINED SYMBOLS
_Znwm
_ZdlPv
_ZN9Scheduler3putEP7_thread
__gxx_personality_v0
_ZN7_thread7runningE
_ZN7_thread8dispatchEv
_ZN7_thread5dblckEv
