GAS LISTING /tmp/ccq7xSNH.s 			page 1


   1              		.file	"_sem.cpp"
   2              		.option pic
   3              		.option norelax
   4              		.text
   5              	.Ltext0:
   6              		.align	2
   7              		.globl	_ZN4_sem9createSemEPPS_m
   9              	_ZN4_sem9createSemEPPS_m:
  10              	.LFB31:
  11              		.file 1 "src/_sem.cpp"
   1:src/_sem.cpp  **** //
   2:src/_sem.cpp  **** // Created by os on 8/30/22.
   3:src/_sem.cpp  **** //
   4:src/_sem.cpp  **** 
   5:src/_sem.cpp  **** #include "../h/_sem.hpp"
   6:src/_sem.cpp  **** 
   7:src/_sem.cpp  **** //void lock(){
   8:src/_sem.cpp  **** //    Riscv::mc_sstatus(Riscv::SSTATUS_SIE);
   9:src/_sem.cpp  **** //}
  10:src/_sem.cpp  **** //void unlock(){
  11:src/_sem.cpp  **** //    Riscv::ms_sstatus(Riscv::SSTATUS_SIE);
  12:src/_sem.cpp  **** //}
  13:src/_sem.cpp  **** 
  14:src/_sem.cpp  **** int _sem::createSem(sem_t *handle, uint64 init){
  12              		.loc 1 14 48
  13              		.cfi_startproc
  14              	.LVL0:
  15 0000 130101FE 		addi	sp,sp,-32
  16              		.cfi_def_cfa_offset 32
  17 0004 233C1100 		sd	ra,24(sp)
  18 0008 23388100 		sd	s0,16(sp)
  19 000c 23349100 		sd	s1,8(sp)
  20 0010 23302101 		sd	s2,0(sp)
  21              		.cfi_offset 1, -8
  22              		.cfi_offset 8, -16
  23              		.cfi_offset 9, -24
  24              		.cfi_offset 18, -32
  25 0014 13040102 		addi	s0,sp,32
  26              		.cfi_def_cfa 8, 0
  27 0018 93040500 		mv	s1,a0
  28 001c 13890500 		mv	s2,a1
  15:src/_sem.cpp  ****     *handle = new _sem(init);
  29              		.loc 1 15 5
  30              		.loc 1 15 28 is_stmt 0
  31 0020 13050002 		li	a0,32
  32              	.LVL1:
  33 0024 97000000 		call	_Znwm@plt
  33      E7800000 
  34              	.LVL2:
  35              	.LBB14:
  36              	.LBB15:
  37              		.file 2 "src/../h/_sem.hpp"
   1:src/../h/_sem.hpp **** //
   2:src/../h/_sem.hpp **** // Created by os on 8/30/22.
   3:src/../h/_sem.hpp **** //
   4:src/../h/_sem.hpp **** 
   5:src/../h/_sem.hpp **** #ifndef PROJECT_BASE__SEM_HPP
GAS LISTING /tmp/ccq7xSNH.s 			page 2


   6:src/../h/_sem.hpp **** #define PROJECT_BASE__SEM_HPP
   7:src/../h/_sem.hpp **** 
   8:src/../h/_sem.hpp **** #include "list.hpp"
   9:src/../h/_sem.hpp **** #include "tcb.hpp"
  10:src/../h/_sem.hpp **** //#include "syscall_c.h"
  11:src/../h/_sem.hpp **** #include "scheduler.hpp"
  12:src/../h/_sem.hpp **** 
  13:src/../h/_sem.hpp **** 
  14:src/../h/_sem.hpp **** class _sem{
  15:src/../h/_sem.hpp **** 
  16:src/../h/_sem.hpp **** public:
  17:src/../h/_sem.hpp ****     static int createSem(sem_t*, uint64);
  18:src/../h/_sem.hpp ****     ~_sem();
  19:src/../h/_sem.hpp **** 
  20:src/../h/_sem.hpp ****     int wait();
  21:src/../h/_sem.hpp ****     int signal();
  22:src/../h/_sem.hpp **** 
  23:src/../h/_sem.hpp ****     int value(){
  24:src/../h/_sem.hpp ****         return val;
  25:src/../h/_sem.hpp ****     }
  26:src/../h/_sem.hpp ****     friend class _thread;
  27:src/../h/_sem.hpp ****     List<_thread>& blockedList();
  28:src/../h/_sem.hpp **** 
  29:src/../h/_sem.hpp **** 
  30:src/../h/_sem.hpp ****     _sem(int val=1) : val(val) {}
  38              		.loc 2 30 30
  39 002c 23202501 		sw	s2,0(a0)
  40              	.LVL3:
  41              	.LBB16:
  42              	.LBB17:
  43              		.file 3 "src/../h/list.hpp"
   1:src/../h/list.hpp **** //
   2:src/../h/list.hpp **** // Created by marko on 20.4.22..
   3:src/../h/list.hpp **** //
   4:src/../h/list.hpp **** 
   5:src/../h/list.hpp **** #ifndef OS1_VEZBE07_RISCV_CONTEXT_SWITCH_2_INTERRUPT_LIST_HPP
   6:src/../h/list.hpp **** #define OS1_VEZBE07_RISCV_CONTEXT_SWITCH_2_INTERRUPT_LIST_HPP
   7:src/../h/list.hpp **** 
   8:src/../h/list.hpp **** //#include "riscv.hpp"
   9:src/../h/list.hpp **** 
  10:src/../h/list.hpp **** //class Scheduler;
  11:src/../h/list.hpp **** template<typename T>
  12:src/../h/list.hpp **** class List
  13:src/../h/list.hpp **** {
  14:src/../h/list.hpp **** private:
  15:src/../h/list.hpp ****     struct Elem
  16:src/../h/list.hpp ****     {
  17:src/../h/list.hpp ****         T *data;
  18:src/../h/list.hpp ****         Elem *next;
  19:src/../h/list.hpp ****         int sleepTime;
  20:src/../h/list.hpp ****         Elem(T *data, Elem *next, int sleepTime = 0) : data(data), next(next), sleepTime(sleepTime)
  21:src/../h/list.hpp ****         Elem(T *data) : data(data), next(nullptr), sleepTime(0) {}
  22:src/../h/list.hpp ****     };
  23:src/../h/list.hpp **** 
  24:src/../h/list.hpp ****     Elem *head, *tail, *pom = nullptr;
  25:src/../h/list.hpp **** 
  26:src/../h/list.hpp **** public:
GAS LISTING /tmp/ccq7xSNH.s 			page 3


  27:src/../h/list.hpp ****     List() : head(0), tail(0) {}
  44              		.loc 3 27 29
  45 0030 23340500 		sd	zero,8(a0)
  46 0034 23380500 		sd	zero,16(a0)
  47 0038 233C0500 		sd	zero,24(a0)
  48              	.LVL4:
  49              	.LBE17:
  50              	.LBE16:
  51              	.LBE15:
  52              	.LBE14:
  53              		.loc 1 15 13
  54 003c 23B0A400 		sd	a0,0(s1)
  16:src/_sem.cpp  ****     if(*handle  != nullptr)
  55              		.loc 1 16 5 is_stmt 1
  56 0040 63000502 		beqz	a0,.L3
  17:src/_sem.cpp  ****         return 0;
  57              		.loc 1 17 16 is_stmt 0
  58 0044 13050000 		li	a0,0
  59              	.L2:
  18:src/_sem.cpp  ****     else
  19:src/_sem.cpp  ****         return -2;
  20:src/_sem.cpp  **** }
  60              		.loc 1 20 1
  61 0048 83308101 		ld	ra,24(sp)
  62              		.cfi_remember_state
  63              		.cfi_restore 1
  64 004c 03340101 		ld	s0,16(sp)
  65              		.cfi_restore 8
  66              		.cfi_def_cfa 2, 32
  67 0050 83348100 		ld	s1,8(sp)
  68              		.cfi_restore 9
  69              	.LVL5:
  70 0054 03390100 		ld	s2,0(sp)
  71              		.cfi_restore 18
  72              	.LVL6:
  73 0058 13010102 		addi	sp,sp,32
  74              		.cfi_def_cfa_offset 0
  75 005c 67800000 		jr	ra
  76              	.LVL7:
  77              	.L3:
  78              		.cfi_restore_state
  19:src/_sem.cpp  **** }
  79              		.loc 1 19 17
  80 0060 1305E0FF 		li	a0,-2
  81 0064 6FF05FFE 		j	.L2
  82              		.cfi_endproc
  83              	.LFE31:
  85              		.align	2
  86              		.globl	_ZN4_semD2Ev
  88              	_ZN4_semD2Ev:
  89              	.LFB33:
  21:src/_sem.cpp  **** 
  22:src/_sem.cpp  **** _sem::~_sem() {
  90              		.loc 1 22 1 is_stmt 1
  91              		.cfi_startproc
  92              		.cfi_personality 0x9b,DW.ref.__gxx_personality_v0
  93              		.cfi_lsda 0x1b,.LLSDA33
GAS LISTING /tmp/ccq7xSNH.s 			page 4


  94              	.LVL8:
  95 0068 130101FE 		addi	sp,sp,-32
  96              		.cfi_def_cfa_offset 32
  97 006c 233C1100 		sd	ra,24(sp)
  98 0070 23388100 		sd	s0,16(sp)
  99 0074 23349100 		sd	s1,8(sp)
 100 0078 23302101 		sd	s2,0(sp)
 101              		.cfi_offset 1, -8
 102              		.cfi_offset 8, -16
 103              		.cfi_offset 9, -24
 104              		.cfi_offset 18, -32
 105 007c 13040102 		addi	s0,sp,32
 106              		.cfi_def_cfa 8, 0
 107              	.LBB26:
  23:src/_sem.cpp  **** //    lock();
  24:src/_sem.cpp  ****     _thread *t;
 108              		.loc 1 24 5
  25:src/_sem.cpp  ****     t = blockedThreadQueue.removeLast();
 109              		.loc 1 25 5
 110              		.loc 1 25 38 is_stmt 0
 111 0080 13098500 		addi	s2,a0,8
 112              	.LVL9:
 113              	.LBB27:
 114              	.LBB28:
  28:src/../h/list.hpp **** 
  29:src/../h/list.hpp ****     List(const List<T> &) = delete;
  30:src/../h/list.hpp **** 
  31:src/../h/list.hpp ****     List<T> &operator=(const List<T> &) = delete;
  32:src/../h/list.hpp **** 
  33:src/../h/list.hpp ****     T* traverseList(){
  34:src/../h/list.hpp ****         if(pom == nullptr){
  35:src/../h/list.hpp ****             pom = head;
  36:src/../h/list.hpp ****         }
  37:src/../h/list.hpp ****         Elem *t = pom;
  38:src/../h/list.hpp ****         pom = pom->next;
  39:src/../h/list.hpp **** 
  40:src/../h/list.hpp ****         return t->data;
  41:src/../h/list.hpp ****     }
  42:src/../h/list.hpp **** 
  43:src/../h/list.hpp ****     void addFirst(T *data)
  44:src/../h/list.hpp ****     {
  45:src/../h/list.hpp ****         Elem *elem = new Elem(data, head);
  46:src/../h/list.hpp ****         head = elem;
  47:src/../h/list.hpp ****         if (!tail) { tail = head; }
  48:src/../h/list.hpp ****     }
  49:src/../h/list.hpp **** 
  50:src/../h/list.hpp ****     void addLast(T *data)
  51:src/../h/list.hpp ****     {
  52:src/../h/list.hpp ****         Elem *elem = new Elem(data, 0);
  53:src/../h/list.hpp ****         if (tail)
  54:src/../h/list.hpp ****         {
  55:src/../h/list.hpp ****             tail->next = elem;
  56:src/../h/list.hpp ****             tail = elem;
  57:src/../h/list.hpp ****         } else
  58:src/../h/list.hpp ****         {
  59:src/../h/list.hpp ****             head = tail = elem;
  60:src/../h/list.hpp ****         }
GAS LISTING /tmp/ccq7xSNH.s 			page 5


  61:src/../h/list.hpp ****     }
  62:src/../h/list.hpp **** 
  63:src/../h/list.hpp ****     T *removeFirst()
  64:src/../h/list.hpp ****     {
  65:src/../h/list.hpp ****         if (!head) { return 0; }
  66:src/../h/list.hpp **** 
  67:src/../h/list.hpp ****         Elem *elem = head;
  68:src/../h/list.hpp ****         head = head->next;
  69:src/../h/list.hpp ****         if (!head) { tail = 0; }
  70:src/../h/list.hpp **** 
  71:src/../h/list.hpp ****         T *ret = elem->data;
  72:src/../h/list.hpp ****         delete elem;
  73:src/../h/list.hpp ****         return ret;
  74:src/../h/list.hpp ****     }
  75:src/../h/list.hpp **** 
  76:src/../h/list.hpp ****     T *peekFirst()
  77:src/../h/list.hpp ****     {
  78:src/../h/list.hpp ****         if (!head) { return 0; }
  79:src/../h/list.hpp ****         return head->data;
  80:src/../h/list.hpp ****     }
  81:src/../h/list.hpp **** 
  82:src/../h/list.hpp ****     T *removeLast()
  83:src/../h/list.hpp ****     {
  84:src/../h/list.hpp ****         if (!head) { return 0; }
 115              		.loc 3 84 14
 116 0084 83348500 		ld	s1,8(a0)
 117              		.loc 3 84 9
 118 0088 63880406 		beqz	s1,.L17
 119 008c 93060500 		mv	a3,a0
  85:src/../h/list.hpp **** 
  86:src/../h/list.hpp ****         Elem *prev = 0;
 120              		.loc 3 86 15
 121 0090 13070000 		li	a4,0
 122              	.L8:
 123              	.LVL10:
 124              	.LBB29:
  87:src/../h/list.hpp ****         for (Elem *curr = head; curr && curr != tail; curr = curr->next)
 125              		.loc 3 87 38 is_stmt 1
 126 0094 638C0400 		beqz	s1,.L7
 127              		.loc 3 87 49 is_stmt 0
 128 0098 83378900 		ld	a5,8(s2)
 129              		.loc 3 87 38
 130 009c 6388F400 		beq	s1,a5,.L7
 131              	.LVL11:
 132              		.loc 3 87 9 is_stmt 1
  88:src/../h/list.hpp ****         {
  89:src/../h/list.hpp ****             prev = curr;
 133              		.loc 3 89 13 is_stmt 0
 134 00a0 13870400 		mv	a4,s1
  87:src/../h/list.hpp ****         for (Elem *curr = head; curr && curr != tail; curr = curr->next)
 135              		.loc 3 87 9
 136 00a4 83B48400 		ld	s1,8(s1)
 137              	.LVL12:
 138 00a8 6FF0DFFE 		j	.L8
 139              	.L7:
 140              	.LBE29:
  90:src/../h/list.hpp ****         }
GAS LISTING /tmp/ccq7xSNH.s 			page 6


  91:src/../h/list.hpp **** 
  92:src/../h/list.hpp ****         Elem *elem = tail;
 141              		.loc 3 92 15
 142 00ac 03358900 		ld	a0,8(s2)
 143              	.LVL13:
  93:src/../h/list.hpp ****         if (prev) { prev->next = 0; }
 144              		.loc 3 93 9
 145 00b0 63000702 		beqz	a4,.L9
 146              		.loc 3 93 21
 147 00b4 23340700 		sd	zero,8(a4)
 148              	.L10:
  94:src/../h/list.hpp ****         else { head = 0; }
  95:src/../h/list.hpp ****         tail = prev;
 149              		.loc 3 95 9
 150 00b8 2334E900 		sd	a4,8(s2)
  96:src/../h/list.hpp **** 
  97:src/../h/list.hpp ****         T *ret = elem->data;
 151              		.loc 3 97 12
 152 00bc 83340500 		ld	s1,0(a0)
 153              	.LVL14:
  98:src/../h/list.hpp ****         delete elem;
 154              		.loc 3 98 9
 155 00c0 630C0502 		beqz	a0,.L17
 156 00c4 97000000 		call	_ZdlPv@plt
 156      E7800000 
 157              	.LVL15:
 158 00cc 6F00C002 		j	.L17
 159              	.LVL16:
 160              	.L9:
  94:src/../h/list.hpp ****         else { head = 0; }
 161              		.loc 3 94 16
 162 00d0 23B40600 		sd	zero,8(a3)
 163 00d4 6FF05FFE 		j	.L10
 164              	.LVL17:
 165              	.L13:
 166              	.LBE28:
 167              	.LBE27:
 168              	.LBB30:
 169              	.LBB31:
  92:src/../h/list.hpp ****         if (prev) { prev->next = 0; }
 170              		.loc 3 92 15
 171 00d8 03358900 		ld	a0,8(s2)
 172              	.LVL18:
  93:src/../h/list.hpp ****         else { head = 0; }
 173              		.loc 3 93 9
 174 00dc 63880704 		beqz	a5,.L15
  93:src/../h/list.hpp ****         else { head = 0; }
 175              		.loc 3 93 21
 176 00e0 23B40700 		sd	zero,8(a5)
 177              	.L16:
  95:src/../h/list.hpp **** 
 178              		.loc 3 95 9
 179 00e4 2334F900 		sd	a5,8(s2)
  97:src/../h/list.hpp ****         delete elem;
 180              		.loc 3 97 12
 181 00e8 83340500 		ld	s1,0(a0)
 182              	.LVL19:
GAS LISTING /tmp/ccq7xSNH.s 			page 7


 183              		.loc 3 98 9
 184 00ec 63060500 		beqz	a0,.L17
 185 00f0 97000000 		call	_ZdlPv@plt
 185      E7800000 
 186              	.LVL20:
 187              	.L17:
 188              	.LBE31:
 189              	.LBE30:
  26:src/_sem.cpp  ****     while(t){
 190              		.loc 1 26 5 is_stmt 1
 191              		.loc 1 26 11
 192 00f8 638E0402 		beqz	s1,.L5
  27:src/_sem.cpp  ****         Scheduler::put(t);
 193              		.loc 1 27 9
 194              		.loc 1 27 23 is_stmt 0
 195 00fc 13850400 		mv	a0,s1
 196 0100 97000000 		call	_ZN9Scheduler3putEP7_thread@plt
 196      E7800000 
 197              	.LVL21:
  28:src/_sem.cpp  ****         t = blockedThreadQueue.removeLast();
 198              		.loc 1 28 9 is_stmt 1
 199              	.LBB34:
 200              	.LBB33:
  84:src/../h/list.hpp **** 
 201              		.loc 3 84 14 is_stmt 0
 202 0108 83340900 		ld	s1,0(s2)
 203              	.LVL22:
  84:src/../h/list.hpp **** 
 204              		.loc 3 84 9
 205 010c E38604FE 		beqz	s1,.L17
  86:src/../h/list.hpp ****         for (Elem *curr = head; curr && curr != tail; curr = curr->next)
 206              		.loc 3 86 15
 207 0110 93070000 		li	a5,0
 208              	.L14:
 209              	.LVL23:
 210              	.LBB32:
  87:src/../h/list.hpp ****         {
 211              		.loc 3 87 38 is_stmt 1
 212 0114 E38204FC 		beqz	s1,.L13
  87:src/../h/list.hpp ****         {
 213              		.loc 3 87 49 is_stmt 0
 214 0118 03378900 		ld	a4,8(s2)
  87:src/../h/list.hpp ****         {
 215              		.loc 3 87 38
 216 011c E38EE4FA 		beq	s1,a4,.L13
 217              	.LVL24:
  87:src/../h/list.hpp ****         {
 218              		.loc 3 87 9 is_stmt 1
  89:src/../h/list.hpp ****         }
 219              		.loc 3 89 13 is_stmt 0
 220 0120 93870400 		mv	a5,s1
  87:src/../h/list.hpp ****         {
 221              		.loc 3 87 9
 222 0124 83B48400 		ld	s1,8(s1)
 223              	.LVL25:
 224 0128 6FF0DFFE 		j	.L14
 225              	.LVL26:
GAS LISTING /tmp/ccq7xSNH.s 			page 8


 226              	.L15:
 227              	.LBE32:
  94:src/../h/list.hpp ****         tail = prev;
 228              		.loc 3 94 16
 229 012c 23300900 		sd	zero,0(s2)
 230 0130 6FF05FFB 		j	.L16
 231              	.LVL27:
 232              	.L5:
 233              	.LBE33:
 234              	.LBE34:
 235              	.LBE26:
  29:src/_sem.cpp  ****     }
  30:src/_sem.cpp  **** //    unlock();
  31:src/_sem.cpp  **** }
 236              		.loc 1 31 1
 237 0134 83308101 		ld	ra,24(sp)
 238              		.cfi_restore 1
 239 0138 03340101 		ld	s0,16(sp)
 240              		.cfi_restore 8
 241              		.cfi_def_cfa 2, 32
 242 013c 83348100 		ld	s1,8(sp)
 243              		.cfi_restore 9
 244              	.LVL28:
 245 0140 03390100 		ld	s2,0(sp)
 246              		.cfi_restore 18
 247              	.LVL29:
 248 0144 13010102 		addi	sp,sp,32
 249              		.cfi_def_cfa_offset 0
 250 0148 67800000 		jr	ra
 251              		.cfi_endproc
 252              	.LFE33:
 253              		.globl	__gxx_personality_v0
 254              		.section	.gcc_except_table,"a",@progbits
 255              	.LLSDA33:
 256 0000 FF       		.byte	0xff
 257 0001 FF       		.byte	0xff
 258 0002 03       		.byte	0x3
 259 0003 00       		.byte	0
 260              		.text
 262              		.globl	_ZN4_semD1Ev
 263              		.set	_ZN4_semD1Ev,_ZN4_semD2Ev
 264              		.align	2
 265              		.globl	_ZN4_sem5blockEv
 267              	_ZN4_sem5blockEv:
 268              	.LFB35:
  32:src/_sem.cpp  **** 
  33:src/_sem.cpp  **** void _sem::block() {
 269              		.loc 1 33 20 is_stmt 1
 270              		.cfi_startproc
 271              	.LVL30:
 272 014c 130101FF 		addi	sp,sp,-16
 273              		.cfi_def_cfa_offset 16
 274 0150 23341100 		sd	ra,8(sp)
 275 0154 23308100 		sd	s0,0(sp)
 276              		.cfi_offset 1, -8
 277              		.cfi_offset 8, -16
 278 0158 13040101 		addi	s0,sp,16
GAS LISTING /tmp/ccq7xSNH.s 			page 9


 279              		.cfi_def_cfa 8, 0
  34:src/_sem.cpp  **** 
  35:src/_sem.cpp  ****     _thread::running->blocked  = true;
 280              		.loc 1 35 5
 281              		.loc 1 35 23 is_stmt 0
 282 015c 97070000 		la	a5,_ZN7_thread7runningE
 282      83B70700 
 283 0164 83B70700 		ld	a5,0(a5)
 284              		.loc 1 35 32
 285 0168 13071000 		li	a4,1
 286 016c 238CE702 		sb	a4,56(a5)
  36:src/_sem.cpp  ****     _thread::running->blockedBy = this;
 287              		.loc 1 36 5 is_stmt 1
 288              		.loc 1 36 33 is_stmt 0
 289 0170 23B0A704 		sd	a0,64(a5)
  37:src/_sem.cpp  ****     _thread::dispatch();
 290              		.loc 1 37 5 is_stmt 1
 291              		.loc 1 37 22 is_stmt 0
 292 0174 97000000 		call	_ZN7_thread8dispatchEv@plt
 292      E7800000 
 293              	.LVL31:
  38:src/_sem.cpp  ****     //pozvace se zamena konteksta, ako je blocked = true u dispach()-u ce se ubaciti nit u blocked 
  39:src/_sem.cpp  **** }
 294              		.loc 1 39 1
 295 017c 83308100 		ld	ra,8(sp)
 296              		.cfi_restore 1
 297 0180 03340100 		ld	s0,0(sp)
 298              		.cfi_restore 8
 299              		.cfi_def_cfa 2, 16
 300 0184 13010101 		addi	sp,sp,16
 301              		.cfi_def_cfa_offset 0
 302 0188 67800000 		jr	ra
 303              		.cfi_endproc
 304              	.LFE35:
 306              		.align	2
 307              		.globl	_ZN4_sem7deblockEv
 309              	_ZN4_sem7deblockEv:
 310              	.LFB36:
  40:src/_sem.cpp  **** 
  41:src/_sem.cpp  **** void _sem::deblock(){
 311              		.loc 1 41 21 is_stmt 1
 312              		.cfi_startproc
 313              	.LVL32:
 314 018c 130101FE 		addi	sp,sp,-32
 315              		.cfi_def_cfa_offset 32
 316 0190 233C1100 		sd	ra,24(sp)
 317 0194 23388100 		sd	s0,16(sp)
 318 0198 23349100 		sd	s1,8(sp)
 319              		.cfi_offset 1, -8
 320              		.cfi_offset 8, -16
 321              		.cfi_offset 9, -24
 322 019c 13040102 		addi	s0,sp,32
 323              		.cfi_def_cfa 8, 0
 324 01a0 93070500 		mv	a5,a0
  42:src/_sem.cpp  ****     _thread *t = blockedThreadQueue.removeFirst();
 325              		.loc 1 42 5
 326              	.LVL33:
GAS LISTING /tmp/ccq7xSNH.s 			page 10


 327              	.LBB35:
 328              	.LBB36:
  65:src/../h/list.hpp **** 
 329              		.loc 3 65 14 is_stmt 0
 330 01a4 03358500 		ld	a0,8(a0)
 331              	.LVL34:
  65:src/../h/list.hpp **** 
 332              		.loc 3 65 9
 333 01a8 63080504 		beqz	a0,.L24
 334              	.LVL35:
  68:src/../h/list.hpp ****         if (!head) { tail = 0; }
 335              		.loc 3 68 22
 336 01ac 03378500 		ld	a4,8(a0)
  68:src/../h/list.hpp ****         if (!head) { tail = 0; }
 337              		.loc 3 68 9
 338 01b0 23B4E700 		sd	a4,8(a5)
  69:src/../h/list.hpp **** 
 339              		.loc 3 69 9
 340 01b4 630E0702 		beqz	a4,.L26
 341              	.L23:
  71:src/../h/list.hpp ****         delete elem;
 342              		.loc 3 71 12
 343 01b8 83340500 		ld	s1,0(a0)
 344              	.LVL36:
  72:src/../h/list.hpp ****         return ret;
 345              		.loc 3 72 9
 346 01bc 97000000 		call	_ZdlPv@plt
 346      E7800000 
 347              	.LVL37:
 348              	.L22:
 349              	.LBE36:
 350              	.LBE35:
  43:src/_sem.cpp  ****     t->dblck();
 351              		.loc 1 43 5 is_stmt 1
 352              		.loc 1 43 13 is_stmt 0
 353 01c4 13850400 		mv	a0,s1
 354 01c8 97000000 		call	_ZN7_thread5dblckEv@plt
 354      E7800000 
 355              	.LVL38:
  44:src/_sem.cpp  ****     Scheduler::put(t);
 356              		.loc 1 44 5 is_stmt 1
 357              		.loc 1 44 19 is_stmt 0
 358 01d0 13850400 		mv	a0,s1
 359 01d4 97000000 		call	_ZN9Scheduler3putEP7_thread@plt
 359      E7800000 
 360              	.LVL39:
  45:src/_sem.cpp  **** }
 361              		.loc 1 45 1
 362 01dc 83308101 		ld	ra,24(sp)
 363              		.cfi_remember_state
 364              		.cfi_restore 1
 365 01e0 03340101 		ld	s0,16(sp)
 366              		.cfi_restore 8
 367              		.cfi_def_cfa 2, 32
 368 01e4 83348100 		ld	s1,8(sp)
 369              		.cfi_restore 9
 370              	.LVL40:
GAS LISTING /tmp/ccq7xSNH.s 			page 11


 371 01e8 13010102 		addi	sp,sp,32
 372              		.cfi_def_cfa_offset 0
 373 01ec 67800000 		jr	ra
 374              	.LVL41:
 375              	.L26:
 376              		.cfi_restore_state
 377              	.LBB38:
 378              	.LBB37:
  69:src/../h/list.hpp **** 
 379              		.loc 3 69 22
 380 01f0 23B80700 		sd	zero,16(a5)
 381 01f4 6FF05FFC 		j	.L23
 382              	.LVL42:
 383              	.L24:
  65:src/../h/list.hpp **** 
 384              		.loc 3 65 29
 385 01f8 93040500 		mv	s1,a0
 386 01fc 6FF09FFC 		j	.L22
 387              	.LBE37:
 388              	.LBE38:
 389              		.cfi_endproc
 390              	.LFE36:
 392              		.align	2
 393              		.globl	_ZN4_sem4waitEv
 395              	_ZN4_sem4waitEv:
 396              	.LFB37:
  46:src/_sem.cpp  **** 
  47:src/_sem.cpp  **** int _sem::wait() {
 397              		.loc 1 47 18 is_stmt 1
 398              		.cfi_startproc
 399              	.LVL43:
  48:src/_sem.cpp  **** //    lock();
  49:src/_sem.cpp  ****     if(--val < 0)
 400              		.loc 1 49 5
 401              		.loc 1 49 10 is_stmt 0
 402 0200 83270500 		lw	a5,0(a0)
 403              		.loc 1 49 8
 404 0204 9B87F7FF 		addiw	a5,a5,-1
 405              		.loc 1 49 14
 406 0208 2320F500 		sw	a5,0(a0)
 407              		.loc 1 49 5
 408 020c 13970702 		slli	a4,a5,32
 409 0210 63460700 		bltz	a4,.L33
  50:src/_sem.cpp  ****         block();
  51:src/_sem.cpp  **** //    unlock();
  52:src/_sem.cpp  ****     return 0;
 410              		.loc 1 52 5 is_stmt 1
  53:src/_sem.cpp  **** }
 411              		.loc 1 53 1 is_stmt 0
 412 0214 13050000 		li	a0,0
 413              	.LVL44:
 414 0218 67800000 		ret
 415              	.LVL45:
 416              	.L33:
  47:src/_sem.cpp  **** //    lock();
 417              		.loc 1 47 18
 418 021c 130101FF 		addi	sp,sp,-16
GAS LISTING /tmp/ccq7xSNH.s 			page 12


 419              		.cfi_def_cfa_offset 16
 420 0220 23341100 		sd	ra,8(sp)
 421 0224 23308100 		sd	s0,0(sp)
 422              		.cfi_offset 1, -8
 423              		.cfi_offset 8, -16
 424 0228 13040101 		addi	s0,sp,16
 425              		.cfi_def_cfa 8, 0
  50:src/_sem.cpp  ****         block();
 426              		.loc 1 50 9 is_stmt 1
  50:src/_sem.cpp  ****         block();
 427              		.loc 1 50 14 is_stmt 0
 428 022c 97000000 		call	_ZN4_sem5blockEv
 428      E7800000 
 429              	.LVL46:
  52:src/_sem.cpp  **** }
 430              		.loc 1 52 5 is_stmt 1
 431              		.loc 1 53 1 is_stmt 0
 432 0234 13050000 		li	a0,0
 433 0238 83308100 		ld	ra,8(sp)
 434              		.cfi_restore 1
 435 023c 03340100 		ld	s0,0(sp)
 436              		.cfi_restore 8
 437              		.cfi_def_cfa 2, 16
 438 0240 13010101 		addi	sp,sp,16
 439              		.cfi_def_cfa_offset 0
 440 0244 67800000 		jr	ra
 441              		.cfi_endproc
 442              	.LFE37:
 444              		.align	2
 445              		.globl	_ZN4_sem6signalEv
 447              	_ZN4_sem6signalEv:
 448              	.LFB38:
  54:src/_sem.cpp  **** 
  55:src/_sem.cpp  **** int _sem::signal() {
 449              		.loc 1 55 20 is_stmt 1
 450              		.cfi_startproc
 451              	.LVL47:
  56:src/_sem.cpp  **** //    lock();
  57:src/_sem.cpp  ****     if(val++ < 0)
 452              		.loc 1 57 5
 453              		.loc 1 57 8 is_stmt 0
 454 0248 83270500 		lw	a5,0(a0)
 455              		.loc 1 57 11
 456 024c 1B871700 		addiw	a4,a5,1
 457 0250 2320E500 		sw	a4,0(a0)
 458              		.loc 1 57 5
 459 0254 63C60700 		bltz	a5,.L40
  58:src/_sem.cpp  ****         deblock();
  59:src/_sem.cpp  **** //    unlock();
  60:src/_sem.cpp  ****     return 0;
 460              		.loc 1 60 5 is_stmt 1
  61:src/_sem.cpp  **** }
 461              		.loc 1 61 1 is_stmt 0
 462 0258 13050000 		li	a0,0
 463              	.LVL48:
 464 025c 67800000 		ret
 465              	.LVL49:
GAS LISTING /tmp/ccq7xSNH.s 			page 13


 466              	.L40:
  55:src/_sem.cpp  **** //    lock();
 467              		.loc 1 55 20
 468 0260 130101FF 		addi	sp,sp,-16
 469              		.cfi_def_cfa_offset 16
 470 0264 23341100 		sd	ra,8(sp)
 471 0268 23308100 		sd	s0,0(sp)
 472              		.cfi_offset 1, -8
 473              		.cfi_offset 8, -16
 474 026c 13040101 		addi	s0,sp,16
 475              		.cfi_def_cfa 8, 0
  58:src/_sem.cpp  ****         deblock();
 476              		.loc 1 58 9 is_stmt 1
  58:src/_sem.cpp  ****         deblock();
 477              		.loc 1 58 16 is_stmt 0
 478 0270 97000000 		call	_ZN4_sem7deblockEv
 478      E7800000 
 479              	.LVL50:
  60:src/_sem.cpp  **** }
 480              		.loc 1 60 5 is_stmt 1
 481              		.loc 1 61 1 is_stmt 0
 482 0278 13050000 		li	a0,0
 483 027c 83308100 		ld	ra,8(sp)
 484              		.cfi_restore 1
 485 0280 03340100 		ld	s0,0(sp)
 486              		.cfi_restore 8
 487              		.cfi_def_cfa 2, 16
 488 0284 13010101 		addi	sp,sp,16
 489              		.cfi_def_cfa_offset 0
 490 0288 67800000 		jr	ra
 491              		.cfi_endproc
 492              	.LFE38:
 494              		.align	2
 495              		.globl	_ZN4_sem11blockedListEv
 497              	_ZN4_sem11blockedListEv:
 498              	.LFB39:
  62:src/_sem.cpp  **** 
  63:src/_sem.cpp  **** List<_thread>& _sem::blockedList(){
 499              		.loc 1 63 35 is_stmt 1
 500              		.cfi_startproc
 501              	.LVL51:
 502 028c 130101FF 		addi	sp,sp,-16
 503              		.cfi_def_cfa_offset 16
 504 0290 23348100 		sd	s0,8(sp)
 505              		.cfi_offset 8, -8
 506 0294 13040101 		addi	s0,sp,16
 507              		.cfi_def_cfa 8, 0
  64:src/_sem.cpp  ****     return _sem::blockedThreadQueue;
 508              		.loc 1 64 5
  65:src/_sem.cpp  **** }
 509              		.loc 1 65 1 is_stmt 0
 510 0298 13058500 		addi	a0,a0,8
 511              	.LVL52:
 512 029c 03348100 		ld	s0,8(sp)
 513              		.cfi_restore 8
 514              		.cfi_def_cfa 2, 16
 515 02a0 13010101 		addi	sp,sp,16
GAS LISTING /tmp/ccq7xSNH.s 			page 14


 516              		.cfi_def_cfa_offset 0
 517 02a4 67800000 		jr	ra
 518              		.cfi_endproc
 519              	.LFE39:
 521              	.Letext0:
 522              		.file 4 "src/../h/../lib/hw.h"
 523              		.file 5 "src/../h/syscall_c.h"
 524              		.file 6 "src/../h/tcb.hpp"
 525              		.file 7 "src/../h/scheduler.hpp"
 3859              		.align	3
 3862              	DW.ref.__gxx_personality_v0:
 3863 0000 00000000 		.dword	__gxx_personality_v0
 3863      00000000 
 3864              		.ident	"GCC: (Ubuntu 9.4.0-1ubuntu1~20.04) 9.4.0"
 3865              		.section	.note.GNU-stack,"",@progbits
GAS LISTING /tmp/ccq7xSNH.s 			page 15


DEFINED SYMBOLS
                            *ABS*:0000000000000000 _sem.cpp
     /tmp/ccq7xSNH.s:9      .text:0000000000000000 _ZN4_sem9createSemEPPS_m
     /tmp/ccq7xSNH.s:13     .text:0000000000000000 .L0 
     /tmp/ccq7xSNH.s:15     .text:0000000000000000 .L0 
     /tmp/ccq7xSNH.s:16     .text:0000000000000004 .L0 
     /tmp/ccq7xSNH.s:21     .text:0000000000000014 .L0 
     /tmp/ccq7xSNH.s:22     .text:0000000000000014 .L0 
     /tmp/ccq7xSNH.s:23     .text:0000000000000014 .L0 
     /tmp/ccq7xSNH.s:24     .text:0000000000000014 .L0 
     /tmp/ccq7xSNH.s:26     .text:0000000000000018 .L0 
     /tmp/ccq7xSNH.s:30     .text:0000000000000020 .L0 
     /tmp/ccq7xSNH.s:31     .text:0000000000000020 .L0 
     /tmp/ccq7xSNH.s:39     .text:000000000000002c .L0 
     /tmp/ccq7xSNH.s:45     .text:0000000000000030 .L0 
     /tmp/ccq7xSNH.s:54     .text:000000000000003c .L0 
     /tmp/ccq7xSNH.s:56     .text:0000000000000040 .L0 
     /tmp/ccq7xSNH.s:58     .text:0000000000000044 .L0 
     /tmp/ccq7xSNH.s:61     .text:0000000000000048 .L0 
     /tmp/ccq7xSNH.s:62     .text:000000000000004c .L0 
     /tmp/ccq7xSNH.s:63     .text:000000000000004c .L0 
     /tmp/ccq7xSNH.s:65     .text:0000000000000050 .L0 
     /tmp/ccq7xSNH.s:66     .text:0000000000000050 .L0 
     /tmp/ccq7xSNH.s:68     .text:0000000000000054 .L0 
     /tmp/ccq7xSNH.s:71     .text:0000000000000058 .L0 
     /tmp/ccq7xSNH.s:74     .text:000000000000005c .L0 
     /tmp/ccq7xSNH.s:78     .text:0000000000000060 .L0 
     /tmp/ccq7xSNH.s:80     .text:0000000000000060 .L0 
     /tmp/ccq7xSNH.s:82     .text:0000000000000068 .L0 
     /tmp/ccq7xSNH.s:88     .text:0000000000000068 _ZN4_semD2Ev
     /tmp/ccq7xSNH.s:91     .text:0000000000000068 .L0 
     /tmp/ccq7xSNH.s:3862   .data.rel.local.DW.ref.__gxx_personality_v0:0000000000000000 DW.ref.__gxx_personality_v0
     /tmp/ccq7xSNH.s:95     .text:0000000000000068 .L0 
     /tmp/ccq7xSNH.s:96     .text:000000000000006c .L0 
     /tmp/ccq7xSNH.s:101    .text:000000000000007c .L0 
     /tmp/ccq7xSNH.s:102    .text:000000000000007c .L0 
     /tmp/ccq7xSNH.s:103    .text:000000000000007c .L0 
     /tmp/ccq7xSNH.s:104    .text:000000000000007c .L0 
     /tmp/ccq7xSNH.s:106    .text:0000000000000080 .L0 
     /tmp/ccq7xSNH.s:109    .text:0000000000000080 .L0 
     /tmp/ccq7xSNH.s:110    .text:0000000000000080 .L0 
     /tmp/ccq7xSNH.s:111    .text:0000000000000080 .L0 
     /tmp/ccq7xSNH.s:116    .text:0000000000000084 .L0 
     /tmp/ccq7xSNH.s:118    .text:0000000000000088 .L0 
     /tmp/ccq7xSNH.s:121    .text:0000000000000090 .L0 
     /tmp/ccq7xSNH.s:126    .text:0000000000000094 .L0 
     /tmp/ccq7xSNH.s:128    .text:0000000000000098 .L0 
     /tmp/ccq7xSNH.s:130    .text:000000000000009c .L0 
     /tmp/ccq7xSNH.s:133    .text:00000000000000a0 .L0 
     /tmp/ccq7xSNH.s:134    .text:00000000000000a0 .L0 
     /tmp/ccq7xSNH.s:136    .text:00000000000000a4 .L0 
     /tmp/ccq7xSNH.s:142    .text:00000000000000ac .L0 
     /tmp/ccq7xSNH.s:145    .text:00000000000000b0 .L0 
     /tmp/ccq7xSNH.s:147    .text:00000000000000b4 .L0 
     /tmp/ccq7xSNH.s:150    .text:00000000000000b8 .L0 
     /tmp/ccq7xSNH.s:152    .text:00000000000000bc .L0 
     /tmp/ccq7xSNH.s:155    .text:00000000000000c0 .L0 
GAS LISTING /tmp/ccq7xSNH.s 			page 16


     /tmp/ccq7xSNH.s:162    .text:00000000000000d0 .L0 
     /tmp/ccq7xSNH.s:171    .text:00000000000000d8 .L0 
     /tmp/ccq7xSNH.s:174    .text:00000000000000dc .L0 
     /tmp/ccq7xSNH.s:176    .text:00000000000000e0 .L0 
     /tmp/ccq7xSNH.s:179    .text:00000000000000e4 .L0 
     /tmp/ccq7xSNH.s:181    .text:00000000000000e8 .L0 
     /tmp/ccq7xSNH.s:184    .text:00000000000000ec .L0 
     /tmp/ccq7xSNH.s:191    .text:00000000000000f8 .L0 
     /tmp/ccq7xSNH.s:192    .text:00000000000000f8 .L0 
     /tmp/ccq7xSNH.s:194    .text:00000000000000fc .L0 
     /tmp/ccq7xSNH.s:195    .text:00000000000000fc .L0 
     /tmp/ccq7xSNH.s:201    .text:0000000000000108 .L0 
     /tmp/ccq7xSNH.s:202    .text:0000000000000108 .L0 
     /tmp/ccq7xSNH.s:205    .text:000000000000010c .L0 
     /tmp/ccq7xSNH.s:207    .text:0000000000000110 .L0 
     /tmp/ccq7xSNH.s:212    .text:0000000000000114 .L0 
     /tmp/ccq7xSNH.s:214    .text:0000000000000118 .L0 
     /tmp/ccq7xSNH.s:216    .text:000000000000011c .L0 
     /tmp/ccq7xSNH.s:219    .text:0000000000000120 .L0 
     /tmp/ccq7xSNH.s:220    .text:0000000000000120 .L0 
     /tmp/ccq7xSNH.s:222    .text:0000000000000124 .L0 
     /tmp/ccq7xSNH.s:229    .text:000000000000012c .L0 
     /tmp/ccq7xSNH.s:237    .text:0000000000000134 .L0 
     /tmp/ccq7xSNH.s:238    .text:0000000000000138 .L0 
     /tmp/ccq7xSNH.s:240    .text:000000000000013c .L0 
     /tmp/ccq7xSNH.s:241    .text:000000000000013c .L0 
     /tmp/ccq7xSNH.s:243    .text:0000000000000140 .L0 
     /tmp/ccq7xSNH.s:246    .text:0000000000000144 .L0 
     /tmp/ccq7xSNH.s:249    .text:0000000000000148 .L0 
     /tmp/ccq7xSNH.s:251    .text:000000000000014c .L0 
     /tmp/ccq7xSNH.s:88     .text:0000000000000068 _ZN4_semD1Ev
     /tmp/ccq7xSNH.s:267    .text:000000000000014c _ZN4_sem5blockEv
     /tmp/ccq7xSNH.s:270    .text:000000000000014c .L0 
     /tmp/ccq7xSNH.s:272    .text:000000000000014c .L0 
     /tmp/ccq7xSNH.s:273    .text:0000000000000150 .L0 
     /tmp/ccq7xSNH.s:276    .text:0000000000000158 .L0 
     /tmp/ccq7xSNH.s:277    .text:0000000000000158 .L0 
     /tmp/ccq7xSNH.s:279    .text:000000000000015c .L0 
     /tmp/ccq7xSNH.s:281    .text:000000000000015c .L0 
     /tmp/ccq7xSNH.s:282    .text:000000000000015c .L0 
     /tmp/ccq7xSNH.s:285    .text:0000000000000168 .L0 
     /tmp/ccq7xSNH.s:288    .text:0000000000000170 .L0 
     /tmp/ccq7xSNH.s:289    .text:0000000000000170 .L0 
     /tmp/ccq7xSNH.s:291    .text:0000000000000174 .L0 
     /tmp/ccq7xSNH.s:292    .text:0000000000000174 .L0 
     /tmp/ccq7xSNH.s:295    .text:000000000000017c .L0 
     /tmp/ccq7xSNH.s:296    .text:0000000000000180 .L0 
     /tmp/ccq7xSNH.s:298    .text:0000000000000184 .L0 
     /tmp/ccq7xSNH.s:299    .text:0000000000000184 .L0 
     /tmp/ccq7xSNH.s:301    .text:0000000000000188 .L0 
     /tmp/ccq7xSNH.s:303    .text:000000000000018c .L0 
     /tmp/ccq7xSNH.s:309    .text:000000000000018c _ZN4_sem7deblockEv
     /tmp/ccq7xSNH.s:312    .text:000000000000018c .L0 
     /tmp/ccq7xSNH.s:314    .text:000000000000018c .L0 
     /tmp/ccq7xSNH.s:315    .text:0000000000000190 .L0 
     /tmp/ccq7xSNH.s:319    .text:000000000000019c .L0 
     /tmp/ccq7xSNH.s:320    .text:000000000000019c .L0 
GAS LISTING /tmp/ccq7xSNH.s 			page 17


     /tmp/ccq7xSNH.s:321    .text:000000000000019c .L0 
     /tmp/ccq7xSNH.s:323    .text:00000000000001a0 .L0 
     /tmp/ccq7xSNH.s:329    .text:00000000000001a4 .L0 
     /tmp/ccq7xSNH.s:330    .text:00000000000001a4 .L0 
     /tmp/ccq7xSNH.s:333    .text:00000000000001a8 .L0 
     /tmp/ccq7xSNH.s:336    .text:00000000000001ac .L0 
     /tmp/ccq7xSNH.s:338    .text:00000000000001b0 .L0 
     /tmp/ccq7xSNH.s:340    .text:00000000000001b4 .L0 
     /tmp/ccq7xSNH.s:343    .text:00000000000001b8 .L0 
     /tmp/ccq7xSNH.s:346    .text:00000000000001bc .L0 
     /tmp/ccq7xSNH.s:352    .text:00000000000001c4 .L0 
     /tmp/ccq7xSNH.s:353    .text:00000000000001c4 .L0 
     /tmp/ccq7xSNH.s:357    .text:00000000000001d0 .L0 
     /tmp/ccq7xSNH.s:358    .text:00000000000001d0 .L0 
     /tmp/ccq7xSNH.s:362    .text:00000000000001dc .L0 
     /tmp/ccq7xSNH.s:363    .text:00000000000001e0 .L0 
     /tmp/ccq7xSNH.s:364    .text:00000000000001e0 .L0 
     /tmp/ccq7xSNH.s:366    .text:00000000000001e4 .L0 
     /tmp/ccq7xSNH.s:367    .text:00000000000001e4 .L0 
     /tmp/ccq7xSNH.s:369    .text:00000000000001e8 .L0 
     /tmp/ccq7xSNH.s:372    .text:00000000000001ec .L0 
     /tmp/ccq7xSNH.s:376    .text:00000000000001f0 .L0 
     /tmp/ccq7xSNH.s:380    .text:00000000000001f0 .L0 
     /tmp/ccq7xSNH.s:385    .text:00000000000001f8 .L0 
     /tmp/ccq7xSNH.s:389    .text:0000000000000200 .L0 
     /tmp/ccq7xSNH.s:395    .text:0000000000000200 _ZN4_sem4waitEv
     /tmp/ccq7xSNH.s:398    .text:0000000000000200 .L0 
     /tmp/ccq7xSNH.s:400    .text:0000000000000200 .L0 
     /tmp/ccq7xSNH.s:401    .text:0000000000000200 .L0 
     /tmp/ccq7xSNH.s:402    .text:0000000000000200 .L0 
     /tmp/ccq7xSNH.s:404    .text:0000000000000204 .L0 
     /tmp/ccq7xSNH.s:406    .text:0000000000000208 .L0 
     /tmp/ccq7xSNH.s:408    .text:000000000000020c .L0 
     /tmp/ccq7xSNH.s:411    .text:0000000000000214 .L0 
     /tmp/ccq7xSNH.s:412    .text:0000000000000214 .L0 
     /tmp/ccq7xSNH.s:418    .text:000000000000021c .L0 
     /tmp/ccq7xSNH.s:419    .text:0000000000000220 .L0 
     /tmp/ccq7xSNH.s:422    .text:0000000000000228 .L0 
     /tmp/ccq7xSNH.s:423    .text:0000000000000228 .L0 
     /tmp/ccq7xSNH.s:425    .text:000000000000022c .L0 
     /tmp/ccq7xSNH.s:427    .text:000000000000022c .L0 
     /tmp/ccq7xSNH.s:428    .text:000000000000022c .L0 
     /tmp/ccq7xSNH.s:431    .text:0000000000000234 .L0 
     /tmp/ccq7xSNH.s:432    .text:0000000000000234 .L0 
     /tmp/ccq7xSNH.s:434    .text:000000000000023c .L0 
     /tmp/ccq7xSNH.s:436    .text:0000000000000240 .L0 
     /tmp/ccq7xSNH.s:437    .text:0000000000000240 .L0 
     /tmp/ccq7xSNH.s:439    .text:0000000000000244 .L0 
     /tmp/ccq7xSNH.s:441    .text:0000000000000248 .L0 
     /tmp/ccq7xSNH.s:447    .text:0000000000000248 _ZN4_sem6signalEv
     /tmp/ccq7xSNH.s:450    .text:0000000000000248 .L0 
     /tmp/ccq7xSNH.s:452    .text:0000000000000248 .L0 
     /tmp/ccq7xSNH.s:453    .text:0000000000000248 .L0 
     /tmp/ccq7xSNH.s:454    .text:0000000000000248 .L0 
     /tmp/ccq7xSNH.s:456    .text:000000000000024c .L0 
     /tmp/ccq7xSNH.s:459    .text:0000000000000254 .L0 
     /tmp/ccq7xSNH.s:461    .text:0000000000000258 .L0 
GAS LISTING /tmp/ccq7xSNH.s 			page 18


     /tmp/ccq7xSNH.s:462    .text:0000000000000258 .L0 
     /tmp/ccq7xSNH.s:468    .text:0000000000000260 .L0 
     /tmp/ccq7xSNH.s:469    .text:0000000000000264 .L0 
     /tmp/ccq7xSNH.s:472    .text:000000000000026c .L0 
     /tmp/ccq7xSNH.s:473    .text:000000000000026c .L0 
     /tmp/ccq7xSNH.s:475    .text:0000000000000270 .L0 
     /tmp/ccq7xSNH.s:477    .text:0000000000000270 .L0 
     /tmp/ccq7xSNH.s:478    .text:0000000000000270 .L0 
     /tmp/ccq7xSNH.s:481    .text:0000000000000278 .L0 
     /tmp/ccq7xSNH.s:482    .text:0000000000000278 .L0 
     /tmp/ccq7xSNH.s:484    .text:0000000000000280 .L0 
     /tmp/ccq7xSNH.s:486    .text:0000000000000284 .L0 
     /tmp/ccq7xSNH.s:487    .text:0000000000000284 .L0 
     /tmp/ccq7xSNH.s:489    .text:0000000000000288 .L0 
     /tmp/ccq7xSNH.s:491    .text:000000000000028c .L0 
     /tmp/ccq7xSNH.s:497    .text:000000000000028c _ZN4_sem11blockedListEv
     /tmp/ccq7xSNH.s:500    .text:000000000000028c .L0 
     /tmp/ccq7xSNH.s:502    .text:000000000000028c .L0 
     /tmp/ccq7xSNH.s:503    .text:0000000000000290 .L0 
     /tmp/ccq7xSNH.s:505    .text:0000000000000294 .L0 
     /tmp/ccq7xSNH.s:507    .text:0000000000000298 .L0 
     /tmp/ccq7xSNH.s:509    .text:0000000000000298 .L0 
     /tmp/ccq7xSNH.s:510    .text:0000000000000298 .L0 
     /tmp/ccq7xSNH.s:513    .text:00000000000002a0 .L0 
     /tmp/ccq7xSNH.s:514    .text:00000000000002a0 .L0 
     /tmp/ccq7xSNH.s:516    .text:00000000000002a4 .L0 
     /tmp/ccq7xSNH.s:518    .text:00000000000002a8 .L0 
     /tmp/ccq7xSNH.s:526    .text:00000000000002a8 .L0 
     /tmp/ccq7xSNH.s:282    .text:000000000000015c .L0 
     /tmp/ccq7xSNH.s:77     .text:0000000000000060 .L3
     /tmp/ccq7xSNH.s:59     .text:0000000000000048 .L2
     /tmp/ccq7xSNH.s:187    .text:00000000000000f8 .L17
     /tmp/ccq7xSNH.s:139    .text:00000000000000ac .L7
     /tmp/ccq7xSNH.s:122    .text:0000000000000094 .L8
     /tmp/ccq7xSNH.s:160    .text:00000000000000d0 .L9
     /tmp/ccq7xSNH.s:148    .text:00000000000000b8 .L10
     /tmp/ccq7xSNH.s:226    .text:000000000000012c .L15
     /tmp/ccq7xSNH.s:232    .text:0000000000000134 .L5
     /tmp/ccq7xSNH.s:165    .text:00000000000000d8 .L13
     /tmp/ccq7xSNH.s:208    .text:0000000000000114 .L14
     /tmp/ccq7xSNH.s:177    .text:00000000000000e4 .L16
     /tmp/ccq7xSNH.s:383    .text:00000000000001f8 .L24
     /tmp/ccq7xSNH.s:375    .text:00000000000001f0 .L26
     /tmp/ccq7xSNH.s:341    .text:00000000000001b8 .L23
     /tmp/ccq7xSNH.s:348    .text:00000000000001c4 .L22
     /tmp/ccq7xSNH.s:416    .text:000000000000021c .L33
     /tmp/ccq7xSNH.s:466    .text:0000000000000260 .L40
     /tmp/ccq7xSNH.s:1966   .debug_abbrev:0000000000000000 .Ldebug_abbrev0
     /tmp/ccq7xSNH.s:3804   .debug_str:0000000000000742 .LASF136
     /tmp/ccq7xSNH.s:3578   .debug_str:000000000000007f .LASF137
     /tmp/ccq7xSNH.s:3638   .debug_str:000000000000022e .LASF138
     /tmp/ccq7xSNH.s:5      .text:0000000000000000 .Ltext0
     /tmp/ccq7xSNH.s:521    .text:00000000000002a8 .Letext0
     /tmp/ccq7xSNH.s:3558   .debug_line:0000000000000000 .Ldebug_line0
     /tmp/ccq7xSNH.s:3720   .debug_str:00000000000004d7 .LASF0
     /tmp/ccq7xSNH.s:3736   .debug_str:000000000000052f .LASF1
     /tmp/ccq7xSNH.s:3702   .debug_str:0000000000000450 .LASF2
GAS LISTING /tmp/ccq7xSNH.s 			page 19


     /tmp/ccq7xSNH.s:3668   .debug_str:0000000000000342 .LASF4
     /tmp/ccq7xSNH.s:3780   .debug_str:0000000000000676 .LASF3
     /tmp/ccq7xSNH.s:3586   .debug_str:00000000000000bc .LASF5
     /tmp/ccq7xSNH.s:3616   .debug_str:00000000000001b1 .LASF6
     /tmp/ccq7xSNH.s:3742   .debug_str:0000000000000560 .LASF7
     /tmp/ccq7xSNH.s:3718   .debug_str:00000000000004c4 .LASF8
     /tmp/ccq7xSNH.s:3824   .debug_str:00000000000008ae .LASF9
     /tmp/ccq7xSNH.s:3648   .debug_str:00000000000002b0 .LASF10
     /tmp/ccq7xSNH.s:3756   .debug_str:00000000000005d7 .LASF11
     /tmp/ccq7xSNH.s:3808   .debug_str:0000000000000821 .LASF12
     /tmp/ccq7xSNH.s:3590   .debug_str:00000000000000d0 .LASF13
     /tmp/ccq7xSNH.s:3570   .debug_str:000000000000004d .LASF14
     /tmp/ccq7xSNH.s:3598   .debug_str:0000000000000118 .LASF15
     /tmp/ccq7xSNH.s:3772   .debug_str:0000000000000634 .LASF16
     /tmp/ccq7xSNH.s:3606   .debug_str:0000000000000154 .LASF17
     /tmp/ccq7xSNH.s:3560   .debug_str:0000000000000000 .LASF18
     /tmp/ccq7xSNH.s:3664   .debug_str:0000000000000335 .LASF45
     /tmp/ccq7xSNH.s:3576   .debug_str:0000000000000077 .LASF89
     /tmp/ccq7xSNH.s:3816   .debug_str:0000000000000868 .LASF19
     /tmp/ccq7xSNH.s:3748   .debug_str:0000000000000596 .LASF21
     /tmp/ccq7xSNH.s:3744   .debug_str:0000000000000573 .LASF23
     /tmp/ccq7xSNH.s:3700   .debug_str:0000000000000435 .LASF25
     /tmp/ccq7xSNH.s:3704   .debug_str:000000000000045e .LASF20
     /tmp/ccq7xSNH.s:3696   .debug_str:00000000000003ff .LASF22
     /tmp/ccq7xSNH.s:3694   .debug_str:00000000000003f2 .LASF24
     /tmp/ccq7xSNH.s:3760   .debug_str:00000000000005ef .LASF26
     /tmp/ccq7xSNH.s:3566   .debug_str:000000000000002d .LASF27
     /tmp/ccq7xSNH.s:3620   .debug_str:00000000000001ce .LASF28
     /tmp/ccq7xSNH.s:3792   .debug_str:00000000000006e3 .LASF29
     /tmp/ccq7xSNH.s:3826   .debug_str:00000000000008be .LASF30
     /tmp/ccq7xSNH.s:3820   .debug_str:000000000000087c .LASF31
     /tmp/ccq7xSNH.s:3630   .debug_str:0000000000000203 .LASF32
     /tmp/ccq7xSNH.s:3734   .debug_str:0000000000000529 .LASF33
     /tmp/ccq7xSNH.s:3790   .debug_str:00000000000006cf .LASF34
     /tmp/ccq7xSNH.s:3678   .debug_str:0000000000000391 .LASF35
     /tmp/ccq7xSNH.s:3670   .debug_str:0000000000000349 .LASF36
     /tmp/ccq7xSNH.s:3766   .debug_str:000000000000061a .LASF139
     /tmp/ccq7xSNH.s:3844   .debug_str:000000000000097c .LASF37
     /tmp/ccq7xSNH.s:3774   .debug_str:000000000000064a .LASF38
     /tmp/ccq7xSNH.s:3800   .debug_str:0000000000000725 .LASF40
     /tmp/ccq7xSNH.s:3626   .debug_str:00000000000001f1 .LASF140
     /tmp/ccq7xSNH.s:3584   .debug_str:00000000000000af .LASF44
     /tmp/ccq7xSNH.s:3602   .debug_str:0000000000000132 .LASF46
     /tmp/ccq7xSNH.s:3574   .debug_str:000000000000006a .LASF39
     /tmp/ccq7xSNH.s:3828   .debug_str:00000000000008dd .LASF41
     /tmp/ccq7xSNH.s:3722   .debug_str:00000000000004e4 .LASF42
     /tmp/ccq7xSNH.s:3798   .debug_str:000000000000070e .LASF43
     /tmp/ccq7xSNH.s:3732   .debug_str:0000000000000513 .LASF47
     /tmp/ccq7xSNH.s:3564   .debug_str:0000000000000011 .LASF48
     /tmp/ccq7xSNH.s:3672   .debug_str:000000000000036a .LASF49
     /tmp/ccq7xSNH.s:3724   .debug_str:00000000000004ed .LASF50
     /tmp/ccq7xSNH.s:3676   .debug_str:0000000000000389 .LASF51
     /tmp/ccq7xSNH.s:3730   .debug_str:0000000000000509 .LASF52
     /tmp/ccq7xSNH.s:3764   .debug_str:0000000000000611 .LASF53
     /tmp/ccq7xSNH.s:3726   .debug_str:00000000000004f3 .LASF54
     /tmp/ccq7xSNH.s:3562   .debug_str:0000000000000009 .LASF55
     /tmp/ccq7xSNH.s:3758   .debug_str:00000000000005e6 .LASF56
GAS LISTING /tmp/ccq7xSNH.s 			page 20


     /tmp/ccq7xSNH.s:3712   .debug_str:0000000000000483 .LASF57
     /tmp/ccq7xSNH.s:3686   .debug_str:00000000000003d0 .LASF141
     /tmp/ccq7xSNH.s:3654   .debug_str:00000000000002d0 .LASF142
     /tmp/ccq7xSNH.s:3600   .debug_str:0000000000000124 .LASF87
     /tmp/ccq7xSNH.s:3812   .debug_str:0000000000000835 .LASF95
     /tmp/ccq7xSNH.s:3738   .debug_str:0000000000000542 .LASF58
     /tmp/ccq7xSNH.s:3674   .debug_str:000000000000036f .LASF59
     /tmp/ccq7xSNH.s:3852   .debug_str:00000000000009d1 .LASF60
     /tmp/ccq7xSNH.s:3714   .debug_str:000000000000048d .LASF61
     /tmp/ccq7xSNH.s:3782   .debug_str:0000000000000688 .LASF85
     /tmp/ccq7xSNH.s:3684   .debug_str:00000000000003c5 .LASF62
     /tmp/ccq7xSNH.s:3658   .debug_str:00000000000002ff .LASF63
     /tmp/ccq7xSNH.s:3624   .debug_str:00000000000001eb .LASF64
     /tmp/ccq7xSNH.s:3666   .debug_str:000000000000033d .LASF65
     /tmp/ccq7xSNH.s:3784   .debug_str:0000000000000699 .LASF66
     /tmp/ccq7xSNH.s:3580   .debug_str:000000000000008c .LASF67
     /tmp/ccq7xSNH.s:3690   .debug_str:00000000000003e6 .LASF68
     /tmp/ccq7xSNH.s:3588   .debug_str:00000000000000c3 .LASF69
     /tmp/ccq7xSNH.s:3632   .debug_str:0000000000000217 .LASF70
     /tmp/ccq7xSNH.s:3770   .debug_str:0000000000000624 .LASF71
     /tmp/ccq7xSNH.s:3750   .debug_str:00000000000005a6 .LASF72
     /tmp/ccq7xSNH.s:3656   .debug_str:00000000000002ed .LASF73
     /tmp/ccq7xSNH.s:3608   .debug_str:000000000000016a .LASF74
     /tmp/ccq7xSNH.s:3612   .debug_str:000000000000017c .LASF75
     /tmp/ccq7xSNH.s:3610   .debug_str:0000000000000170 .LASF76
     /tmp/ccq7xSNH.s:3746   .debug_str:000000000000057e .LASF77
     /tmp/ccq7xSNH.s:3794   .debug_str:00000000000006f3 .LASF78
     /tmp/ccq7xSNH.s:3622   .debug_str:00000000000001e5 .LASF79
     /tmp/ccq7xSNH.s:3728   .debug_str:00000000000004f8 .LASF80
     /tmp/ccq7xSNH.s:3688   .debug_str:00000000000003de .LASF81
     /tmp/ccq7xSNH.s:3840   .debug_str:000000000000095c .LASF82
     /tmp/ccq7xSNH.s:3740   .debug_str:000000000000054d .LASF83
     /tmp/ccq7xSNH.s:3752   .debug_str:00000000000005ad .LASF84
     /tmp/ccq7xSNH.s:3640   .debug_str:000000000000024c .LASF86
     /tmp/ccq7xSNH.s:3660   .debug_str:000000000000030a .LASF143
     /tmp/ccq7xSNH.s:3788   .debug_str:00000000000006b3 .LASF144
     /tmp/ccq7xSNH.s:3796   .debug_str:0000000000000700 .LASF88
     /tmp/ccq7xSNH.s:3810   .debug_str:0000000000000830 .LASF90
     /tmp/ccq7xSNH.s:3768   .debug_str:000000000000061f .LASF91
     /tmp/ccq7xSNH.s:3846   .debug_str:00000000000009a8 .LASF92
     /tmp/ccq7xSNH.s:3628   .debug_str:00000000000001f9 .LASF93
     /tmp/ccq7xSNH.s:3614   .debug_str:000000000000018d .LASF94
     /tmp/ccq7xSNH.s:3848   .debug_str:00000000000009ad .LASF96
     /tmp/ccq7xSNH.s:3604   .debug_str:000000000000014f .LASF97
     /tmp/ccq7xSNH.s:3710   .debug_str:000000000000047e .LASF98
     /tmp/ccq7xSNH.s:3836   .debug_str:000000000000094d .LASF99
     /tmp/ccq7xSNH.s:3662   .debug_str:000000000000031e .LASF100
     /tmp/ccq7xSNH.s:3698   .debug_str:000000000000041a .LASF101
     /tmp/ccq7xSNH.s:3838   .debug_str:0000000000000952 .LASF145
     /tmp/ccq7xSNH.s:3806   .debug_str:0000000000000806 .LASF146
     /tmp/ccq7xSNH.s:3842   .debug_str:000000000000096f .LASF102
     /tmp/ccq7xSNH.s:3832   .debug_str:0000000000000925 .LASF103
     /tmp/ccq7xSNH.s:3802   .debug_str:0000000000000739 .LASF104
     /tmp/ccq7xSNH.s:3594   .debug_str:00000000000000ed .LASF105
     /tmp/ccq7xSNH.s:3708   .debug_str:0000000000000476 .LASF106
     /tmp/ccq7xSNH.s:3754   .debug_str:00000000000005b7 .LASF107
     /tmp/ccq7xSNH.s:3706   .debug_str:000000000000046a .LASF108
GAS LISTING /tmp/ccq7xSNH.s 			page 21


     /tmp/ccq7xSNH.s:3646   .debug_str:000000000000028e .LASF109
     /tmp/ccq7xSNH.s:3596   .debug_str:000000000000010e .LASF110
     /tmp/ccq7xSNH.s:3644   .debug_str:000000000000026f .LASF111
     /tmp/ccq7xSNH.s:3818   .debug_str:0000000000000871 .LASF112
     /tmp/ccq7xSNH.s:3776   .debug_str:0000000000000650 .LASF113
     /tmp/ccq7xSNH.s:3682   .debug_str:00000000000003bc .LASF114
     /tmp/ccq7xSNH.s:3680   .debug_str:000000000000039e .LASF115
     /tmp/ccq7xSNH.s:3642   .debug_str:000000000000025d .LASF116
     /tmp/ccq7xSNH.s:3830   .debug_str:00000000000008f9 .LASF117
     /tmp/ccq7xSNH.s:3618   .debug_str:00000000000001b8 .LASF118
     /tmp/ccq7xSNH.s:3822   .debug_str:0000000000000882 .LASF119
     /tmp/ccq7xSNH.s:3636   .debug_str:0000000000000221 .LASF120
     /tmp/ccq7xSNH.s:3716   .debug_str:00000000000004a1 .LASF121
     /tmp/ccq7xSNH.s:3634   .debug_str:000000000000021c .LASF122
     /tmp/ccq7xSNH.s:3762   .debug_str:000000000000060c .LASF124
     /tmp/ccq7xSNH.s:3778   .debug_str:0000000000000671 .LASF123
     /tmp/ccq7xSNH.s:3834   .debug_str:0000000000000948 .LASF125
     /tmp/ccq7xSNH.s:3850   .debug_str:00000000000009cc .LASF126
     /tmp/ccq7xSNH.s:3568   .debug_str:0000000000000036 .LASF130
     /tmp/ccq7xSNH.s:498    .text:000000000000028c .LFB39
     /tmp/ccq7xSNH.s:519    .text:00000000000002a8 .LFE39
     /tmp/ccq7xSNH.s:3125   .debug_loc:0000000000000000 .LLST25
     /tmp/ccq7xSNH.s:448    .text:0000000000000248 .LFB38
     /tmp/ccq7xSNH.s:492    .text:000000000000028c .LFE38
     /tmp/ccq7xSNH.s:3138   .debug_loc:0000000000000038 .LLST24
     /tmp/ccq7xSNH.s:479    .text:0000000000000278 .LVL50
     /tmp/ccq7xSNH.s:396    .text:0000000000000200 .LFB37
     /tmp/ccq7xSNH.s:442    .text:0000000000000248 .LFE37
     /tmp/ccq7xSNH.s:3163   .debug_loc:000000000000009a .LLST23
     /tmp/ccq7xSNH.s:429    .text:0000000000000234 .LVL46
     /tmp/ccq7xSNH.s:310    .text:000000000000018c .LFB36
     /tmp/ccq7xSNH.s:390    .text:0000000000000200 .LFE36
     /tmp/ccq7xSNH.s:3188   .debug_loc:00000000000000fc .LLST18
     /tmp/ccq7xSNH.s:3210   .debug_loc:000000000000015b .LLST19
     /tmp/ccq7xSNH.s:327    .text:00000000000001a4 .LBB35
     /tmp/ccq7xSNH.s:3544   .debug_ranges:0000000000000000 .Ldebug_ranges0
     /tmp/ccq7xSNH.s:3217   .debug_loc:000000000000017e .LLST20
     /tmp/ccq7xSNH.s:3247   .debug_loc:00000000000001e5 .LLST21
     /tmp/ccq7xSNH.s:3258   .debug_loc:000000000000021b .LLST22
     /tmp/ccq7xSNH.s:347    .text:00000000000001c4 .LVL37
     /tmp/ccq7xSNH.s:355    .text:00000000000001d0 .LVL38
     /tmp/ccq7xSNH.s:360    .text:00000000000001dc .LVL39
     /tmp/ccq7xSNH.s:268    .text:000000000000014c .LFB35
     /tmp/ccq7xSNH.s:304    .text:000000000000018c .LFE35
     /tmp/ccq7xSNH.s:3265   .debug_loc:000000000000023e .LLST17
     /tmp/ccq7xSNH.s:293    .text:000000000000017c .LVL31
     /tmp/ccq7xSNH.s:3582   .debug_str:00000000000000a5 .LASF127
     /tmp/ccq7xSNH.s:3650   .debug_str:00000000000002be .LASF147
     /tmp/ccq7xSNH.s:89     .text:0000000000000068 .LFB33
     /tmp/ccq7xSNH.s:252    .text:000000000000014c .LFE33
     /tmp/ccq7xSNH.s:3279   .debug_loc:0000000000000277 .LLST5
     /tmp/ccq7xSNH.s:197    .text:0000000000000108 .LVL21
     /tmp/ccq7xSNH.s:107    .text:0000000000000080 .LBB26
     /tmp/ccq7xSNH.s:235    .text:0000000000000134 .LBE26
     /tmp/ccq7xSNH.s:3313   .debug_loc:0000000000000300 .LLST6
     /tmp/ccq7xSNH.s:113    .text:0000000000000084 .LBB27
     /tmp/ccq7xSNH.s:167    .text:00000000000000d8 .LBE27
GAS LISTING /tmp/ccq7xSNH.s 			page 22


     /tmp/ccq7xSNH.s:3328   .debug_loc:0000000000000349 .LLST7
     /tmp/ccq7xSNH.s:3339   .debug_loc:000000000000037f .LLST8
     /tmp/ccq7xSNH.s:3358   .debug_loc:00000000000003db .LLST9
     /tmp/ccq7xSNH.s:3369   .debug_loc:0000000000000411 .LLST10
     /tmp/ccq7xSNH.s:124    .text:0000000000000094 .LBB29
     /tmp/ccq7xSNH.s:140    .text:00000000000000ac .LBE29
     /tmp/ccq7xSNH.s:3376   .debug_loc:0000000000000434 .LLST11
     /tmp/ccq7xSNH.s:157    .text:00000000000000cc .LVL15
     /tmp/ccq7xSNH.s:168    .text:00000000000000d8 .LBB30
     /tmp/ccq7xSNH.s:3396   .debug_loc:0000000000000491 .LLST12
     /tmp/ccq7xSNH.s:3407   .debug_loc:00000000000004c7 .LLST13
     /tmp/ccq7xSNH.s:3426   .debug_loc:0000000000000523 .LLST14
     /tmp/ccq7xSNH.s:3437   .debug_loc:0000000000000559 .LLST15
     /tmp/ccq7xSNH.s:210    .text:0000000000000114 .LBB32
     /tmp/ccq7xSNH.s:227    .text:000000000000012c .LBE32
     /tmp/ccq7xSNH.s:3444   .debug_loc:000000000000057c .LLST16
     /tmp/ccq7xSNH.s:186    .text:00000000000000f8 .LVL20
     /tmp/ccq7xSNH.s:10     .text:0000000000000000 .LFB31
     /tmp/ccq7xSNH.s:83     .text:0000000000000068 .LFE31
     /tmp/ccq7xSNH.s:3814   .debug_str:0000000000000861 .LASF128
     /tmp/ccq7xSNH.s:3464   .debug_loc:00000000000005d9 .LLST0
     /tmp/ccq7xSNH.s:3652   .debug_str:00000000000002cb .LASF129
     /tmp/ccq7xSNH.s:3486   .debug_loc:0000000000000638 .LLST1
     /tmp/ccq7xSNH.s:35     .text:000000000000002c .LBB14
     /tmp/ccq7xSNH.s:52     .text:000000000000003c .LBE14
     /tmp/ccq7xSNH.s:3508   .debug_loc:0000000000000697 .LLST2
     /tmp/ccq7xSNH.s:3515   .debug_loc:00000000000006ba .LLST3
     /tmp/ccq7xSNH.s:41     .text:0000000000000030 .LBB16
     /tmp/ccq7xSNH.s:50     .text:000000000000003c .LBE16
     /tmp/ccq7xSNH.s:3522   .debug_loc:00000000000006dd .LLST4
     /tmp/ccq7xSNH.s:34     .text:000000000000002c .LVL2
     /tmp/ccq7xSNH.s:3572   .debug_str:000000000000005d .LASF131
     /tmp/ccq7xSNH.s:3854   .debug_str:00000000000009d7 .LASF132
     /tmp/ccq7xSNH.s:3786   .debug_str:00000000000006a3 .LASF134
     /tmp/ccq7xSNH.s:3692   .debug_str:00000000000003ec .LASF133
     /tmp/ccq7xSNH.s:3592   .debug_str:00000000000000e0 .LASF135
     /tmp/ccq7xSNH.s:501    .text:000000000000028c .LVL51
     /tmp/ccq7xSNH.s:511    .text:000000000000029c .LVL52
     /tmp/ccq7xSNH.s:451    .text:0000000000000248 .LVL47
     /tmp/ccq7xSNH.s:463    .text:000000000000025c .LVL48
     /tmp/ccq7xSNH.s:465    .text:0000000000000260 .LVL49
     /tmp/ccq7xSNH.s:399    .text:0000000000000200 .LVL43
     /tmp/ccq7xSNH.s:413    .text:0000000000000218 .LVL44
     /tmp/ccq7xSNH.s:415    .text:000000000000021c .LVL45
     /tmp/ccq7xSNH.s:313    .text:000000000000018c .LVL32
     /tmp/ccq7xSNH.s:331    .text:00000000000001a8 .LVL34
     /tmp/ccq7xSNH.s:374    .text:00000000000001f0 .LVL41
     /tmp/ccq7xSNH.s:370    .text:00000000000001e8 .LVL40
     /tmp/ccq7xSNH.s:326    .text:00000000000001a4 .LVL33
     /tmp/ccq7xSNH.s:334    .text:00000000000001ac .LVL35
     /tmp/ccq7xSNH.s:382    .text:00000000000001f8 .LVL42
     /tmp/ccq7xSNH.s:344    .text:00000000000001bc .LVL36
     /tmp/ccq7xSNH.s:271    .text:000000000000014c .LVL30
     /tmp/ccq7xSNH.s:94     .text:0000000000000068 .LVL8
     /tmp/ccq7xSNH.s:143    .text:00000000000000b0 .LVL13
     /tmp/ccq7xSNH.s:159    .text:00000000000000d0 .LVL16
     /tmp/ccq7xSNH.s:164    .text:00000000000000d8 .LVL17
GAS LISTING /tmp/ccq7xSNH.s 			page 23


     /tmp/ccq7xSNH.s:247    .text:0000000000000144 .LVL29
     /tmp/ccq7xSNH.s:203    .text:000000000000010c .LVL22
     /tmp/ccq7xSNH.s:231    .text:0000000000000134 .LVL27
     /tmp/ccq7xSNH.s:244    .text:0000000000000140 .LVL28
     /tmp/ccq7xSNH.s:112    .text:0000000000000084 .LVL9
     /tmp/ccq7xSNH.s:123    .text:0000000000000094 .LVL10
     /tmp/ccq7xSNH.s:131    .text:00000000000000a0 .LVL11
     /tmp/ccq7xSNH.s:137    .text:00000000000000a8 .LVL12
     /tmp/ccq7xSNH.s:153    .text:00000000000000c0 .LVL14
     /tmp/ccq7xSNH.s:209    .text:0000000000000114 .LVL23
     /tmp/ccq7xSNH.s:217    .text:0000000000000120 .LVL24
     /tmp/ccq7xSNH.s:223    .text:0000000000000128 .LVL25
     /tmp/ccq7xSNH.s:172    .text:00000000000000dc .LVL18
     /tmp/ccq7xSNH.s:225    .text:000000000000012c .LVL26
     /tmp/ccq7xSNH.s:182    .text:00000000000000ec .LVL19
     /tmp/ccq7xSNH.s:14     .text:0000000000000000 .LVL0
     /tmp/ccq7xSNH.s:32     .text:0000000000000024 .LVL1
     /tmp/ccq7xSNH.s:69     .text:0000000000000054 .LVL5
     /tmp/ccq7xSNH.s:76     .text:0000000000000060 .LVL7
     /tmp/ccq7xSNH.s:72     .text:0000000000000058 .LVL6
     /tmp/ccq7xSNH.s:48     .text:000000000000003c .LVL4
     /tmp/ccq7xSNH.s:40     .text:0000000000000030 .LVL3
     /tmp/ccq7xSNH.s:527    .debug_info:0000000000000000 .Ldebug_info0
     /tmp/ccq7xSNH.s:189    .text:00000000000000f8 .LBE30
     /tmp/ccq7xSNH.s:199    .text:0000000000000108 .LBB34
     /tmp/ccq7xSNH.s:234    .text:0000000000000134 .LBE34
     /tmp/ccq7xSNH.s:350    .text:00000000000001c4 .LBE35
     /tmp/ccq7xSNH.s:377    .text:00000000000001f0 .LBB38
     /tmp/ccq7xSNH.s:388    .text:0000000000000200 .LBE38
     /tmp/ccq7xSNH.s:255    .gcc_except_table:0000000000000000 .LLSDA33

UNDEFINED SYMBOLS
_Znwm
_ZdlPv
_ZN9Scheduler3putEP7_thread
__gxx_personality_v0
_ZN7_thread7runningE
_ZN7_thread8dispatchEv
_ZN7_thread5dblckEv
