GAS LISTING /tmp/ccYSazPS.s 			page 1


   1              		.file	"main.cpp"
   2              		.option pic
   3              		.option norelax
   4              		.text
   5              	.Ltext0:
   6              		.align	2
   7              		.globl	_Z3wrpPv
   9              	_Z3wrpPv:
  10              	.LFB51:
  11              		.file 1 "src/main.cpp"
   1:src/main.cpp  **** //
   2:src/main.cpp  **** // Created by marko on 20.4.22..
   3:src/main.cpp  **** //
   4:src/main.cpp  **** 
   5:src/main.cpp  **** #include "../h/tcb.hpp"
   6:src/main.cpp  **** #include "../h/workers.hpp"
   7:src/main.cpp  **** #include "../h/print.hpp"
   8:src/main.cpp  **** #include "../h/riscv.hpp"
   9:src/main.cpp  **** #include "../h/syscall_c.h"
  10:src/main.cpp  **** 
  11:src/main.cpp  **** bool finishedd = false;
  12:src/main.cpp  **** extern void userMain();
  13:src/main.cpp  **** 
  14:src/main.cpp  **** void wrp(void *t){
  12              		.loc 1 14 18
  13              		.cfi_startproc
  14              	.LVL0:
  15 0000 130101FF 		addi	sp,sp,-16
  16              		.cfi_def_cfa_offset 16
  17 0004 23341100 		sd	ra,8(sp)
  18 0008 23308100 		sd	s0,0(sp)
  19              		.cfi_offset 1, -8
  20              		.cfi_offset 8, -16
  21 000c 13040101 		addi	s0,sp,16
  22              		.cfi_def_cfa 8, 0
  15:src/main.cpp  **** //    printStringO("userMain()");
  16:src/main.cpp  ****     userMain();
  23              		.loc 1 16 5
  24              		.loc 1 16 13 is_stmt 0
  25 0010 97000000 		call	_Z8userMainv@plt
  25      E7800000 
  26              	.LVL1:
  17:src/main.cpp  **** //    printStringO("gotovo");
  18:src/main.cpp  ****     finishedd = true;
  27              		.loc 1 18 5 is_stmt 1
  28              		.loc 1 18 15 is_stmt 0
  29 0018 93071000 		li	a5,1
  30 001c 17070000 		sb	a5,.LANCHOR0,a4
  30      2300F700 
  19:src/main.cpp  **** }
  31              		.loc 1 19 1
  32 0024 83308100 		ld	ra,8(sp)
  33              		.cfi_restore 1
  34 0028 03340100 		ld	s0,0(sp)
  35              		.cfi_restore 8
  36              		.cfi_def_cfa 2, 16
  37 002c 13010101 		addi	sp,sp,16
GAS LISTING /tmp/ccYSazPS.s 			page 2


  38              		.cfi_def_cfa_offset 0
  39 0030 67800000 		jr	ra
  40              		.cfi_endproc
  41              	.LFE51:
  43              		.section	.rodata.str1.8,"aMS",@progbits,1
  44              		.align	3
  45              	.LC0:
  46 0000 46696E69 		.string	"Finished\n"
  46      73686564 
  46      0A00
  47              		.text
  48              		.align	2
  49              		.globl	main
  51              	main:
  52              	.LFB52:
  20:src/main.cpp  **** 
  21:src/main.cpp  **** int main()
  22:src/main.cpp  **** {
  53              		.loc 1 22 1 is_stmt 1
  54              		.cfi_startproc
  55 0034 130101FD 		addi	sp,sp,-48
  56              		.cfi_def_cfa_offset 48
  57 0038 23341102 		sd	ra,40(sp)
  58 003c 23308102 		sd	s0,32(sp)
  59              		.cfi_offset 1, -8
  60              		.cfi_offset 8, -16
  61 0040 13040103 		addi	s0,sp,48
  62              		.cfi_def_cfa 8, 0
  23:src/main.cpp  ****     Riscv::w_stvec((uint64) &Riscv::supervisorTrap);
  63              		.loc 1 23 5
  64              		.loc 1 23 19 is_stmt 0
  65 0044 97070000 		la	a5,_ZN5Riscv14supervisorTrapEv
  65      83B70700 
  66              	.LVL2:
  67              	.LBB6:
  68              	.LBB7:
  69              		.file 2 "src/../h/riscv.hpp"
   1:src/../h/riscv.hpp **** //
   2:src/../h/riscv.hpp **** // Created by marko on 20.4.22..
   3:src/../h/riscv.hpp **** //
   4:src/../h/riscv.hpp **** 
   5:src/../h/riscv.hpp **** #ifndef OS1_VEZBE07_RISCV_CONTEXT_SWITCH_2_INTERRUPT_RISCV_HPP
   6:src/../h/riscv.hpp **** #define OS1_VEZBE07_RISCV_CONTEXT_SWITCH_2_INTERRUPT_RISCV_HPP
   7:src/../h/riscv.hpp **** 
   8:src/../h/riscv.hpp **** #include "../lib/hw.h"
   9:src/../h/riscv.hpp **** #include "../h/tcb.hpp"
  10:src/../h/riscv.hpp **** #include "list.hpp"
  11:src/../h/riscv.hpp **** #include "_buffer.hpp"
  12:src/../h/riscv.hpp **** 
  13:src/../h/riscv.hpp **** template<typename T>
  14:src/../h/riscv.hpp **** class List;
  15:src/../h/riscv.hpp **** class Riscv
  16:src/../h/riscv.hpp **** {
  17:src/../h/riscv.hpp **** public:
  18:src/../h/riscv.hpp **** 
  19:src/../h/riscv.hpp ****     // pop sstatus.spp and sstatus.spie bits (has to be a non inline function)
  20:src/../h/riscv.hpp ****     static void popSppSpie();
GAS LISTING /tmp/ccYSazPS.s 			page 3


  21:src/../h/riscv.hpp **** 
  22:src/../h/riscv.hpp ****     // read register scause
  23:src/../h/riscv.hpp ****     static uint64 r_scause();
  24:src/../h/riscv.hpp **** 
  25:src/../h/riscv.hpp ****     // write register scause
  26:src/../h/riscv.hpp ****     static void w_scause(uint64 scause);
  27:src/../h/riscv.hpp **** 
  28:src/../h/riscv.hpp ****     // read register sepc
  29:src/../h/riscv.hpp ****     static uint64 r_sepc();
  30:src/../h/riscv.hpp **** 
  31:src/../h/riscv.hpp ****     // write register sepc
  32:src/../h/riscv.hpp ****     static void w_sepc(uint64 sepc);
  33:src/../h/riscv.hpp **** 
  34:src/../h/riscv.hpp ****     // read register stvec
  35:src/../h/riscv.hpp ****     static uint64 r_stvec();
  36:src/../h/riscv.hpp **** 
  37:src/../h/riscv.hpp ****     // write register stvec
  38:src/../h/riscv.hpp ****     static void w_stvec(uint64 stvec);
  39:src/../h/riscv.hpp **** 
  40:src/../h/riscv.hpp ****     // read register stval
  41:src/../h/riscv.hpp ****     static uint64 r_stval();
  42:src/../h/riscv.hpp **** 
  43:src/../h/riscv.hpp ****     // write register stval
  44:src/../h/riscv.hpp ****     static void w_stval(uint64 stval);
  45:src/../h/riscv.hpp **** 
  46:src/../h/riscv.hpp ****     enum BitMaskSip
  47:src/../h/riscv.hpp ****     {
  48:src/../h/riscv.hpp ****         SIP_SSIP = (1 << 1),
  49:src/../h/riscv.hpp ****         SIP_STIP = (1 << 5),
  50:src/../h/riscv.hpp ****         SIP_SEIP = (1 << 9),
  51:src/../h/riscv.hpp ****     };
  52:src/../h/riscv.hpp **** 
  53:src/../h/riscv.hpp ****     // mask set register sip
  54:src/../h/riscv.hpp ****     static void ms_sip(uint64 mask);
  55:src/../h/riscv.hpp **** 
  56:src/../h/riscv.hpp ****     // mask clear register sip
  57:src/../h/riscv.hpp ****     static void mc_sip(uint64 mask);
  58:src/../h/riscv.hpp **** 
  59:src/../h/riscv.hpp ****     // read register sip
  60:src/../h/riscv.hpp ****     static uint64 r_sip();
  61:src/../h/riscv.hpp **** 
  62:src/../h/riscv.hpp ****     // write register sip
  63:src/../h/riscv.hpp ****     static void w_sip(uint64 sip);
  64:src/../h/riscv.hpp **** 
  65:src/../h/riscv.hpp ****     enum BitMaskSstatus
  66:src/../h/riscv.hpp ****     {
  67:src/../h/riscv.hpp ****         SSTATUS_SIE = (1 << 1),
  68:src/../h/riscv.hpp ****         SSTATUS_SPIE = (1 << 5),
  69:src/../h/riscv.hpp ****         SSTATUS_SPP = (1 << 8),
  70:src/../h/riscv.hpp ****     };
  71:src/../h/riscv.hpp **** 
  72:src/../h/riscv.hpp ****     // mask set register sstatus
  73:src/../h/riscv.hpp ****     static void ms_sstatus(uint64 mask);
  74:src/../h/riscv.hpp **** 
  75:src/../h/riscv.hpp ****     // mask clear register sstatus
  76:src/../h/riscv.hpp ****     static void mc_sstatus(uint64 mask);
  77:src/../h/riscv.hpp **** 
GAS LISTING /tmp/ccYSazPS.s 			page 4


  78:src/../h/riscv.hpp ****     // read register sstatus
  79:src/../h/riscv.hpp ****     static uint64 r_sstatus();
  80:src/../h/riscv.hpp **** 
  81:src/../h/riscv.hpp ****     // write register sstatus
  82:src/../h/riscv.hpp ****     static void w_sstatus(uint64 sstatus);
  83:src/../h/riscv.hpp **** 
  84:src/../h/riscv.hpp ****     // supervisor trap
  85:src/../h/riscv.hpp ****     static void supervisorTrap();
  86:src/../h/riscv.hpp ****     static char ttt;
  87:src/../h/riscv.hpp ****     static KeyboardBuffer buff1, buff2;
  88:src/../h/riscv.hpp **** private:
  89:src/../h/riscv.hpp **** 
  90:src/../h/riscv.hpp ****     // supervisor trap handler
  91:src/../h/riscv.hpp ****     static void handleSupervisorTrap();
  92:src/../h/riscv.hpp ****     friend class _thread;
  93:src/../h/riscv.hpp ****     static List<_thread> sleepingThreads;
  94:src/../h/riscv.hpp **** 
  95:src/../h/riscv.hpp **** };
  96:src/../h/riscv.hpp **** 
  97:src/../h/riscv.hpp **** inline uint64 Riscv::r_scause()
  98:src/../h/riscv.hpp **** {
  99:src/../h/riscv.hpp ****     uint64 volatile scause;
 100:src/../h/riscv.hpp ****     __asm__ volatile ("csrr %[scause], scause" : [scause] "=r"(scause));
 101:src/../h/riscv.hpp ****     return scause;
 102:src/../h/riscv.hpp **** }
 103:src/../h/riscv.hpp **** 
 104:src/../h/riscv.hpp **** inline void Riscv::w_scause(uint64 scause)
 105:src/../h/riscv.hpp **** {
 106:src/../h/riscv.hpp ****     __asm__ volatile ("csrw scause, %[scause]" : : [scause] "r"(scause));
 107:src/../h/riscv.hpp **** }
 108:src/../h/riscv.hpp **** 
 109:src/../h/riscv.hpp **** inline uint64 Riscv::r_sepc()
 110:src/../h/riscv.hpp **** {
 111:src/../h/riscv.hpp ****     uint64 volatile sepc;
 112:src/../h/riscv.hpp ****     __asm__ volatile ("csrr %[sepc], sepc" : [sepc] "=r"(sepc));
 113:src/../h/riscv.hpp ****     return sepc;
 114:src/../h/riscv.hpp **** }
 115:src/../h/riscv.hpp **** 
 116:src/../h/riscv.hpp **** inline void Riscv::w_sepc(uint64 sepc)
 117:src/../h/riscv.hpp **** {
 118:src/../h/riscv.hpp ****     __asm__ volatile ("csrw sepc, %[sepc]" : : [sepc] "r"(sepc));
 119:src/../h/riscv.hpp **** }
 120:src/../h/riscv.hpp **** 
 121:src/../h/riscv.hpp **** inline uint64 Riscv::r_stvec()
 122:src/../h/riscv.hpp **** {
 123:src/../h/riscv.hpp ****     uint64 volatile stvec;
 124:src/../h/riscv.hpp ****     __asm__ volatile ("csrr %[stvec], stvec" : [stvec] "=r"(stvec));
 125:src/../h/riscv.hpp ****     return stvec;
 126:src/../h/riscv.hpp **** }
 127:src/../h/riscv.hpp **** 
 128:src/../h/riscv.hpp **** inline void Riscv::w_stvec(uint64 stvec)
 129:src/../h/riscv.hpp **** {
 130:src/../h/riscv.hpp ****     __asm__ volatile ("csrw stvec, %[stvec]" : : [stvec] "r"(stvec));
  70              		.loc 2 130 5 is_stmt 1
  71              		.loc 2 130 69 is_stmt 0
  72              	#APP
  73              	# 130 "src/../h/riscv.hpp" 1
GAS LISTING /tmp/ccYSazPS.s 			page 5


 131              	}
  74              		csrw stvec, a5
  75              	# 0 "" 2
  76              	.LVL3:
  77              	#NO_APP
  78              	.LBE7:
  79              	.LBE6:
  24:src/main.cpp  **** 
  25:src/main.cpp  **** //    thread_t main, console, user;
  26:src/main.cpp  ****     _thread *threads[3];
  80              		.loc 1 26 5 is_stmt 1
  27:src/main.cpp  ****     thread_create(&threads[1], &_thread::consoleWrite, nullptr);
  81              		.loc 1 27 5
  82              		.loc 1 27 18 is_stmt 0
  83 0050 13060000 		li	a2,0
  84 0054 97050000 		la	a1,_ZN7_thread12consoleWriteEPv
  84      83B50500 
  85 005c 130504FE 		addi	a0,s0,-32
  86 0060 97000000 		call	_Z13thread_createPP7_threadPFvPvES2_@plt
  86      E7800000 
  87              	.LVL4:
  28:src/main.cpp  ****     thread_create(&threads[0], nullptr, nullptr);
  88              		.loc 1 28 5 is_stmt 1
  89              		.loc 1 28 18 is_stmt 0
  90 0068 13060000 		li	a2,0
  91 006c 93050000 		li	a1,0
  92 0070 130584FD 		addi	a0,s0,-40
  93 0074 97000000 		call	_Z13thread_createPP7_threadPFvPvES2_@plt
  93      E7800000 
  94              	.LVL5:
  29:src/main.cpp  ****     _thread::running = threads[0];
  95              		.loc 1 29 5 is_stmt 1
  96              		.loc 1 29 22 is_stmt 0
  97 007c 033784FD 		ld	a4,-40(s0)
  98 0080 97070000 		la	a5,_ZN7_thread7runningE
  98      83B70700 
  99 0088 23B0E700 		sd	a4,0(a5)
  30:src/main.cpp  **** 
  31:src/main.cpp  ****     if(Riscv::buff2.itemAvailable == nullptr){
 100              		.loc 1 31 5 is_stmt 1
 101              		.loc 1 31 21 is_stmt 0
 102 008c 97070000 		la	a5,_ZN5Riscv5buff2E
 102      83B70700 
 103 0094 83B70700 		ld	a5,0(a5)
 104              		.loc 1 31 5
 105 0098 63860704 		beqz	a5,.L9
 106              	.L4:
  32:src/main.cpp  ****         _sem::createSem(&Riscv::buff2.itemAvailable, 0);
  33:src/main.cpp  ****     }
  34:src/main.cpp  ****     if(Riscv::buff1.itemAvailable == nullptr){
 107              		.loc 1 34 5 is_stmt 1
 108              		.loc 1 34 21 is_stmt 0
 109 009c 97070000 		la	a5,_ZN5Riscv5buff1E
 109      83B70700 
 110 00a4 83B70700 		ld	a5,0(a5)
 111              		.loc 1 34 5
 112 00a8 638A0704 		beqz	a5,.L10
GAS LISTING /tmp/ccYSazPS.s 			page 6


 113              	.L5:
  35:src/main.cpp  ****         _sem::createSem(&Riscv::buff1.itemAvailable, 0);
  36:src/main.cpp  ****     }
  37:src/main.cpp  **** //    thread_create(&main, nullptr, nullptr);
  38:src/main.cpp  **** //    thread_create(&console, &_thread::consoleWrite, nullptr);
  39:src/main.cpp  **** //
  40:src/main.cpp  **** //    thread_create(&user, wrp, nullptr);
  41:src/main.cpp  **** 
  42:src/main.cpp  **** 
  43:src/main.cpp  **** 
  44:src/main.cpp  **** 
  45:src/main.cpp  ****     thread_create(&threads[2], wrp, nullptr);
 114              		.loc 1 45 5 is_stmt 1
 115              		.loc 1 45 18 is_stmt 0
 116 00ac 13060000 		li	a2,0
 117 00b0 97050000 		lla	a1,_Z3wrpPv
 117      93850500 
 118 00b8 130584FE 		addi	a0,s0,-24
 119 00bc 97000000 		call	_Z13thread_createPP7_threadPFvPvES2_@plt
 119      E7800000 
 120              	.LVL6:
  46:src/main.cpp  **** 
  47:src/main.cpp  **** 
  48:src/main.cpp  ****     Riscv::ms_sstatus(Riscv::SSTATUS_SIE);
 121              		.loc 1 48 5 is_stmt 1
 122              	.LBB8:
 123              	.LBB9:
 132:src/../h/riscv.hpp **** 
 133:src/../h/riscv.hpp **** inline uint64 Riscv::r_stval()
 134:src/../h/riscv.hpp **** {
 135:src/../h/riscv.hpp ****     uint64 volatile stval;
 136:src/../h/riscv.hpp ****     __asm__ volatile ("csrr %[stval], stval" : [stval] "=r"(stval));
 137:src/../h/riscv.hpp ****     return stval;
 138:src/../h/riscv.hpp **** }
 139:src/../h/riscv.hpp **** 
 140:src/../h/riscv.hpp **** inline void Riscv::w_stval(uint64 stval)
 141:src/../h/riscv.hpp **** {
 142:src/../h/riscv.hpp ****     __asm__ volatile ("csrw stval, %[stval]" : : [stval] "r"(stval));
 143:src/../h/riscv.hpp **** }
 144:src/../h/riscv.hpp **** 
 145:src/../h/riscv.hpp **** inline void Riscv::ms_sip(uint64 mask)
 146:src/../h/riscv.hpp **** {
 147:src/../h/riscv.hpp ****     __asm__ volatile ("csrs sip, %[mask]" : : [mask] "r"(mask));
 148:src/../h/riscv.hpp **** }
 149:src/../h/riscv.hpp **** 
 150:src/../h/riscv.hpp **** inline void Riscv::mc_sip(uint64 mask)
 151:src/../h/riscv.hpp **** {
 152:src/../h/riscv.hpp ****     __asm__ volatile ("csrc sip, %[mask]" : : [mask] "r"(mask));
 153:src/../h/riscv.hpp **** }
 154:src/../h/riscv.hpp **** 
 155:src/../h/riscv.hpp **** inline uint64 Riscv::r_sip()
 156:src/../h/riscv.hpp **** {
 157:src/../h/riscv.hpp ****     uint64 volatile sip;
 158:src/../h/riscv.hpp ****     __asm__ volatile ("csrr %[sip], sip" : [sip] "=r"(sip));
 159:src/../h/riscv.hpp ****     return sip;
 160:src/../h/riscv.hpp **** }
 161:src/../h/riscv.hpp **** 
GAS LISTING /tmp/ccYSazPS.s 			page 7


 162:src/../h/riscv.hpp **** inline void Riscv::w_sip(uint64 sip)
 163:src/../h/riscv.hpp **** {
 164:src/../h/riscv.hpp ****     __asm__ volatile ("csrw sip, %[sip]" : : [sip] "r"(sip));
 165:src/../h/riscv.hpp **** }
 166:src/../h/riscv.hpp **** 
 167:src/../h/riscv.hpp **** inline void Riscv::ms_sstatus(uint64 mask)
 168:src/../h/riscv.hpp **** {
 169:src/../h/riscv.hpp ****     __asm__ volatile ("csrs sstatus, %[mask]" : : [mask] "r"(mask));
 124              		.loc 2 169 5
 125              		.loc 2 169 68 is_stmt 0
 126 00c4 93072000 		li	a5,2
 127              	#APP
 128              	# 169 "src/../h/riscv.hpp" 1
 170              	}
 129              		csrs sstatus, a5
 130              	# 0 "" 2
 131              	.LVL7:
 132              	#NO_APP
 133              	.L7:
 134              	.LBE9:
 135              	.LBE8:
  49:src/main.cpp  **** 
  50:src/main.cpp  ****     while (!finishedd)
 136              		.loc 1 50 5 is_stmt 1
 137              		.loc 1 50 12
 138 00cc 97070000 		lbu	a5,.LANCHOR0
 138      83C70700 
 139 00d4 63900704 		bnez	a5,.L6
  51:src/main.cpp  ****     {
  52:src/main.cpp  ****         thread_dispatch();
 140              		.loc 1 52 9
 141              		.loc 1 52 24 is_stmt 0
 142 00d8 97000000 		call	_Z15thread_dispatchv@plt
 142      E7800000 
 143              	.LVL8:
 144 00e0 6FF0DFFE 		j	.L7
 145              	.L9:
  32:src/main.cpp  ****     }
 146              		.loc 1 32 9 is_stmt 1
  32:src/main.cpp  ****     }
 147              		.loc 1 32 24 is_stmt 0
 148 00e4 93050000 		li	a1,0
 149 00e8 17050000 		la	a0,_ZN5Riscv5buff2E
 149      03350500 
 150 00f0 97000000 		call	_ZN4_sem9createSemEPPS_m@plt
 150      E7800000 
 151              	.LVL9:
 152 00f8 6FF05FFA 		j	.L4
 153              	.L10:
  35:src/main.cpp  ****     }
 154              		.loc 1 35 9 is_stmt 1
  35:src/main.cpp  ****     }
 155              		.loc 1 35 24 is_stmt 0
 156 00fc 93050000 		li	a1,0
 157 0100 17050000 		la	a0,_ZN5Riscv5buff1E
 157      03350500 
 158 0108 97000000 		call	_ZN4_sem9createSemEPPS_m@plt
GAS LISTING /tmp/ccYSazPS.s 			page 8


 158      E7800000 
 159              	.LVL10:
 160 0110 6FF0DFF9 		j	.L5
 161              	.L6:
  53:src/main.cpp  ****     }
  54:src/main.cpp  **** 
  55:src/main.cpp  ****     printStringO("Finished\n");
 162              		.loc 1 55 5 is_stmt 1
 163              		.loc 1 55 17 is_stmt 0
 164 0114 17050000 		lla	a0,.LC0
 164      13050500 
 165 011c 97000000 		call	_Z12printStringOPKc@plt
 165      E7800000 
 166              	.LVL11:
  56:src/main.cpp  **** 
  57:src/main.cpp  ****     return 0;
 167              		.loc 1 57 5 is_stmt 1
  58:src/main.cpp  **** }
 168              		.loc 1 58 1 is_stmt 0
 169 0124 13050000 		li	a0,0
 170 0128 83308102 		ld	ra,40(sp)
 171              		.cfi_restore 1
 172 012c 03340102 		ld	s0,32(sp)
 173              		.cfi_restore 8
 174              		.cfi_def_cfa 2, 48
 175 0130 13010103 		addi	sp,sp,48
 176              		.cfi_def_cfa_offset 0
 177 0134 67800000 		jr	ra
 178              		.cfi_endproc
 179              	.LFE52:
 181              		.globl	finishedd
 182              		.bss
 183              		.set	.LANCHOR0,. + 0
 186              	finishedd:
 187 0000 00       		.zero	1
 188              		.text
 189              	.Letext0:
 190              		.file 3 "src/../h/../lib/hw.h"
 191              		.file 4 "src/../h/syscall_c.h"
 192              		.file 5 "src/../h/tcb.hpp"
 193              		.file 6 "src/../h/_sem.hpp"
 194              		.file 7 "src/../h/list.hpp"
 195              		.file 8 "src/../h/_buffer.hpp"
 196              		.file 9 "src/../h/../h/print.hpp"
GAS LISTING /tmp/ccYSazPS.s 			page 9


DEFINED SYMBOLS
                            *ABS*:0000000000000000 main.cpp
     /tmp/ccYSazPS.s:9      .text:0000000000000000 _Z3wrpPv
     /tmp/ccYSazPS.s:13     .text:0000000000000000 .L0 
     /tmp/ccYSazPS.s:15     .text:0000000000000000 .L0 
     /tmp/ccYSazPS.s:16     .text:0000000000000004 .L0 
     /tmp/ccYSazPS.s:19     .text:000000000000000c .L0 
     /tmp/ccYSazPS.s:20     .text:000000000000000c .L0 
     /tmp/ccYSazPS.s:22     .text:0000000000000010 .L0 
     /tmp/ccYSazPS.s:24     .text:0000000000000010 .L0 
     /tmp/ccYSazPS.s:25     .text:0000000000000010 .L0 
     /tmp/ccYSazPS.s:28     .text:0000000000000018 .L0 
     /tmp/ccYSazPS.s:29     .text:0000000000000018 .L0 
     /tmp/ccYSazPS.s:32     .text:0000000000000024 .L0 
     /tmp/ccYSazPS.s:33     .text:0000000000000028 .L0 
     /tmp/ccYSazPS.s:35     .text:000000000000002c .L0 
     /tmp/ccYSazPS.s:36     .text:000000000000002c .L0 
     /tmp/ccYSazPS.s:38     .text:0000000000000030 .L0 
     /tmp/ccYSazPS.s:40     .text:0000000000000034 .L0 
     /tmp/ccYSazPS.s:51     .text:0000000000000034 main
     /tmp/ccYSazPS.s:54     .text:0000000000000034 .L0 
     /tmp/ccYSazPS.s:55     .text:0000000000000034 .L0 
     /tmp/ccYSazPS.s:56     .text:0000000000000038 .L0 
     /tmp/ccYSazPS.s:59     .text:0000000000000040 .L0 
     /tmp/ccYSazPS.s:60     .text:0000000000000040 .L0 
     /tmp/ccYSazPS.s:62     .text:0000000000000044 .L0 
     /tmp/ccYSazPS.s:64     .text:0000000000000044 .L0 
     /tmp/ccYSazPS.s:65     .text:0000000000000044 .L0 
     /tmp/ccYSazPS.s:71     .text:000000000000004c .L0 
  src/../h/riscv.hpp:130    .text:000000000000004c .L0 
     /tmp/ccYSazPS.s:81     .text:0000000000000050 .L0 
     /tmp/ccYSazPS.s:82     .text:0000000000000050 .L0 
     /tmp/ccYSazPS.s:83     .text:0000000000000050 .L0 
     /tmp/ccYSazPS.s:89     .text:0000000000000068 .L0 
     /tmp/ccYSazPS.s:90     .text:0000000000000068 .L0 
     /tmp/ccYSazPS.s:96     .text:000000000000007c .L0 
     /tmp/ccYSazPS.s:97     .text:000000000000007c .L0 
     /tmp/ccYSazPS.s:101    .text:000000000000008c .L0 
     /tmp/ccYSazPS.s:102    .text:000000000000008c .L0 
     /tmp/ccYSazPS.s:105    .text:0000000000000098 .L0 
     /tmp/ccYSazPS.s:108    .text:000000000000009c .L0 
     /tmp/ccYSazPS.s:109    .text:000000000000009c .L0 
     /tmp/ccYSazPS.s:112    .text:00000000000000a8 .L0 
     /tmp/ccYSazPS.s:115    .text:00000000000000ac .L0 
     /tmp/ccYSazPS.s:116    .text:00000000000000ac .L0 
     /tmp/ccYSazPS.s:124    .text:00000000000000c4 .L0 
     /tmp/ccYSazPS.s:125    .text:00000000000000c4 .L0 
     /tmp/ccYSazPS.s:126    .text:00000000000000c4 .L0 
     /tmp/ccYSazPS.s:137    .text:00000000000000cc .L0 
     /tmp/ccYSazPS.s:138    .text:00000000000000cc .L0 
     /tmp/ccYSazPS.s:141    .text:00000000000000d8 .L0 
     /tmp/ccYSazPS.s:142    .text:00000000000000d8 .L0 
     /tmp/ccYSazPS.s:147    .text:00000000000000e4 .L0 
     /tmp/ccYSazPS.s:148    .text:00000000000000e4 .L0 
     /tmp/ccYSazPS.s:155    .text:00000000000000fc .L0 
     /tmp/ccYSazPS.s:156    .text:00000000000000fc .L0 
     /tmp/ccYSazPS.s:163    .text:0000000000000114 .L0 
GAS LISTING /tmp/ccYSazPS.s 			page 10


     /tmp/ccYSazPS.s:164    .text:0000000000000114 .L0 
     /tmp/ccYSazPS.s:168    .text:0000000000000124 .L0 
     /tmp/ccYSazPS.s:169    .text:0000000000000124 .L0 
     /tmp/ccYSazPS.s:171    .text:000000000000012c .L0 
     /tmp/ccYSazPS.s:173    .text:0000000000000130 .L0 
     /tmp/ccYSazPS.s:174    .text:0000000000000130 .L0 
     /tmp/ccYSazPS.s:176    .text:0000000000000134 .L0 
     /tmp/ccYSazPS.s:178    .text:0000000000000138 .L0 
     /tmp/ccYSazPS.s:186    .bss:0000000000000000 finishedd
     /tmp/ccYSazPS.s:183    .bss:0000000000000000 .LANCHOR0
     /tmp/ccYSazPS.s:197    .text:0000000000000138 .L0 
     /tmp/ccYSazPS.s:30     .text:000000000000001c .L0 
     /tmp/ccYSazPS.s:65     .text:0000000000000044 .L0 
     /tmp/ccYSazPS.s:84     .text:0000000000000054 .L0 
     /tmp/ccYSazPS.s:98     .text:0000000000000080 .L0 
     /tmp/ccYSazPS.s:102    .text:000000000000008c .L0 
     /tmp/ccYSazPS.s:109    .text:000000000000009c .L0 
     /tmp/ccYSazPS.s:117    .text:00000000000000b0 .L0 
     /tmp/ccYSazPS.s:138    .text:00000000000000cc .L0 
     /tmp/ccYSazPS.s:149    .text:00000000000000e8 .L0 
     /tmp/ccYSazPS.s:157    .text:0000000000000100 .L0 
     /tmp/ccYSazPS.s:45     .rodata.str1.8:0000000000000000 .LC0
     /tmp/ccYSazPS.s:164    .text:0000000000000114 .L0 
     /tmp/ccYSazPS.s:145    .text:00000000000000e4 .L9
     /tmp/ccYSazPS.s:153    .text:00000000000000fc .L10
     /tmp/ccYSazPS.s:161    .text:0000000000000114 .L6
     /tmp/ccYSazPS.s:133    .text:00000000000000cc .L7
     /tmp/ccYSazPS.s:106    .text:000000000000009c .L4
     /tmp/ccYSazPS.s:113    .text:00000000000000ac .L5
     /tmp/ccYSazPS.s:1686   .debug_abbrev:0000000000000000 .Ldebug_abbrev0
     /tmp/ccYSazPS.s:3088   .debug_str:000000000000091a .LASF186
     /tmp/ccYSazPS.s:2866   .debug_str:0000000000000256 .LASF187
     /tmp/ccYSazPS.s:2876   .debug_str:0000000000000299 .LASF188
     /tmp/ccYSazPS.s:5      .text:0000000000000000 .Ltext0
     /tmp/ccYSazPS.s:189    .text:0000000000000138 .Letext0
     /tmp/ccYSazPS.s:2790   .debug_line:0000000000000000 .Ldebug_line0
     /tmp/ccYSazPS.s:2896   .debug_str:000000000000034a .LASF0
     /tmp/ccYSazPS.s:2924   .debug_str:0000000000000454 .LASF1
     /tmp/ccYSazPS.s:3020   .debug_str:000000000000073e .LASF2
     /tmp/ccYSazPS.s:3030   .debug_str:0000000000000794 .LASF4
     /tmp/ccYSazPS.s:2904   .debug_str:0000000000000380 .LASF3
     /tmp/ccYSazPS.s:2796   .debug_str:000000000000000b .LASF5
     /tmp/ccYSazPS.s:2992   .debug_str:000000000000066c .LASF6
     /tmp/ccYSazPS.s:2984   .debug_str:000000000000061c .LASF7
     /tmp/ccYSazPS.s:2914   .debug_str:00000000000003fc .LASF8
     /tmp/ccYSazPS.s:2874   .debug_str:0000000000000289 .LASF9
     /tmp/ccYSazPS.s:2880   .debug_str:00000000000002d3 .LASF10
     /tmp/ccYSazPS.s:2820   .debug_str:00000000000000da .LASF11
     /tmp/ccYSazPS.s:2862   .debug_str:0000000000000241 .LASF12
     /tmp/ccYSazPS.s:2828   .debug_str:0000000000000130 .LASF13
     /tmp/ccYSazPS.s:2818   .debug_str:00000000000000ca .LASF14
     /tmp/ccYSazPS.s:3064   .debug_str:00000000000008a1 .LASF15
     /tmp/ccYSazPS.s:2852   .debug_str:00000000000001ed .LASF16
     /tmp/ccYSazPS.s:3052   .debug_str:0000000000000838 .LASF17
     /tmp/ccYSazPS.s:3132   .debug_str:0000000000000b2a .LASF18
     /tmp/ccYSazPS.s:2808   .debug_str:000000000000007e .LASF45
     /tmp/ccYSazPS.s:3074   .debug_str:00000000000008d1 .LASF189
GAS LISTING /tmp/ccYSazPS.s 			page 11


     /tmp/ccYSazPS.s:3066   .debug_str:00000000000008ad .LASF19
     /tmp/ccYSazPS.s:2920   .debug_str:000000000000043b .LASF21
     /tmp/ccYSazPS.s:3076   .debug_str:00000000000008d9 .LASF23
     /tmp/ccYSazPS.s:3058   .debug_str:0000000000000865 .LASF25
     /tmp/ccYSazPS.s:2810   .debug_str:0000000000000086 .LASF20
     /tmp/ccYSazPS.s:3124   .debug_str:0000000000000ad6 .LASF22
     /tmp/ccYSazPS.s:2928   .debug_str:000000000000046d .LASF24
     /tmp/ccYSazPS.s:2816   .debug_str:00000000000000ad .LASF26
     /tmp/ccYSazPS.s:3118   .debug_str:0000000000000aae .LASF27
     /tmp/ccYSazPS.s:3078   .debug_str:00000000000008e4 .LASF28
     /tmp/ccYSazPS.s:3006   .debug_str:00000000000006cb .LASF29
     /tmp/ccYSazPS.s:2848   .debug_str:00000000000001c8 .LASF30
     /tmp/ccYSazPS.s:2854   .debug_str:0000000000000203 .LASF31
     /tmp/ccYSazPS.s:2986   .debug_str:000000000000062f .LASF32
     /tmp/ccYSazPS.s:3170   .debug_str:0000000000000c53 .LASF33
     /tmp/ccYSazPS.s:2994   .debug_str:0000000000000673 .LASF34
     /tmp/ccYSazPS.s:3062   .debug_str:0000000000000894 .LASF35
     /tmp/ccYSazPS.s:2950   .debug_str:0000000000000502 .LASF36
     /tmp/ccYSazPS.s:2980   .debug_str:000000000000060a .LASF190
     /tmp/ccYSazPS.s:3044   .debug_str:00000000000007e5 .LASF37
     /tmp/ccYSazPS.s:2926   .debug_str:0000000000000467 .LASF38
     /tmp/ccYSazPS.s:2966   .debug_str:0000000000000580 .LASF40
     /tmp/ccYSazPS.s:3084   .debug_str:0000000000000905 .LASF121
     /tmp/ccYSazPS.s:2998   .debug_str:000000000000068e .LASF44
     /tmp/ccYSazPS.s:3156   .debug_str:0000000000000bee .LASF46
     /tmp/ccYSazPS.s:2982   .debug_str:000000000000060f .LASF39
     /tmp/ccYSazPS.s:3090   .debug_str:00000000000009de .LASF41
     /tmp/ccYSazPS.s:2840   .debug_str:0000000000000188 .LASF42
     /tmp/ccYSazPS.s:2834   .debug_str:0000000000000153 .LASF43
     /tmp/ccYSazPS.s:3180   .debug_str:0000000000000c9b .LASF47
     /tmp/ccYSazPS.s:3176   .debug_str:0000000000000c67 .LASF48
     /tmp/ccYSazPS.s:2794   .debug_str:0000000000000006 .LASF49
     /tmp/ccYSazPS.s:3174   .debug_str:0000000000000c61 .LASF50
     /tmp/ccYSazPS.s:3102   .debug_str:0000000000000a2b .LASF51
     /tmp/ccYSazPS.s:3098   .debug_str:0000000000000a1b .LASF52
     /tmp/ccYSazPS.s:3050   .debug_str:000000000000082f .LASF53
     /tmp/ccYSazPS.s:3114   .debug_str:0000000000000a9c .LASF54
     /tmp/ccYSazPS.s:2976   .debug_str:00000000000005ed .LASF55
     /tmp/ccYSazPS.s:3072   .debug_str:00000000000008c8 .LASF56
     /tmp/ccYSazPS.s:2946   .debug_str:00000000000004ea .LASF57
     /tmp/ccYSazPS.s:2812   .debug_str:0000000000000092 .LASF168
     /tmp/ccYSazPS.s:3008   .debug_str:00000000000006db .LASF170
     /tmp/ccYSazPS.s:2832   .debug_str:0000000000000145 .LASF191
     /tmp/ccYSazPS.s:2906   .debug_str:0000000000000392 .LASF192
     /tmp/ccYSazPS.s:3070   .debug_str:00000000000008bd .LASF58
     /tmp/ccYSazPS.s:3146   .debug_str:0000000000000b8a .LASF59
     /tmp/ccYSazPS.s:2804   .debug_str:0000000000000055 .LASF60
     /tmp/ccYSazPS.s:2908   .debug_str:00000000000003be .LASF61
     /tmp/ccYSazPS.s:3040   .debug_str:00000000000007c9 .LASF117
     /tmp/ccYSazPS.s:3028   .debug_str:0000000000000789 .LASF62
     /tmp/ccYSazPS.s:3162   .debug_str:0000000000000c1c .LASF63
     /tmp/ccYSazPS.s:3164   .debug_str:0000000000000c27 .LASF64
     /tmp/ccYSazPS.s:3080   .debug_str:00000000000008fb .LASF65
     /tmp/ccYSazPS.s:3048   .debug_str:0000000000000825 .LASF66
     /tmp/ccYSazPS.s:2916   .debug_str:000000000000040f .LASF67
     /tmp/ccYSazPS.s:2850   .debug_str:00000000000001e7 .LASF68
     /tmp/ccYSazPS.s:2872   .debug_str:000000000000027c .LASF69
GAS LISTING /tmp/ccYSazPS.s 			page 12


     /tmp/ccYSazPS.s:2842   .debug_str:0000000000000191 .LASF70
     /tmp/ccYSazPS.s:2960   .debug_str:0000000000000552 .LASF71
     /tmp/ccYSazPS.s:3068   .debug_str:00000000000008b6 .LASF72
     /tmp/ccYSazPS.s:3054   .debug_str:000000000000084e .LASF73
     /tmp/ccYSazPS.s:2888   .debug_str:0000000000000314 .LASF74
     /tmp/ccYSazPS.s:3096   .debug_str:0000000000000a0a .LASF75
     /tmp/ccYSazPS.s:3160   .debug_str:0000000000000c10 .LASF76
     /tmp/ccYSazPS.s:2972   .debug_str:00000000000005b3 .LASF77
     /tmp/ccYSazPS.s:2814   .debug_str:00000000000000a0 .LASF78
     /tmp/ccYSazPS.s:2894   .debug_str:0000000000000344 .LASF79
     /tmp/ccYSazPS.s:2860   .debug_str:0000000000000230 .LASF80
     /tmp/ccYSazPS.s:3172   .debug_str:0000000000000c59 .LASF81
     /tmp/ccYSazPS.s:3138   .debug_str:0000000000000b5e .LASF82
     /tmp/ccYSazPS.s:3014   .debug_str:0000000000000717 .LASF83
     /tmp/ccYSazPS.s:3184   .debug_str:0000000000000cb9 .LASF84
     /tmp/ccYSazPS.s:2830   .debug_str:0000000000000140 .LASF193
     /tmp/ccYSazPS.s:3056   .debug_str:0000000000000860 .LASF85
     /tmp/ccYSazPS.s:2938   .debug_str:00000000000004a0 .LASF86
     /tmp/ccYSazPS.s:2958   .debug_str:000000000000054d .LASF87
     /tmp/ccYSazPS.s:3126   .debug_str:0000000000000af1 .LASF88
     /tmp/ccYSazPS.s:2858   .debug_str:0000000000000215 .LASF89
     /tmp/ccYSazPS.s:3022   .debug_str:000000000000074c .LASF194
     /tmp/ccYSazPS.s:2884   .debug_str:00000000000002ee .LASF195
     /tmp/ccYSazPS.s:3116   .debug_str:0000000000000aa1 .LASF90
     /tmp/ccYSazPS.s:2802   .debug_str:0000000000000032 .LASF91
     /tmp/ccYSazPS.s:2922   .debug_str:000000000000044b .LASF92
     /tmp/ccYSazPS.s:2944   .debug_str:00000000000004c9 .LASF93
     /tmp/ccYSazPS.s:2936   .debug_str:0000000000000498 .LASF94
     /tmp/ccYSazPS.s:2988   .debug_str:0000000000000643 .LASF95
     /tmp/ccYSazPS.s:3032   .debug_str:000000000000079b .LASF96
     /tmp/ccYSazPS.s:2974   .debug_str:00000000000005cb .LASF97
     /tmp/ccYSazPS.s:3186   .debug_str:0000000000000cc7 .LASF98
     /tmp/ccYSazPS.s:3168   .debug_str:0000000000000c34 .LASF99
     /tmp/ccYSazPS.s:3042   .debug_str:00000000000007da .LASF100
     /tmp/ccYSazPS.s:3136   .debug_str:0000000000000b3d .LASF101
     /tmp/ccYSazPS.s:3004   .debug_str:00000000000006c2 .LASF102
     /tmp/ccYSazPS.s:2824   .debug_str:00000000000000fc .LASF103
     /tmp/ccYSazPS.s:3108   .debug_str:0000000000000a74 .LASF104
     /tmp/ccYSazPS.s:3106   .debug_str:0000000000000a48 .LASF105
     /tmp/ccYSazPS.s:2962   .debug_str:0000000000000562 .LASF106
     /tmp/ccYSazPS.s:2846   .debug_str:000000000000019c .LASF107
     /tmp/ccYSazPS.s:3112   .debug_str:0000000000000a8f .LASF108
     /tmp/ccYSazPS.s:2806   .debug_str:000000000000005b .LASF109
     /tmp/ccYSazPS.s:2940   .debug_str:00000000000004a5 .LASF110
     /tmp/ccYSazPS.s:2898   .debug_str:0000000000000357 .LASF111
     /tmp/ccYSazPS.s:2968   .debug_str:0000000000000594 .LASF112
     /tmp/ccYSazPS.s:3158   .debug_str:0000000000000c0b .LASF113
     /tmp/ccYSazPS.s:3026   .debug_str:000000000000076e .LASF114
     /tmp/ccYSazPS.s:2956   .debug_str:0000000000000546 .LASF115
     /tmp/ccYSazPS.s:3128   .debug_str:0000000000000b08 .LASF116
     /tmp/ccYSazPS.s:2948   .debug_str:00000000000004f4 .LASF118
     /tmp/ccYSazPS.s:3094   .debug_str:0000000000000a01 .LASF119
     /tmp/ccYSazPS.s:2942   .debug_str:00000000000004aa .LASF120
     /tmp/ccYSazPS.s:2912   .debug_str:00000000000003f4 .LASF122
     /tmp/ccYSazPS.s:3092   .debug_str:00000000000009fa .LASF123
     /tmp/ccYSazPS.s:2792   .debug_str:0000000000000000 .LASF124
     /tmp/ccYSazPS.s:3082   .debug_str:0000000000000900 .LASF125
GAS LISTING /tmp/ccYSazPS.s 			page 13


     /tmp/ccYSazPS.s:3140   .debug_str:0000000000000b71 .LASF126
     /tmp/ccYSazPS.s:3120   .debug_str:0000000000000ab7 .LASF196
     /tmp/ccYSazPS.s:2856   .debug_str:0000000000000209 .LASF127
     /tmp/ccYSazPS.s:3086   .debug_str:000000000000090d .LASF128
     /tmp/ccYSazPS.s:2836   .debug_str:000000000000016a .LASF129
     /tmp/ccYSazPS.s:2886   .debug_str:0000000000000309 .LASF130
     /tmp/ccYSazPS.s:2892   .debug_str:000000000000032c .LASF131
     /tmp/ccYSazPS.s:3110   .debug_str:0000000000000a86 .LASF134
     /tmp/ccYSazPS.s:3104   .debug_str:0000000000000a33 .LASF136
     /tmp/ccYSazPS.s:3016   .debug_str:000000000000072a .LASF132
     /tmp/ccYSazPS.s:2978   .debug_str:00000000000005f5 .LASF133
     /tmp/ccYSazPS.s:2996   .debug_str:0000000000000687 .LASF135
     /tmp/ccYSazPS.s:3000   .debug_str:000000000000069b .LASF137
     /tmp/ccYSazPS.s:2970   .debug_str:00000000000005ac .LASF138
     /tmp/ccYSazPS.s:2918   .debug_str:0000000000000428 .LASF139
     /tmp/ccYSazPS.s:3154   .debug_str:0000000000000be6 .LASF140
     /tmp/ccYSazPS.s:3060   .debug_str:0000000000000880 .LASF141
     /tmp/ccYSazPS.s:2964   .debug_str:0000000000000578 .LASF142
     /tmp/ccYSazPS.s:2868   .debug_str:0000000000000263 .LASF143
     /tmp/ccYSazPS.s:2932   .debug_str:000000000000048a .LASF144
     /tmp/ccYSazPS.s:3002   .debug_str:00000000000006ae .LASF145
     /tmp/ccYSazPS.s:3182   .debug_str:0000000000000cb1 .LASF146
     /tmp/ccYSazPS.s:2902   .debug_str:000000000000036c .LASF147
     /tmp/ccYSazPS.s:3166   .debug_str:0000000000000c2d .LASF148
     /tmp/ccYSazPS.s:3034   .debug_str:00000000000007a7 .LASF149
     /tmp/ccYSazPS.s:3036   .debug_str:00000000000007ba .LASF150
     /tmp/ccYSazPS.s:2822   .debug_str:00000000000000e9 .LASF151
     /tmp/ccYSazPS.s:2844   .debug_str:0000000000000196 .LASF152
     /tmp/ccYSazPS.s:2890   .debug_str:000000000000031a .LASF153
     /tmp/ccYSazPS.s:2900   .debug_str:0000000000000366 .LASF154
     /tmp/ccYSazPS.s:2838   .debug_str:0000000000000176 .LASF155
     /tmp/ccYSazPS.s:2798   .debug_str:0000000000000012 .LASF156
     /tmp/ccYSazPS.s:3024   .debug_str:0000000000000756 .LASF157
     /tmp/ccYSazPS.s:3018   .debug_str:0000000000000733 .LASF158
     /tmp/ccYSazPS.s:3178   .debug_str:0000000000000c83 .LASF159
     /tmp/ccYSazPS.s:3144   .debug_str:0000000000000b80 .LASF160
     /tmp/ccYSazPS.s:2826   .debug_str:000000000000011a .LASF161
     /tmp/ccYSazPS.s:3134   .debug_str:0000000000000b33 .LASF162
     /tmp/ccYSazPS.s:2952   .debug_str:0000000000000523 .LASF163
     /tmp/ccYSazPS.s:3150   .debug_str:0000000000000bc9 .LASF164
     /tmp/ccYSazPS.s:2878   .debug_str:00000000000002b7 .LASF165
     /tmp/ccYSazPS.s:2864   .debug_str:0000000000000250 .LASF166
     /tmp/ccYSazPS.s:3100   .debug_str:0000000000000a25 .LASF167
     /tmp/ccYSazPS.s:3010   .debug_str:00000000000006f8 .LASF169
     /tmp/ccYSazPS.s:2910   .debug_str:00000000000003d2 .LASF171
     /tmp/ccYSazPS.s:2930   .debug_str:000000000000047a .LASF172
     /tmp/ccYSazPS.s:3012   .debug_str:000000000000070d .LASF173
     /tmp/ccYSazPS.s:2870   .debug_str:0000000000000277 .LASF174
     /tmp/ccYSazPS.s:52     .text:0000000000000034 .LFB52
     /tmp/ccYSazPS.s:179    .text:0000000000000138 .LFE52
     /tmp/ccYSazPS.s:3038   .debug_str:00000000000007c1 .LASF175
     /tmp/ccYSazPS.s:67     .text:000000000000004c .LBB6
     /tmp/ccYSazPS.s:79     .text:0000000000000050 .LBE6
     /tmp/ccYSazPS.s:122    .text:00000000000000c4 .LBB8
     /tmp/ccYSazPS.s:135    .text:00000000000000cc .LBE8
     /tmp/ccYSazPS.s:2755   .debug_loc:0000000000000000 .LLST1
     /tmp/ccYSazPS.s:87     .text:0000000000000068 .LVL4
GAS LISTING /tmp/ccYSazPS.s 			page 14


     /tmp/ccYSazPS.s:94     .text:000000000000007c .LVL5
     /tmp/ccYSazPS.s:120    .text:00000000000000c4 .LVL6
     /tmp/ccYSazPS.s:143    .text:00000000000000e0 .LVL8
     /tmp/ccYSazPS.s:151    .text:00000000000000f8 .LVL9
     /tmp/ccYSazPS.s:159    .text:0000000000000110 .LVL10
     /tmp/ccYSazPS.s:166    .text:0000000000000124 .LVL11
     /tmp/ccYSazPS.s:3142   .debug_str:0000000000000b77 .LASF197
     /tmp/ccYSazPS.s:10     .text:0000000000000000 .LFB51
     /tmp/ccYSazPS.s:41     .text:0000000000000034 .LFE51
     /tmp/ccYSazPS.s:2763   .debug_loc:0000000000000024 .LLST0
     /tmp/ccYSazPS.s:26     .text:0000000000000018 .LVL1
     /tmp/ccYSazPS.s:3130   .debug_str:0000000000000b25 .LASF176
     /tmp/ccYSazPS.s:2934   .debug_str:0000000000000492 .LASF177
     /tmp/ccYSazPS.s:3148   .debug_str:0000000000000ba4 .LASF178
     /tmp/ccYSazPS.s:3152   .debug_str:0000000000000bd8 .LASF180
     /tmp/ccYSazPS.s:2800   .debug_str:000000000000001d .LASF179
     /tmp/ccYSazPS.s:3122   .debug_str:0000000000000ac6 .LASF181
     /tmp/ccYSazPS.s:3046   .debug_str:0000000000000811 .LASF182
     /tmp/ccYSazPS.s:2882   .debug_str:00000000000002e1 .LASF183
     /tmp/ccYSazPS.s:2954   .debug_str:0000000000000539 .LASF184
     /tmp/ccYSazPS.s:2990   .debug_str:0000000000000663 .LASF185
     /tmp/ccYSazPS.s:131    .text:00000000000000cc .LVL7
     /tmp/ccYSazPS.s:14     .text:0000000000000000 .LVL0
     /tmp/ccYSazPS.s:198    .debug_info:0000000000000000 .Ldebug_info0

UNDEFINED SYMBOLS
_Z8userMainv
_ZN5Riscv14supervisorTrapEv
_ZN7_thread12consoleWriteEPv
_Z13thread_createPP7_threadPFvPvES2_
_ZN7_thread7runningE
_ZN5Riscv5buff2E
_ZN5Riscv5buff1E
_Z15thread_dispatchv
_ZN4_sem9createSemEPPS_m
_Z12printStringOPKc
