GAS LISTING /tmp/ccgfGqT5.s 			page 1


   1              		.file	"Semaphore.cpp"
   2              		.option pic
   3              		.option norelax
   4              		.text
   5              	.Ltext0:
   6              		.align	2
   7              		.globl	_ZN9SemaphoreD2Ev
   9              	_ZN9SemaphoreD2Ev:
  10              	.LFB6:
  11              		.file 1 "src/Semaphore.cpp"
   1:src/Semaphore.cpp **** //
   2:src/Semaphore.cpp **** // Created by os on 9/14/22.
   3:src/Semaphore.cpp **** //
   4:src/Semaphore.cpp **** 
   5:src/Semaphore.cpp **** #include "../h/syscall_cpp.hpp"
   6:src/Semaphore.cpp **** 
   7:src/Semaphore.cpp **** Semaphore::Semaphore(unsigned int init) {
   8:src/Semaphore.cpp ****     sem_open(&myHandle, init);
   9:src/Semaphore.cpp **** }
  10:src/Semaphore.cpp **** 
  11:src/Semaphore.cpp **** Semaphore::~Semaphore() {
  12              		.loc 1 11 1
  13              		.cfi_startproc
  14              		.cfi_personality 0x9b,DW.ref.__gxx_personality_v0
  15              		.cfi_lsda 0x1b,.LLSDA6
  16              	.LVL0:
  17 0000 130101FF 		addi	sp,sp,-16
  18              		.cfi_def_cfa_offset 16
  19 0004 23341100 		sd	ra,8(sp)
  20 0008 23308100 		sd	s0,0(sp)
  21              		.cfi_offset 1, -8
  22              		.cfi_offset 8, -16
  23 000c 13040101 		addi	s0,sp,16
  24              		.cfi_def_cfa 8, 0
  25              	.LBB2:
  26              		.loc 1 11 23 is_stmt 0
  27 0010 97070000 		lla	a5,_ZTV9Semaphore+16
  27      93870700 
  28 0018 2330F500 		sd	a5,0(a0)
  12:src/Semaphore.cpp ****     sem_close(myHandle);
  29              		.loc 1 12 5 is_stmt 1
  30              		.loc 1 12 14 is_stmt 0
  31 001c 03358500 		ld	a0,8(a0)
  32              	.LVL1:
  33 0020 97000000 		call	_Z9sem_closeP4_sem@plt
  33      E7800000 
  34              	.LVL2:
  35              	.LBE2:
  13:src/Semaphore.cpp **** }
  36              		.loc 1 13 1
  37 0028 83308100 		ld	ra,8(sp)
  38              		.cfi_restore 1
  39 002c 03340100 		ld	s0,0(sp)
  40              		.cfi_restore 8
  41              		.cfi_def_cfa 2, 16
  42 0030 13010101 		addi	sp,sp,16
  43              		.cfi_def_cfa_offset 0
GAS LISTING /tmp/ccgfGqT5.s 			page 2


  44 0034 67800000 		jr	ra
  45              		.cfi_endproc
  46              	.LFE6:
  47              		.globl	__gxx_personality_v0
  48              		.section	.gcc_except_table,"a",@progbits
  49              	.LLSDA6:
  50 0000 FF       		.byte	0xff
  51 0001 FF       		.byte	0xff
  52 0002 03       		.byte	0x3
  53 0003 00       		.byte	0
  54              		.text
  56              		.globl	_ZN9SemaphoreD1Ev
  57              		.set	_ZN9SemaphoreD1Ev,_ZN9SemaphoreD2Ev
  58              		.align	2
  59              		.globl	_ZN9SemaphoreD0Ev
  61              	_ZN9SemaphoreD0Ev:
  62              	.LFB8:
  11:src/Semaphore.cpp ****     sem_close(myHandle);
  63              		.loc 1 11 1 is_stmt 1
  64              		.cfi_startproc
  65              	.LVL3:
  66 0038 130101FE 		addi	sp,sp,-32
  67              		.cfi_def_cfa_offset 32
  68 003c 233C1100 		sd	ra,24(sp)
  69 0040 23388100 		sd	s0,16(sp)
  70 0044 23349100 		sd	s1,8(sp)
  71              		.cfi_offset 1, -8
  72              		.cfi_offset 8, -16
  73              		.cfi_offset 9, -24
  74 0048 13040102 		addi	s0,sp,32
  75              		.cfi_def_cfa 8, 0
  76 004c 93040500 		mv	s1,a0
  77              		.loc 1 13 1 is_stmt 0
  78 0050 97000000 		call	_ZN9SemaphoreD1Ev
  78      E7800000 
  79              	.LVL4:
  80 0058 13850400 		mv	a0,s1
  81 005c 97000000 		call	_ZdlPv@plt
  81      E7800000 
  82              	.LVL5:
  83 0064 83308101 		ld	ra,24(sp)
  84              		.cfi_restore 1
  85 0068 03340101 		ld	s0,16(sp)
  86              		.cfi_restore 8
  87              		.cfi_def_cfa 2, 32
  88 006c 83348100 		ld	s1,8(sp)
  89              		.cfi_restore 9
  90              	.LVL6:
  91 0070 13010102 		addi	sp,sp,32
  92              		.cfi_def_cfa_offset 0
  93 0074 67800000 		jr	ra
  94              		.cfi_endproc
  95              	.LFE8:
  97              		.align	2
  98              		.globl	_ZN9SemaphoreC2Ej
 100              	_ZN9SemaphoreC2Ej:
 101              	.LFB3:
GAS LISTING /tmp/ccgfGqT5.s 			page 3


   7:src/Semaphore.cpp ****     sem_open(&myHandle, init);
 102              		.loc 1 7 1 is_stmt 1
 103              		.cfi_startproc
 104              	.LVL7:
 105 0078 130101FF 		addi	sp,sp,-16
 106              		.cfi_def_cfa_offset 16
 107 007c 23341100 		sd	ra,8(sp)
 108 0080 23308100 		sd	s0,0(sp)
 109              		.cfi_offset 1, -8
 110              		.cfi_offset 8, -16
 111 0084 13040101 		addi	s0,sp,16
 112              		.cfi_def_cfa 8, 0
 113              	.LBB3:
   7:src/Semaphore.cpp ****     sem_open(&myHandle, init);
 114              		.loc 1 7 39 is_stmt 0
 115 0088 97070000 		lla	a5,_ZTV9Semaphore+16
 115      93870700 
 116 0090 2330F500 		sd	a5,0(a0)
   8:src/Semaphore.cpp **** }
 117              		.loc 1 8 5 is_stmt 1
   8:src/Semaphore.cpp **** }
 118              		.loc 1 8 13 is_stmt 0
 119 0094 13058500 		addi	a0,a0,8
 120              	.LVL8:
 121 0098 97000000 		call	_Z8sem_openPP4_semj@plt
 121      E7800000 
 122              	.LVL9:
 123              	.LBE3:
   9:src/Semaphore.cpp **** 
 124              		.loc 1 9 1
 125 00a0 83308100 		ld	ra,8(sp)
 126              		.cfi_restore 1
 127 00a4 03340100 		ld	s0,0(sp)
 128              		.cfi_restore 8
 129              		.cfi_def_cfa 2, 16
 130 00a8 13010101 		addi	sp,sp,16
 131              		.cfi_def_cfa_offset 0
 132 00ac 67800000 		jr	ra
 133              		.cfi_endproc
 134              	.LFE3:
 136              		.globl	_ZN9SemaphoreC1Ej
 137              		.set	_ZN9SemaphoreC1Ej,_ZN9SemaphoreC2Ej
 138              		.align	2
 139              		.globl	_ZN9Semaphore4waitEv
 141              	_ZN9Semaphore4waitEv:
 142              	.LFB9:
  14:src/Semaphore.cpp **** 
  15:src/Semaphore.cpp **** int Semaphore::wait() {
 143              		.loc 1 15 23 is_stmt 1
 144              		.cfi_startproc
 145              	.LVL10:
 146 00b0 130101FF 		addi	sp,sp,-16
 147              		.cfi_def_cfa_offset 16
 148 00b4 23341100 		sd	ra,8(sp)
 149 00b8 23308100 		sd	s0,0(sp)
 150              		.cfi_offset 1, -8
 151              		.cfi_offset 8, -16
GAS LISTING /tmp/ccgfGqT5.s 			page 4


 152 00bc 13040101 		addi	s0,sp,16
 153              		.cfi_def_cfa 8, 0
  16:src/Semaphore.cpp ****     return sem_wait(myHandle);
 154              		.loc 1 16 5
 155              		.loc 1 16 20 is_stmt 0
 156 00c0 03358500 		ld	a0,8(a0)
 157              	.LVL11:
 158 00c4 97000000 		call	_Z8sem_waitP4_sem@plt
 158      E7800000 
 159              	.LVL12:
  17:src/Semaphore.cpp **** }
 160              		.loc 1 17 1
 161 00cc 83308100 		ld	ra,8(sp)
 162              		.cfi_restore 1
 163 00d0 03340100 		ld	s0,0(sp)
 164              		.cfi_restore 8
 165              		.cfi_def_cfa 2, 16
 166 00d4 13010101 		addi	sp,sp,16
 167              		.cfi_def_cfa_offset 0
 168 00d8 67800000 		jr	ra
 169              		.cfi_endproc
 170              	.LFE9:
 172              		.align	2
 173              		.globl	_ZN9Semaphore6signalEv
 175              	_ZN9Semaphore6signalEv:
 176              	.LFB10:
  18:src/Semaphore.cpp **** 
  19:src/Semaphore.cpp **** int Semaphore::signal() {
 177              		.loc 1 19 25 is_stmt 1
 178              		.cfi_startproc
 179              	.LVL13:
 180 00dc 130101FF 		addi	sp,sp,-16
 181              		.cfi_def_cfa_offset 16
 182 00e0 23341100 		sd	ra,8(sp)
 183 00e4 23308100 		sd	s0,0(sp)
 184              		.cfi_offset 1, -8
 185              		.cfi_offset 8, -16
 186 00e8 13040101 		addi	s0,sp,16
 187              		.cfi_def_cfa 8, 0
  20:src/Semaphore.cpp ****     return sem_signal(myHandle);
 188              		.loc 1 20 5
 189              		.loc 1 20 22 is_stmt 0
 190 00ec 03358500 		ld	a0,8(a0)
 191              	.LVL14:
 192 00f0 97000000 		call	_Z10sem_signalP4_sem@plt
 192      E7800000 
 193              	.LVL15:
  21:src/Semaphore.cpp **** }
 194              		.loc 1 21 1
 195 00f8 83308100 		ld	ra,8(sp)
 196              		.cfi_restore 1
 197 00fc 03340100 		ld	s0,0(sp)
 198              		.cfi_restore 8
 199              		.cfi_def_cfa 2, 16
 200 0100 13010101 		addi	sp,sp,16
 201              		.cfi_def_cfa_offset 0
 202 0104 67800000 		jr	ra
GAS LISTING /tmp/ccgfGqT5.s 			page 5


 203              		.cfi_endproc
 204              	.LFE10:
 206              		.weak	_ZTV9Semaphore
 207              		.section	.data.rel.ro.local._ZTV9Semaphore,"awG",@progbits,_ZTV9Semaphore,comdat
 208              		.align	3
 211              	_ZTV9Semaphore:
 212 0000 00000000 		.dword	0
 212      00000000 
 213 0008 00000000 		.dword	0
 213      00000000 
 214 0010 00000000 		.dword	_ZN9SemaphoreD1Ev
 214      00000000 
 215 0018 00000000 		.dword	_ZN9SemaphoreD0Ev
 215      00000000 
 216              		.text
 217              	.Letext0:
 218              		.file 2 "src/../h/../lib/hw.h"
 219              		.file 3 "src/../h/syscall_c.h"
 220              		.file 4 "src/../h/syscall_cpp.hpp"
 1393              		.align	3
 1396              	DW.ref.__gxx_personality_v0:
 1397 0000 00000000 		.dword	__gxx_personality_v0
 1397      00000000 
 1398              		.ident	"GCC: (Ubuntu 9.4.0-1ubuntu1~20.04) 9.4.0"
 1399              		.section	.note.GNU-stack,"",@progbits
GAS LISTING /tmp/ccgfGqT5.s 			page 6

