GAS LISTING /tmp/ccBddiCI.s 			page 1


   1              		.file	"syscall_c.cpp"
   2              		.option pic
   3              		.option norelax
   4              		.text
   5              	.Ltext0:
   6              		.align	2
   7              		.globl	_Z7syscallv
   9              	_Z7syscallv:
  10              	.LFB20:
  11              		.file 1 "src/syscall_c.cpp"
   1:src/syscall_c.cpp **** //
   2:src/syscall_c.cpp **** // Created by os on 8/12/22.
   3:src/syscall_c.cpp **** //
   4:src/syscall_c.cpp **** 
   5:src/syscall_c.cpp **** #include "../lib/hw.h"
   6:src/syscall_c.cpp **** #include "../h/syscall_c.h"
   7:src/syscall_c.cpp **** #include "../h/syscall_codes.h"
   8:src/syscall_c.cpp **** #include "../h/print.hpp"
   9:src/syscall_c.cpp **** #include "../h/tcb.hpp"
  10:src/syscall_c.cpp **** 
  11:src/syscall_c.cpp **** void syscall(){
  12              		.loc 1 11 15
  13              		.cfi_startproc
  14 0000 130101FF 		addi	sp,sp,-16
  15              		.cfi_def_cfa_offset 16
  16 0004 23348100 		sd	s0,8(sp)
  17              		.cfi_offset 8, -8
  18 0008 13040101 		addi	s0,sp,16
  19              		.cfi_def_cfa 8, 0
  12:src/syscall_c.cpp ****     __asm__ volatile("ecall");
  20              		.loc 1 12 5
  21              		.loc 1 12 30 is_stmt 0
  22              	#APP
  23              	# 12 "src/syscall_c.cpp" 1
  13              	}
  24              		ecall
  25              	# 0 "" 2
  26              		.loc 1 13 1
  27              	#NO_APP
  28 0010 03348100 		ld	s0,8(sp)
  29              		.cfi_restore 8
  30              		.cfi_def_cfa 2, 16
  31 0014 13010101 		addi	sp,sp,16
  32              		.cfi_def_cfa_offset 0
  33 0018 67800000 		jr	ra
  34              		.cfi_endproc
  35              	.LFE20:
  37              		.align	2
  38              		.globl	_Z7setArgsv
  40              	_Z7setArgsv:
  41              	.LFB21:
  14:src/syscall_c.cpp **** 
  15:src/syscall_c.cpp **** void setArgs(){
  42              		.loc 1 15 15 is_stmt 1
  43              		.cfi_startproc
  44 001c 130101FF 		addi	sp,sp,-16
  45              		.cfi_def_cfa_offset 16
GAS LISTING /tmp/ccBddiCI.s 			page 2


  46 0020 23348100 		sd	s0,8(sp)
  47              		.cfi_offset 8, -8
  48 0024 13040101 		addi	s0,sp,16
  49              		.cfi_def_cfa 8, 0
  16:src/syscall_c.cpp **** 
  17:src/syscall_c.cpp **** }
  50              		.loc 1 17 1 is_stmt 0
  51 0028 03348100 		ld	s0,8(sp)
  52              		.cfi_restore 8
  53              		.cfi_def_cfa 2, 16
  54 002c 13010101 		addi	sp,sp,16
  55              		.cfi_def_cfa_offset 0
  56 0030 67800000 		jr	ra
  57              		.cfi_endproc
  58              	.LFE21:
  60              		.align	2
  61              		.globl	_Z9mem_allocm
  63              	_Z9mem_allocm:
  64              	.LFB22:
  18:src/syscall_c.cpp **** 
  19:src/syscall_c.cpp **** //pakovanje poziva sa argumentima
  20:src/syscall_c.cpp **** 
  21:src/syscall_c.cpp **** void* mem_alloc(size_t size){
  65              		.loc 1 21 29 is_stmt 1
  66              		.cfi_startproc
  67              	.LVL0:
  68 0034 130101FE 		addi	sp,sp,-32
  69              		.cfi_def_cfa_offset 32
  70 0038 233C8100 		sd	s0,24(sp)
  71              		.cfi_offset 8, -8
  72 003c 13040102 		addi	s0,sp,32
  73              		.cfi_def_cfa 8, 0
  22:src/syscall_c.cpp ****     uint64 volatile blocksNum;
  74              		.loc 1 22 5
  23:src/syscall_c.cpp ****     if(size % MEM_BLOCK_SIZE != 0) {
  75              		.loc 1 23 5
  76              		.loc 1 23 13 is_stmt 0
  77 0040 9377F503 		andi	a5,a0,63
  78              		.loc 1 23 5
  79 0044 638A0702 		beqz	a5,.L6
  24:src/syscall_c.cpp ****         blocksNum = size / MEM_BLOCK_SIZE + 1;
  80              		.loc 1 24 9 is_stmt 1
  81              		.loc 1 24 26 is_stmt 0
  82 0048 13556500 		srli	a0,a0,6
  83              	.LVL1:
  84              		.loc 1 24 43
  85 004c 13051500 		addi	a0,a0,1
  86              		.loc 1 24 19
  87 0050 2334A4FE 		sd	a0,-24(s0)
  88              	.L7:
  25:src/syscall_c.cpp ****     }
  26:src/syscall_c.cpp ****     else {
  27:src/syscall_c.cpp ****         blocksNum = size / MEM_BLOCK_SIZE;
  28:src/syscall_c.cpp ****     }
  29:src/syscall_c.cpp ****     __asm__ volatile("mv a0, %0" : : "r" (MEM_ALLOC));
  89              		.loc 1 29 5 is_stmt 1
  90              		.loc 1 29 54 is_stmt 0
GAS LISTING /tmp/ccBddiCI.s 			page 3


  91 0054 93071000 		li	a5,1
  92              	#APP
  93              	# 29 "src/syscall_c.cpp" 1
  30              	    __asm__ volatile("mv a1, %0" : : "r" (blocksNum));
  94              		mv a0, a5
  95              	# 0 "" 2
  96              		.loc 1 30 5 is_stmt 1
  97              		.loc 1 30 43 is_stmt 0
  98              	#NO_APP
  99 005c 833784FE 		ld	a5,-24(s0)
 100              		.loc 1 30 54
 101              	#APP
 102              	# 30 "src/syscall_c.cpp" 1
  31              	    __asm__ volatile("ecall");
 103              		mv a1, a5
 104              	# 0 "" 2
 105              		.loc 1 31 5 is_stmt 1
 106              		.loc 1 31 30 is_stmt 0
 107              	# 31 "src/syscall_c.cpp" 1
  32              	    //poziv za blockNum
  33:src/syscall_c.cpp ****     void* ret;
 108              		ecall
 109              	# 0 "" 2
 110              		.loc 1 33 5 is_stmt 1
  34:src/syscall_c.cpp ****     __asm__ volatile("mv %0, a0" : "=r" (ret));
 111              		.loc 1 34 5
 112              		.loc 1 34 47 is_stmt 0
 113              	# 34 "src/syscall_c.cpp" 1
  35              	//    printString("povratak iz prekidne rutine\n");
 114              		mv a0, a0
 115              	# 0 "" 2
 116              	.LVL2:
  36:src/syscall_c.cpp **** //    printInteger((uint64)ret);
  37:src/syscall_c.cpp ****     return (void*)ret;
 117              		.loc 1 37 5 is_stmt 1
  38:src/syscall_c.cpp **** }
 118              		.loc 1 38 1 is_stmt 0
 119              	#NO_APP
 120 006c 03348101 		ld	s0,24(sp)
 121              		.cfi_remember_state
 122              		.cfi_restore 8
 123              		.cfi_def_cfa 2, 32
 124 0070 13010102 		addi	sp,sp,32
 125              		.cfi_def_cfa_offset 0
 126 0074 67800000 		jr	ra
 127              	.LVL3:
 128              	.L6:
 129              		.cfi_restore_state
  27:src/syscall_c.cpp ****     }
 130              		.loc 1 27 9 is_stmt 1
  27:src/syscall_c.cpp ****     }
 131              		.loc 1 27 26 is_stmt 0
 132 0078 13556500 		srli	a0,a0,6
 133              	.LVL4:
  27:src/syscall_c.cpp ****     }
 134              		.loc 1 27 19
 135 007c 2334A4FE 		sd	a0,-24(s0)
GAS LISTING /tmp/ccBddiCI.s 			page 4


 136 0080 6FF05FFD 		j	.L7
 137              		.cfi_endproc
 138              	.LFE22:
 140              		.align	2
 141              		.globl	_Z8mem_freePv
 143              	_Z8mem_freePv:
 144              	.LFB23:
  39:src/syscall_c.cpp **** 
  40:src/syscall_c.cpp **** int mem_free(void *p){
 145              		.loc 1 40 22 is_stmt 1
 146              		.cfi_startproc
 147              	.LVL5:
 148 0084 130101FF 		addi	sp,sp,-16
 149              		.cfi_def_cfa_offset 16
 150 0088 23348100 		sd	s0,8(sp)
 151              		.cfi_offset 8, -8
 152 008c 13040101 		addi	s0,sp,16
 153              		.cfi_def_cfa 8, 0
  41:src/syscall_c.cpp ****     //prvo cu upisati p u a1, jer ako stavim prvo da se upise vrednost u a0 promenicu i argumen p
  42:src/syscall_c.cpp ****     //jer je preko njega poslat argument f-je
  43:src/syscall_c.cpp ****     __asm__ volatile("mv a1, %0" : : "r" (p));
 154              		.loc 1 43 5
 155              		.loc 1 43 46 is_stmt 0
 156              	#APP
 157              	# 43 "src/syscall_c.cpp" 1
  44              	    __asm__ volatile("mv a0, %0" : : "r" (MEM_FREE));
 158              		mv a1, a0
 159              	# 0 "" 2
 160              		.loc 1 44 5 is_stmt 1
 161              		.loc 1 44 53 is_stmt 0
 162              	#NO_APP
 163 0094 93072000 		li	a5,2
 164              	#APP
 165              	# 44 "src/syscall_c.cpp" 1
  45              	
  46:src/syscall_c.cpp ****     __asm__ volatile("ecall");
 166              		mv a0, a5
 167              	# 0 "" 2
 168              		.loc 1 46 5 is_stmt 1
 169              		.loc 1 46 30 is_stmt 0
 170              	# 46 "src/syscall_c.cpp" 1
  47              	    uint64 ret;
 171              		ecall
 172              	# 0 "" 2
 173              		.loc 1 47 5 is_stmt 1
  48:src/syscall_c.cpp ****     __asm__ volatile("mv %0, a0" : "=r" (ret));
 174              		.loc 1 48 5
 175              		.loc 1 48 47 is_stmt 0
 176              	# 48 "src/syscall_c.cpp" 1
  49              	    return ret;
 177              		mv a0, a0
 178              	# 0 "" 2
 179              	.LVL6:
 180              		.loc 1 49 5 is_stmt 1
  50:src/syscall_c.cpp **** }
 181              		.loc 1 50 1 is_stmt 0
 182              	#NO_APP
GAS LISTING /tmp/ccBddiCI.s 			page 5


 183 00a4 1B050500 		sext.w	a0,a0
 184              	.LVL7:
 185 00a8 03348100 		ld	s0,8(sp)
 186              		.cfi_restore 8
 187              		.cfi_def_cfa 2, 16
 188 00ac 13010101 		addi	sp,sp,16
 189              		.cfi_def_cfa_offset 0
 190 00b0 67800000 		jr	ra
 191              		.cfi_endproc
 192              	.LFE23:
 194              		.align	2
 195              		.globl	_Z13thread_createPP7_threadPFvPvES2_
 197              	_Z13thread_createPP7_threadPFvPvES2_:
 198              	.LFB24:
  51:src/syscall_c.cpp **** 
  52:src/syscall_c.cpp **** int thread_create( thread_t* handle,
  53:src/syscall_c.cpp ****                    void(*start_routine)(void*),
  54:src/syscall_c.cpp ****                    void *arg
  55:src/syscall_c.cpp ****                    ){
 199              		.loc 1 55 21 is_stmt 1
 200              		.cfi_startproc
 201              	.LVL8:
 202 00b4 130101FC 		addi	sp,sp,-64
 203              		.cfi_def_cfa_offset 64
 204 00b8 233C1102 		sd	ra,56(sp)
 205 00bc 23388102 		sd	s0,48(sp)
 206 00c0 23349102 		sd	s1,40(sp)
 207 00c4 23302103 		sd	s2,32(sp)
 208 00c8 233C3101 		sd	s3,24(sp)
 209              		.cfi_offset 1, -8
 210              		.cfi_offset 8, -16
 211              		.cfi_offset 9, -24
 212              		.cfi_offset 18, -32
 213              		.cfi_offset 19, -40
 214 00cc 13040104 		addi	s0,sp,64
 215              		.cfi_def_cfa 8, 0
 216 00d0 93090500 		mv	s3,a0
 217 00d4 13890500 		mv	s2,a1
 218 00d8 93040600 		mv	s1,a2
  56:src/syscall_c.cpp ****     //za ABI poziv mora se dodati i argument za stek
  57:src/syscall_c.cpp **** 
  58:src/syscall_c.cpp ****     void* volatile stack = new uint64[1024];
 219              		.loc 1 58 5
 220              		.loc 1 58 43 is_stmt 0
 221 00dc 37250000 		li	a0,8192
 222              	.LVL9:
 223 00e0 97000000 		call	_Znam@plt
 223      E7800000 
 224              	.LVL10:
 225 00e8 2334A4FC 		sd	a0,-56(s0)
  59:src/syscall_c.cpp ****     printInteger((uint64)stack);
 226              		.loc 1 59 5 is_stmt 1
 227              		.loc 1 59 17 is_stmt 0
 228 00ec 033584FC 		ld	a0,-56(s0)
 229 00f0 97000000 		call	_Z12printIntegerm@plt
 229      E7800000 
 230              	.LVL11:
GAS LISTING /tmp/ccBddiCI.s 			page 6


  60:src/syscall_c.cpp ****     if(stack != nullptr) {
 231              		.loc 1 60 5 is_stmt 1
 232              	.LBB2:
 233              		.loc 1 60 8 is_stmt 0
 234 00f8 833784FC 		ld	a5,-56(s0)
 235              		.loc 1 60 5
 236 00fc 63840704 		beqz	a5,.L13
 237              	.LBB3:
  61:src/syscall_c.cpp ****         __asm__ volatile("mv a0, %0" : : "r" (THREAD_CREATE));
 238              		.loc 1 61 9 is_stmt 1
 239              		.loc 1 61 62 is_stmt 0
 240 0100 93071001 		li	a5,17
 241              	#APP
 242              	# 61 "src/syscall_c.cpp" 1
  62              	        __asm__ volatile("mv a1, %0" : : "r" (handle));
 243              		mv a0, a5
 244              	# 0 "" 2
 245              		.loc 1 62 9 is_stmt 1
 246              		.loc 1 62 55 is_stmt 0
 247              	# 62 "src/syscall_c.cpp" 1
  63              	        __asm__ volatile("mv a2, %0" : : "r" (start_routine));
 248              		mv a1, s3
 249              	# 0 "" 2
 250              		.loc 1 63 9 is_stmt 1
 251              		.loc 1 63 62 is_stmt 0
 252              	# 63 "src/syscall_c.cpp" 1
  64              	        __asm__ volatile("mv a3, %0" : : "r" (arg));
 253              		mv a2, s2
 254              	# 0 "" 2
 255              		.loc 1 64 9 is_stmt 1
 256              		.loc 1 64 52 is_stmt 0
 257              	# 64 "src/syscall_c.cpp" 1
  65              	        __asm__ volatile("mv a4, %0" : : "r" (stack));
 258              		mv a3, s1
 259              	# 0 "" 2
 260              		.loc 1 65 9 is_stmt 1
 261              		.loc 1 65 47 is_stmt 0
 262              	#NO_APP
 263 0114 833784FC 		ld	a5,-56(s0)
 264              		.loc 1 65 54
 265              	#APP
 266              	# 65 "src/syscall_c.cpp" 1
  66              	        __asm__ volatile("ecall");
 267              		mv a4, a5
 268              	# 0 "" 2
 269              		.loc 1 66 9 is_stmt 1
 270              		.loc 1 66 34 is_stmt 0
 271              	# 66 "src/syscall_c.cpp" 1
  67              	
  68:src/syscall_c.cpp ****         uint64 ret;
 272              		ecall
 273              	# 0 "" 2
 274              		.loc 1 68 9 is_stmt 1
  69:src/syscall_c.cpp ****         __asm__ volatile("mv %0, a0" : "=r" (ret));
 275              		.loc 1 69 9
 276              		.loc 1 69 51 is_stmt 0
 277              	# 69 "src/syscall_c.cpp" 1
GAS LISTING /tmp/ccBddiCI.s 			page 7


  70              	        return ret;
 278              		mv a0, a0
 279              	# 0 "" 2
 280              	.LVL12:
 281              		.loc 1 70 9 is_stmt 1
 282              		.loc 1 70 16 is_stmt 0
 283              	#NO_APP
 284 0124 1B050500 		sext.w	a0,a0
 285              	.LVL13:
 286              	.L12:
 287              	.LBE3:
 288              	.LBE2:
  71:src/syscall_c.cpp **** 
  72:src/syscall_c.cpp ****     } else{
  73:src/syscall_c.cpp ****         return -2;
  74:src/syscall_c.cpp ****     }
  75:src/syscall_c.cpp **** }
 289              		.loc 1 75 1
 290 0128 83308103 		ld	ra,56(sp)
 291              		.cfi_remember_state
 292              		.cfi_restore 1
 293 012c 03340103 		ld	s0,48(sp)
 294              		.cfi_restore 8
 295              		.cfi_def_cfa 2, 64
 296 0130 83348102 		ld	s1,40(sp)
 297              		.cfi_restore 9
 298              	.LVL14:
 299 0134 03390102 		ld	s2,32(sp)
 300              		.cfi_restore 18
 301              	.LVL15:
 302 0138 83398101 		ld	s3,24(sp)
 303              		.cfi_restore 19
 304              	.LVL16:
 305 013c 13010104 		addi	sp,sp,64
 306              		.cfi_def_cfa_offset 0
 307 0140 67800000 		jr	ra
 308              	.LVL17:
 309              	.L13:
 310              		.cfi_restore_state
 311              	.LBB4:
  73:src/syscall_c.cpp ****     }
 312              		.loc 1 73 17
 313 0144 1305E0FF 		li	a0,-2
 314 0148 6FF01FFE 		j	.L12
 315              	.LBE4:
 316              		.cfi_endproc
 317              	.LFE24:
 319              		.align	2
 320              		.globl	_Z11thread_exitv
 322              	_Z11thread_exitv:
 323              	.LFB25:
  76:src/syscall_c.cpp **** 
  77:src/syscall_c.cpp **** int thread_exit(){
 324              		.loc 1 77 18 is_stmt 1
 325              		.cfi_startproc
 326 014c 130101FF 		addi	sp,sp,-16
 327              		.cfi_def_cfa_offset 16
GAS LISTING /tmp/ccBddiCI.s 			page 8


 328 0150 23348100 		sd	s0,8(sp)
 329              		.cfi_offset 8, -8
 330 0154 13040101 		addi	s0,sp,16
 331              		.cfi_def_cfa 8, 0
  78:src/syscall_c.cpp ****     __asm__ volatile("mv a0, %0" : : "r" (THREAD_EXIT));
 332              		.loc 1 78 5
 333              		.loc 1 78 56 is_stmt 0
 334 0158 93072001 		li	a5,18
 335              	#APP
 336              	# 78 "src/syscall_c.cpp" 1
  79              	    __asm__ volatile("ecall");
 337              		mv a0, a5
 338              	# 0 "" 2
 339              		.loc 1 79 5 is_stmt 1
 340              		.loc 1 79 30 is_stmt 0
 341              	# 79 "src/syscall_c.cpp" 1
  80              	    uint64 ret;
 342              		ecall
 343              	# 0 "" 2
 344              		.loc 1 80 5 is_stmt 1
  81:src/syscall_c.cpp ****     __asm__ volatile("mv %0, a0" : "=r" (ret));
 345              		.loc 1 81 5
 346              		.loc 1 81 47 is_stmt 0
 347              	# 81 "src/syscall_c.cpp" 1
  82              	    return ret;
 348              		mv a0, a0
 349              	# 0 "" 2
 350              	.LVL18:
 351              		.loc 1 82 5 is_stmt 1
  83:src/syscall_c.cpp **** }
 352              		.loc 1 83 1 is_stmt 0
 353              	#NO_APP
 354 0168 1B050500 		sext.w	a0,a0
 355              	.LVL19:
 356 016c 03348100 		ld	s0,8(sp)
 357              		.cfi_restore 8
 358              		.cfi_def_cfa 2, 16
 359 0170 13010101 		addi	sp,sp,16
 360              		.cfi_def_cfa_offset 0
 361 0174 67800000 		jr	ra
 362              		.cfi_endproc
 363              	.LFE25:
 365              	.Letext0:
 366              		.file 2 "src/../lib/hw.h"
 367              		.file 3 "src/../h/syscall_c.h"
 368              		.file 4 "src/../h/tcb.hpp"
 369              		.file 5 "src/../h/syscall_codes.h"
 370              		.file 6 "src/../h/print.hpp"
GAS LISTING /tmp/ccBddiCI.s 			page 9


DEFINED SYMBOLS
                            *ABS*:0000000000000000 syscall_c.cpp
     /tmp/ccBddiCI.s:9      .text:0000000000000000 _Z7syscallv
     /tmp/ccBddiCI.s:13     .text:0000000000000000 .L0 
     /tmp/ccBddiCI.s:14     .text:0000000000000000 .L0 
     /tmp/ccBddiCI.s:15     .text:0000000000000004 .L0 
     /tmp/ccBddiCI.s:17     .text:0000000000000008 .L0 
     /tmp/ccBddiCI.s:19     .text:000000000000000c .L0 
     /tmp/ccBddiCI.s:21     .text:000000000000000c .L0 
   src/syscall_c.cpp:12     .text:000000000000000c .L0 
     /tmp/ccBddiCI.s:28     .text:0000000000000010 .L0 
     /tmp/ccBddiCI.s:29     .text:0000000000000014 .L0 
     /tmp/ccBddiCI.s:30     .text:0000000000000014 .L0 
     /tmp/ccBddiCI.s:32     .text:0000000000000018 .L0 
     /tmp/ccBddiCI.s:34     .text:000000000000001c .L0 
     /tmp/ccBddiCI.s:40     .text:000000000000001c _Z7setArgsv
     /tmp/ccBddiCI.s:43     .text:000000000000001c .L0 
     /tmp/ccBddiCI.s:44     .text:000000000000001c .L0 
     /tmp/ccBddiCI.s:45     .text:0000000000000020 .L0 
     /tmp/ccBddiCI.s:47     .text:0000000000000024 .L0 
     /tmp/ccBddiCI.s:49     .text:0000000000000028 .L0 
     /tmp/ccBddiCI.s:51     .text:0000000000000028 .L0 
     /tmp/ccBddiCI.s:52     .text:000000000000002c .L0 
     /tmp/ccBddiCI.s:53     .text:000000000000002c .L0 
     /tmp/ccBddiCI.s:55     .text:0000000000000030 .L0 
     /tmp/ccBddiCI.s:57     .text:0000000000000034 .L0 
     /tmp/ccBddiCI.s:63     .text:0000000000000034 _Z9mem_allocm
     /tmp/ccBddiCI.s:66     .text:0000000000000034 .L0 
     /tmp/ccBddiCI.s:68     .text:0000000000000034 .L0 
     /tmp/ccBddiCI.s:69     .text:0000000000000038 .L0 
     /tmp/ccBddiCI.s:71     .text:000000000000003c .L0 
     /tmp/ccBddiCI.s:73     .text:0000000000000040 .L0 
     /tmp/ccBddiCI.s:75     .text:0000000000000040 .L0 
     /tmp/ccBddiCI.s:76     .text:0000000000000040 .L0 
     /tmp/ccBddiCI.s:77     .text:0000000000000040 .L0 
     /tmp/ccBddiCI.s:79     .text:0000000000000044 .L0 
     /tmp/ccBddiCI.s:81     .text:0000000000000048 .L0 
     /tmp/ccBddiCI.s:82     .text:0000000000000048 .L0 
     /tmp/ccBddiCI.s:85     .text:000000000000004c .L0 
     /tmp/ccBddiCI.s:87     .text:0000000000000050 .L0 
     /tmp/ccBddiCI.s:90     .text:0000000000000054 .L0 
     /tmp/ccBddiCI.s:91     .text:0000000000000054 .L0 
     /tmp/ccBddiCI.s:97     .text:000000000000005c .L0 
     /tmp/ccBddiCI.s:99     .text:000000000000005c .L0 
   src/syscall_c.cpp:30     .text:0000000000000060 .L0 
     /tmp/ccBddiCI.s:106    .text:0000000000000064 .L0 
   src/syscall_c.cpp:31     .text:0000000000000064 .L0 
     /tmp/ccBddiCI.s:111    .text:0000000000000068 .L0 
     /tmp/ccBddiCI.s:112    .text:0000000000000068 .L0 
   src/syscall_c.cpp:34     .text:0000000000000068 .L0 
     /tmp/ccBddiCI.s:118    .text:000000000000006c .L0 
     /tmp/ccBddiCI.s:120    .text:000000000000006c .L0 
     /tmp/ccBddiCI.s:121    .text:0000000000000070 .L0 
     /tmp/ccBddiCI.s:122    .text:0000000000000070 .L0 
     /tmp/ccBddiCI.s:123    .text:0000000000000070 .L0 
     /tmp/ccBddiCI.s:125    .text:0000000000000074 .L0 
     /tmp/ccBddiCI.s:129    .text:0000000000000078 .L0 
GAS LISTING /tmp/ccBddiCI.s 			page 10


     /tmp/ccBddiCI.s:131    .text:0000000000000078 .L0 
     /tmp/ccBddiCI.s:132    .text:0000000000000078 .L0 
     /tmp/ccBddiCI.s:135    .text:000000000000007c .L0 
     /tmp/ccBddiCI.s:137    .text:0000000000000084 .L0 
     /tmp/ccBddiCI.s:143    .text:0000000000000084 _Z8mem_freePv
     /tmp/ccBddiCI.s:146    .text:0000000000000084 .L0 
     /tmp/ccBddiCI.s:148    .text:0000000000000084 .L0 
     /tmp/ccBddiCI.s:149    .text:0000000000000088 .L0 
     /tmp/ccBddiCI.s:151    .text:000000000000008c .L0 
     /tmp/ccBddiCI.s:153    .text:0000000000000090 .L0 
     /tmp/ccBddiCI.s:155    .text:0000000000000090 .L0 
   src/syscall_c.cpp:43     .text:0000000000000090 .L0 
     /tmp/ccBddiCI.s:161    .text:0000000000000094 .L0 
     /tmp/ccBddiCI.s:163    .text:0000000000000094 .L0 
     /tmp/ccBddiCI.s:169    .text:000000000000009c .L0 
   src/syscall_c.cpp:46     .text:000000000000009c .L0 
     /tmp/ccBddiCI.s:174    .text:00000000000000a0 .L0 
     /tmp/ccBddiCI.s:175    .text:00000000000000a0 .L0 
   src/syscall_c.cpp:48     .text:00000000000000a0 .L0 
     /tmp/ccBddiCI.s:181    .text:00000000000000a4 .L0 
     /tmp/ccBddiCI.s:183    .text:00000000000000a4 .L0 
     /tmp/ccBddiCI.s:186    .text:00000000000000ac .L0 
     /tmp/ccBddiCI.s:187    .text:00000000000000ac .L0 
     /tmp/ccBddiCI.s:189    .text:00000000000000b0 .L0 
     /tmp/ccBddiCI.s:191    .text:00000000000000b4 .L0 
     /tmp/ccBddiCI.s:197    .text:00000000000000b4 _Z13thread_createPP7_threadPFvPvES2_
     /tmp/ccBddiCI.s:200    .text:00000000000000b4 .L0 
     /tmp/ccBddiCI.s:202    .text:00000000000000b4 .L0 
     /tmp/ccBddiCI.s:203    .text:00000000000000b8 .L0 
     /tmp/ccBddiCI.s:209    .text:00000000000000cc .L0 
     /tmp/ccBddiCI.s:210    .text:00000000000000cc .L0 
     /tmp/ccBddiCI.s:211    .text:00000000000000cc .L0 
     /tmp/ccBddiCI.s:212    .text:00000000000000cc .L0 
     /tmp/ccBddiCI.s:213    .text:00000000000000cc .L0 
     /tmp/ccBddiCI.s:215    .text:00000000000000d0 .L0 
     /tmp/ccBddiCI.s:220    .text:00000000000000dc .L0 
     /tmp/ccBddiCI.s:221    .text:00000000000000dc .L0 
     /tmp/ccBddiCI.s:227    .text:00000000000000ec .L0 
     /tmp/ccBddiCI.s:228    .text:00000000000000ec .L0 
     /tmp/ccBddiCI.s:233    .text:00000000000000f8 .L0 
     /tmp/ccBddiCI.s:234    .text:00000000000000f8 .L0 
     /tmp/ccBddiCI.s:236    .text:00000000000000fc .L0 
     /tmp/ccBddiCI.s:239    .text:0000000000000100 .L0 
     /tmp/ccBddiCI.s:240    .text:0000000000000100 .L0 
     /tmp/ccBddiCI.s:246    .text:0000000000000108 .L0 
   src/syscall_c.cpp:62     .text:0000000000000108 .L0 
     /tmp/ccBddiCI.s:251    .text:000000000000010c .L0 
   src/syscall_c.cpp:63     .text:000000000000010c .L0 
     /tmp/ccBddiCI.s:256    .text:0000000000000110 .L0 
   src/syscall_c.cpp:64     .text:0000000000000110 .L0 
     /tmp/ccBddiCI.s:261    .text:0000000000000114 .L0 
     /tmp/ccBddiCI.s:263    .text:0000000000000114 .L0 
   src/syscall_c.cpp:65     .text:0000000000000118 .L0 
     /tmp/ccBddiCI.s:270    .text:000000000000011c .L0 
   src/syscall_c.cpp:66     .text:000000000000011c .L0 
     /tmp/ccBddiCI.s:275    .text:0000000000000120 .L0 
     /tmp/ccBddiCI.s:276    .text:0000000000000120 .L0 
GAS LISTING /tmp/ccBddiCI.s 			page 11


   src/syscall_c.cpp:69     .text:0000000000000120 .L0 
     /tmp/ccBddiCI.s:282    .text:0000000000000124 .L0 
     /tmp/ccBddiCI.s:284    .text:0000000000000124 .L0 
     /tmp/ccBddiCI.s:290    .text:0000000000000128 .L0 
     /tmp/ccBddiCI.s:291    .text:000000000000012c .L0 
     /tmp/ccBddiCI.s:292    .text:000000000000012c .L0 
     /tmp/ccBddiCI.s:294    .text:0000000000000130 .L0 
     /tmp/ccBddiCI.s:295    .text:0000000000000130 .L0 
     /tmp/ccBddiCI.s:297    .text:0000000000000134 .L0 
     /tmp/ccBddiCI.s:300    .text:0000000000000138 .L0 
     /tmp/ccBddiCI.s:303    .text:000000000000013c .L0 
     /tmp/ccBddiCI.s:306    .text:0000000000000140 .L0 
     /tmp/ccBddiCI.s:310    .text:0000000000000144 .L0 
     /tmp/ccBddiCI.s:313    .text:0000000000000144 .L0 
     /tmp/ccBddiCI.s:316    .text:000000000000014c .L0 
     /tmp/ccBddiCI.s:322    .text:000000000000014c _Z11thread_exitv
     /tmp/ccBddiCI.s:325    .text:000000000000014c .L0 
     /tmp/ccBddiCI.s:326    .text:000000000000014c .L0 
     /tmp/ccBddiCI.s:327    .text:0000000000000150 .L0 
     /tmp/ccBddiCI.s:329    .text:0000000000000154 .L0 
     /tmp/ccBddiCI.s:331    .text:0000000000000158 .L0 
     /tmp/ccBddiCI.s:333    .text:0000000000000158 .L0 
     /tmp/ccBddiCI.s:334    .text:0000000000000158 .L0 
     /tmp/ccBddiCI.s:340    .text:0000000000000160 .L0 
   src/syscall_c.cpp:79     .text:0000000000000160 .L0 
     /tmp/ccBddiCI.s:345    .text:0000000000000164 .L0 
     /tmp/ccBddiCI.s:346    .text:0000000000000164 .L0 
   src/syscall_c.cpp:81     .text:0000000000000164 .L0 
     /tmp/ccBddiCI.s:352    .text:0000000000000168 .L0 
     /tmp/ccBddiCI.s:354    .text:0000000000000168 .L0 
     /tmp/ccBddiCI.s:357    .text:0000000000000170 .L0 
     /tmp/ccBddiCI.s:358    .text:0000000000000170 .L0 
     /tmp/ccBddiCI.s:360    .text:0000000000000174 .L0 
     /tmp/ccBddiCI.s:362    .text:0000000000000178 .L0 
     /tmp/ccBddiCI.s:371    .text:0000000000000178 .L0 
     /tmp/ccBddiCI.s:128    .text:0000000000000078 .L6
     /tmp/ccBddiCI.s:88     .text:0000000000000054 .L7
     /tmp/ccBddiCI.s:309    .text:0000000000000144 .L13
     /tmp/ccBddiCI.s:286    .text:0000000000000128 .L12
     /tmp/ccBddiCI.s:1040   .debug_abbrev:0000000000000000 .Ldebug_abbrev0
     /tmp/ccBddiCI.s:2118   .debug_str:0000000000000460 .LASF77
     /tmp/ccBddiCI.s:2024   .debug_str:00000000000001ad .LASF78
     /tmp/ccBddiCI.s:2000   .debug_str:00000000000000f9 .LASF79
     /tmp/ccBddiCI.s:5      .text:0000000000000000 .Ltext0
     /tmp/ccBddiCI.s:365    .text:0000000000000178 .Letext0
     /tmp/ccBddiCI.s:1956   .debug_line:0000000000000000 .Ldebug_line0
     /tmp/ccBddiCI.s:2056   .debug_str:00000000000002ae .LASF0
     /tmp/ccBddiCI.s:2070   .debug_str:00000000000002eb .LASF1
     /tmp/ccBddiCI.s:2046   .debug_str:000000000000025d .LASF2
     /tmp/ccBddiCI.s:2022   .debug_str:00000000000001a6 .LASF4
     /tmp/ccBddiCI.s:2100   .debug_str:00000000000003de .LASF3
     /tmp/ccBddiCI.s:1974   .debug_str:0000000000000060 .LASF5
     /tmp/ccBddiCI.s:2076   .debug_str:000000000000031a .LASF6
     /tmp/ccBddiCI.s:2054   .debug_str:000000000000029b .LASF7
     /tmp/ccBddiCI.s:2130   .debug_str:0000000000000583 .LASF8
     /tmp/ccBddiCI.s:2010   .debug_str:0000000000000151 .LASF9
     /tmp/ccBddiCI.s:2084   .debug_str:0000000000000356 .LASF10
GAS LISTING /tmp/ccBddiCI.s 			page 12


     /tmp/ccBddiCI.s:2120   .debug_str:0000000000000524 .LASF11
     /tmp/ccBddiCI.s:1976   .debug_str:0000000000000067 .LASF12
     /tmp/ccBddiCI.s:1962   .debug_str:0000000000000011 .LASF13
     /tmp/ccBddiCI.s:1982   .debug_str:000000000000008e .LASF14
     /tmp/ccBddiCI.s:2096   .debug_str:00000000000003c2 .LASF15
     /tmp/ccBddiCI.s:1988   .debug_str:00000000000000b2 .LASF16
     /tmp/ccBddiCI.s:1958   .debug_str:0000000000000000 .LASF17
     /tmp/ccBddiCI.s:2020   .debug_str:000000000000019e .LASF29
     /tmp/ccBddiCI.s:1966   .debug_str:0000000000000027 .LASF80
     /tmp/ccBddiCI.s:2124   .debug_str:000000000000055f .LASF18
     /tmp/ccBddiCI.s:2080   .debug_str:0000000000000338 .LASF20
     /tmp/ccBddiCI.s:2078   .debug_str:000000000000032d .LASF22
     /tmp/ccBddiCI.s:2044   .debug_str:0000000000000242 .LASF24
     /tmp/ccBddiCI.s:2048   .debug_str:000000000000026b .LASF19
     /tmp/ccBddiCI.s:2042   .debug_str:0000000000000227 .LASF21
     /tmp/ccBddiCI.s:2040   .debug_str:000000000000021a .LASF23
     /tmp/ccBddiCI.s:2086   .debug_str:0000000000000365 .LASF25
     /tmp/ccBddiCI.s:2032   .debug_str:00000000000001e6 .LASF26
     /tmp/ccBddiCI.s:1968   .debug_str:000000000000002f .LASF27
     /tmp/ccBddiCI.s:2092   .debug_str:00000000000003b4 .LASF81
     /tmp/ccBddiCI.s:2090   .debug_str:000000000000038b .LASF28
     /tmp/ccBddiCI.s:2098   .debug_str:00000000000003d8 .LASF42
     /tmp/ccBddiCI.s:2116   .debug_str:000000000000044c .LASF44
     /tmp/ccBddiCI.s:1996   .debug_str:00000000000000ec .LASF82
     /tmp/ccBddiCI.s:2108   .debug_str:0000000000000414 .LASF30
     /tmp/ccBddiCI.s:2052   .debug_str:0000000000000282 .LASF31
     /tmp/ccBddiCI.s:2026   .debug_str:00000000000001bf .LASF32
     /tmp/ccBddiCI.s:2060   .debug_str:00000000000002c4 .LASF33
     /tmp/ccBddiCI.s:2030   .debug_str:00000000000001de .LASF34
     /tmp/ccBddiCI.s:2066   .debug_str:00000000000002d9 .LASF35
     /tmp/ccBddiCI.s:2134   .debug_str:00000000000005a1 .LASF36
     /tmp/ccBddiCI.s:2062   .debug_str:00000000000002ca .LASF37
     /tmp/ccBddiCI.s:2038   .debug_str:000000000000020c .LASF38
     /tmp/ccBddiCI.s:2014   .debug_str:000000000000016b .LASF40
     /tmp/ccBddiCI.s:2132   .debug_str:0000000000000593 .LASF83
     /tmp/ccBddiCI.s:2122   .debug_str:0000000000000533 .LASF84
     /tmp/ccBddiCI.s:2058   .debug_str:00000000000002bb .LASF39
     /tmp/ccBddiCI.s:2114   .debug_str:0000000000000435 .LASF41
     /tmp/ccBddiCI.s:2072   .debug_str:00000000000002fe .LASF43
     /tmp/ccBddiCI.s:2028   .debug_str:00000000000001c4 .LASF45
     /tmp/ccBddiCI.s:2102   .debug_str:00000000000003f0 .LASF85
     /tmp/ccBddiCI.s:2036   .debug_str:0000000000000201 .LASF46
     /tmp/ccBddiCI.s:2016   .debug_str:0000000000000188 .LASF47
     /tmp/ccBddiCI.s:2018   .debug_str:0000000000000193 .LASF86
     /tmp/ccBddiCI.s:1986   .debug_str:00000000000000a8 .LASF48
     /tmp/ccBddiCI.s:2094   .debug_str:00000000000003b9 .LASF49
     /tmp/ccBddiCI.s:2034   .debug_str:00000000000001f3 .LASF50
     /tmp/ccBddiCI.s:1992   .debug_str:00000000000000d6 .LASF51
     /tmp/ccBddiCI.s:2006   .debug_str:0000000000000132 .LASF52
     /tmp/ccBddiCI.s:2128   .debug_str:000000000000057a .LASF53
     /tmp/ccBddiCI.s:2064   .debug_str:00000000000002cf .LASF54
     /tmp/ccBddiCI.s:2106   .debug_str:000000000000040b .LASF55
     /tmp/ccBddiCI.s:1978   .debug_str:0000000000000077 .LASF56
     /tmp/ccBddiCI.s:2050   .debug_str:0000000000000277 .LASF57
     /tmp/ccBddiCI.s:1972   .debug_str:000000000000005b .LASF58
     /tmp/ccBddiCI.s:2136   .debug_str:00000000000005aa .LASF59
     /tmp/ccBddiCI.s:1998   .debug_str:00000000000000f4 .LASF60
GAS LISTING /tmp/ccBddiCI.s 			page 13


     /tmp/ccBddiCI.s:1970   .debug_str:000000000000004f .LASF61
     /tmp/ccBddiCI.s:2074   .debug_str:0000000000000309 .LASF63
     /tmp/ccBddiCI.s:323    .text:000000000000014c .LFB25
     /tmp/ccBddiCI.s:363    .text:0000000000000178 .LFE25
     /tmp/ccBddiCI.s:1810   .debug_loc:0000000000000000 .LLST8
     /tmp/ccBddiCI.s:1990   .debug_str:00000000000000c8 .LASF62
     /tmp/ccBddiCI.s:2138   .debug_str:00000000000005af .LASF64
     /tmp/ccBddiCI.s:198    .text:00000000000000b4 .LFB24
     /tmp/ccBddiCI.s:317    .text:000000000000014c .LFE24
     /tmp/ccBddiCI.s:2110   .debug_str:0000000000000429 .LASF65
     /tmp/ccBddiCI.s:1817   .debug_loc:0000000000000023 .LLST4
     /tmp/ccBddiCI.s:2004   .debug_str:0000000000000124 .LASF66
     /tmp/ccBddiCI.s:1839   .debug_loc:0000000000000082 .LLST5
     /tmp/ccBddiCI.s:1861   .debug_loc:00000000000000e1 .LLST6
     /tmp/ccBddiCI.s:237    .text:0000000000000100 .LBB3
     /tmp/ccBddiCI.s:287    .text:0000000000000128 .LBE3
     /tmp/ccBddiCI.s:1883   .debug_loc:0000000000000140 .LLST7
     /tmp/ccBddiCI.s:224    .text:00000000000000e8 .LVL10
     /tmp/ccBddiCI.s:230    .text:00000000000000f8 .LVL11
     /tmp/ccBddiCI.s:2088   .debug_str:0000000000000382 .LASF67
     /tmp/ccBddiCI.s:2082   .debug_str:0000000000000348 .LASF68
     /tmp/ccBddiCI.s:144    .text:0000000000000084 .LFB23
     /tmp/ccBddiCI.s:192    .text:00000000000000b4 .LFE23
     /tmp/ccBddiCI.s:1890   .debug_loc:0000000000000163 .LLST2
     /tmp/ccBddiCI.s:1904   .debug_loc:000000000000019c .LLST3
     /tmp/ccBddiCI.s:2104   .debug_str:0000000000000401 .LASF69
     /tmp/ccBddiCI.s:1984   .debug_str:000000000000009a .LASF70
     /tmp/ccBddiCI.s:64     .text:0000000000000034 .LFB22
     /tmp/ccBddiCI.s:138    .text:0000000000000084 .LFE22
     /tmp/ccBddiCI.s:2112   .debug_str:0000000000000430 .LASF71
     /tmp/ccBddiCI.s:1911   .debug_loc:00000000000001bf .LLST0
     /tmp/ccBddiCI.s:1994   .debug_str:00000000000000e2 .LASF72
     /tmp/ccBddiCI.s:1936   .debug_loc:0000000000000221 .LLST1
     /tmp/ccBddiCI.s:1960   .debug_str:0000000000000009 .LASF73
     /tmp/ccBddiCI.s:2012   .debug_str:000000000000015f .LASF75
     /tmp/ccBddiCI.s:41     .text:000000000000001c .LFB21
     /tmp/ccBddiCI.s:58     .text:0000000000000034 .LFE21
     /tmp/ccBddiCI.s:2068   .debug_str:00000000000002e3 .LASF74
     /tmp/ccBddiCI.s:1980   .debug_str:0000000000000082 .LASF76
     /tmp/ccBddiCI.s:10     .text:0000000000000000 .LFB20
     /tmp/ccBddiCI.s:35     .text:000000000000001c .LFE20
     /tmp/ccBddiCI.s:1964   .debug_str:0000000000000021 .LASF87
     /tmp/ccBddiCI.s:2008   .debug_str:0000000000000141 .LASF88
     /tmp/ccBddiCI.s:2126   .debug_str:0000000000000568 .LASF89
     /tmp/ccBddiCI.s:2002   .debug_str:0000000000000117 .LASF90
     /tmp/ccBddiCI.s:350    .text:0000000000000168 .LVL18
     /tmp/ccBddiCI.s:355    .text:000000000000016c .LVL19
     /tmp/ccBddiCI.s:201    .text:00000000000000b4 .LVL8
     /tmp/ccBddiCI.s:222    .text:00000000000000e0 .LVL9
     /tmp/ccBddiCI.s:304    .text:000000000000013c .LVL16
     /tmp/ccBddiCI.s:308    .text:0000000000000144 .LVL17
     /tmp/ccBddiCI.s:301    .text:0000000000000138 .LVL15
     /tmp/ccBddiCI.s:298    .text:0000000000000134 .LVL14
     /tmp/ccBddiCI.s:280    .text:0000000000000124 .LVL12
     /tmp/ccBddiCI.s:285    .text:0000000000000128 .LVL13
     /tmp/ccBddiCI.s:147    .text:0000000000000084 .LVL5
     /tmp/ccBddiCI.s:179    .text:00000000000000a4 .LVL6
GAS LISTING /tmp/ccBddiCI.s 			page 14


     /tmp/ccBddiCI.s:184    .text:00000000000000a8 .LVL7
     /tmp/ccBddiCI.s:67     .text:0000000000000034 .LVL0
     /tmp/ccBddiCI.s:83     .text:000000000000004c .LVL1
     /tmp/ccBddiCI.s:127    .text:0000000000000078 .LVL3
     /tmp/ccBddiCI.s:133    .text:000000000000007c .LVL4
     /tmp/ccBddiCI.s:116    .text:000000000000006c .LVL2
     /tmp/ccBddiCI.s:372    .debug_info:0000000000000000 .Ldebug_info0

UNDEFINED SYMBOLS
_Znam
_Z12printIntegerm
