GAS LISTING /tmp/ccUw1Qji.s 			page 1


   1              		.file	"syscall_c.cpp"
   2              		.option pic
   3              		.option norelax
   4              		.text
   5              	.Ltext0:
   6              		.align	2
   7              		.globl	_Z7syscallv
   9              	_Z7syscallv:
  10              	.LFB31:
  11              		.file 1 "src/syscall_c.cpp"
   1:src/syscall_c.cpp **** //
   2:src/syscall_c.cpp **** // Created by os on 8/12/22.
   3:src/syscall_c.cpp **** //
   4:src/syscall_c.cpp **** 
   5:src/syscall_c.cpp **** #include "../lib/hw.h"
   6:src/syscall_c.cpp **** #include "../h/syscall_c.h"
   7:src/syscall_c.cpp **** #include "../h/syscall_codes.h"
   8:src/syscall_c.cpp **** #include "../h/print.hpp"
   9:src/syscall_c.cpp **** #include "../h/tcb.hpp"
  10:src/syscall_c.cpp **** 
  11:src/syscall_c.cpp **** void syscall(){
  12              		.loc 1 11 15
  13              		.cfi_startproc
  14 0000 130101FF 		addi	sp,sp,-16
  15              		.cfi_def_cfa_offset 16
  16 0004 23348100 		sd	s0,8(sp)
  17              		.cfi_offset 8, -8
  18 0008 13040101 		addi	s0,sp,16
  19              		.cfi_def_cfa 8, 0
  12:src/syscall_c.cpp ****     __asm__ volatile("ecall");
  20              		.loc 1 12 5
  21              		.loc 1 12 30 is_stmt 0
  22              	#APP
  23              	# 12 "src/syscall_c.cpp" 1
  13              	}
  24              		ecall
  25              	# 0 "" 2
  26              		.loc 1 13 1
  27              	#NO_APP
  28 0010 03348100 		ld	s0,8(sp)
  29              		.cfi_restore 8
  30              		.cfi_def_cfa 2, 16
  31 0014 13010101 		addi	sp,sp,16
  32              		.cfi_def_cfa_offset 0
  33 0018 67800000 		jr	ra
  34              		.cfi_endproc
  35              	.LFE31:
  37              		.align	2
  38              		.globl	_Z7setArgsv
  40              	_Z7setArgsv:
  41              	.LFB32:
  14:src/syscall_c.cpp **** 
  15:src/syscall_c.cpp **** void setArgs(){
  42              		.loc 1 15 15 is_stmt 1
  43              		.cfi_startproc
  44 001c 130101FF 		addi	sp,sp,-16
  45              		.cfi_def_cfa_offset 16
GAS LISTING /tmp/ccUw1Qji.s 			page 2


  46 0020 23348100 		sd	s0,8(sp)
  47              		.cfi_offset 8, -8
  48 0024 13040101 		addi	s0,sp,16
  49              		.cfi_def_cfa 8, 0
  16:src/syscall_c.cpp **** 
  17:src/syscall_c.cpp **** }
  50              		.loc 1 17 1 is_stmt 0
  51 0028 03348100 		ld	s0,8(sp)
  52              		.cfi_restore 8
  53              		.cfi_def_cfa 2, 16
  54 002c 13010101 		addi	sp,sp,16
  55              		.cfi_def_cfa_offset 0
  56 0030 67800000 		jr	ra
  57              		.cfi_endproc
  58              	.LFE32:
  60              		.align	2
  61              		.globl	_Z9mem_allocm
  63              	_Z9mem_allocm:
  64              	.LFB33:
  18:src/syscall_c.cpp **** 
  19:src/syscall_c.cpp **** //pakovanje poziva sa argumentima
  20:src/syscall_c.cpp **** 
  21:src/syscall_c.cpp **** void* mem_alloc(size_t size){
  65              		.loc 1 21 29 is_stmt 1
  66              		.cfi_startproc
  67              	.LVL0:
  68 0034 130101FE 		addi	sp,sp,-32
  69              		.cfi_def_cfa_offset 32
  70 0038 233C8100 		sd	s0,24(sp)
  71              		.cfi_offset 8, -8
  72 003c 13040102 		addi	s0,sp,32
  73              		.cfi_def_cfa 8, 0
  22:src/syscall_c.cpp ****     uint64 volatile blocksNum;
  74              		.loc 1 22 5
  23:src/syscall_c.cpp ****     if(size % MEM_BLOCK_SIZE != 0) {
  75              		.loc 1 23 5
  76              		.loc 1 23 13 is_stmt 0
  77 0040 9377F503 		andi	a5,a0,63
  78              		.loc 1 23 5
  79 0044 638A0702 		beqz	a5,.L6
  24:src/syscall_c.cpp ****         blocksNum = size / MEM_BLOCK_SIZE + 1;
  80              		.loc 1 24 9 is_stmt 1
  81              		.loc 1 24 26 is_stmt 0
  82 0048 13556500 		srli	a0,a0,6
  83              	.LVL1:
  84              		.loc 1 24 43
  85 004c 13051500 		addi	a0,a0,1
  86              		.loc 1 24 19
  87 0050 2334A4FE 		sd	a0,-24(s0)
  88              	.L7:
  25:src/syscall_c.cpp ****     }
  26:src/syscall_c.cpp ****     else {
  27:src/syscall_c.cpp ****         blocksNum = size / MEM_BLOCK_SIZE;
  28:src/syscall_c.cpp ****     }
  29:src/syscall_c.cpp ****     __asm__ volatile("mv a0, %0" : : "r" (MEM_ALLOC));
  89              		.loc 1 29 5 is_stmt 1
  90              		.loc 1 29 54 is_stmt 0
GAS LISTING /tmp/ccUw1Qji.s 			page 3


  91 0054 93071000 		li	a5,1
  92              	#APP
  93              	# 29 "src/syscall_c.cpp" 1
  30              	    __asm__ volatile("mv a1, %0" : : "r" (blocksNum));
  94              		mv a0, a5
  95              	# 0 "" 2
  96              		.loc 1 30 5 is_stmt 1
  97              		.loc 1 30 43 is_stmt 0
  98              	#NO_APP
  99 005c 833784FE 		ld	a5,-24(s0)
 100              		.loc 1 30 54
 101              	#APP
 102              	# 30 "src/syscall_c.cpp" 1
  31              	    __asm__ volatile("ecall");
 103              		mv a1, a5
 104              	# 0 "" 2
 105              		.loc 1 31 5 is_stmt 1
 106              		.loc 1 31 30 is_stmt 0
 107              	# 31 "src/syscall_c.cpp" 1
  32              	    //poziv za blockNum
  33:src/syscall_c.cpp ****     void* ret;
 108              		ecall
 109              	# 0 "" 2
 110              		.loc 1 33 5 is_stmt 1
  34:src/syscall_c.cpp ****     __asm__ volatile("mv %0, a0" : "=r" (ret));
 111              		.loc 1 34 5
 112              		.loc 1 34 47 is_stmt 0
 113              	# 34 "src/syscall_c.cpp" 1
  35              	//    printString("povratak iz prekidne rutine\n");
 114              		mv a0, a0
 115              	# 0 "" 2
 116              	.LVL2:
  36:src/syscall_c.cpp **** //    printInteger((uint64)ret);
  37:src/syscall_c.cpp ****     return (void*)ret;
 117              		.loc 1 37 5 is_stmt 1
  38:src/syscall_c.cpp **** }
 118              		.loc 1 38 1 is_stmt 0
 119              	#NO_APP
 120 006c 03348101 		ld	s0,24(sp)
 121              		.cfi_remember_state
 122              		.cfi_restore 8
 123              		.cfi_def_cfa 2, 32
 124 0070 13010102 		addi	sp,sp,32
 125              		.cfi_def_cfa_offset 0
 126 0074 67800000 		jr	ra
 127              	.LVL3:
 128              	.L6:
 129              		.cfi_restore_state
  27:src/syscall_c.cpp ****     }
 130              		.loc 1 27 9 is_stmt 1
  27:src/syscall_c.cpp ****     }
 131              		.loc 1 27 26 is_stmt 0
 132 0078 13556500 		srli	a0,a0,6
 133              	.LVL4:
  27:src/syscall_c.cpp ****     }
 134              		.loc 1 27 19
 135 007c 2334A4FE 		sd	a0,-24(s0)
GAS LISTING /tmp/ccUw1Qji.s 			page 4


 136 0080 6FF05FFD 		j	.L7
 137              		.cfi_endproc
 138              	.LFE33:
 140              		.align	2
 141              		.globl	_Z8mem_freePv
 143              	_Z8mem_freePv:
 144              	.LFB34:
  39:src/syscall_c.cpp **** 
  40:src/syscall_c.cpp **** int mem_free(void *p){
 145              		.loc 1 40 22 is_stmt 1
 146              		.cfi_startproc
 147              	.LVL5:
 148 0084 130101FF 		addi	sp,sp,-16
 149              		.cfi_def_cfa_offset 16
 150 0088 23348100 		sd	s0,8(sp)
 151              		.cfi_offset 8, -8
 152 008c 13040101 		addi	s0,sp,16
 153              		.cfi_def_cfa 8, 0
  41:src/syscall_c.cpp ****     //prvo cu upisati p u a1, jer ako stavim prvo da se upise vrednost u a0 promenicu i argumen p
  42:src/syscall_c.cpp ****     //jer je preko njega poslat argument f-je
  43:src/syscall_c.cpp ****     __asm__ volatile("mv a1, %0" : : "r" (p));
 154              		.loc 1 43 5
 155              		.loc 1 43 46 is_stmt 0
 156              	#APP
 157              	# 43 "src/syscall_c.cpp" 1
  44              	    __asm__ volatile("mv a0, %0" : : "r" (MEM_FREE));
 158              		mv a1, a0
 159              	# 0 "" 2
 160              		.loc 1 44 5 is_stmt 1
 161              		.loc 1 44 53 is_stmt 0
 162              	#NO_APP
 163 0094 93072000 		li	a5,2
 164              	#APP
 165              	# 44 "src/syscall_c.cpp" 1
  45              	
  46:src/syscall_c.cpp ****     __asm__ volatile("ecall");
 166              		mv a0, a5
 167              	# 0 "" 2
 168              		.loc 1 46 5 is_stmt 1
 169              		.loc 1 46 30 is_stmt 0
 170              	# 46 "src/syscall_c.cpp" 1
  47              	    uint64 ret;
 171              		ecall
 172              	# 0 "" 2
 173              		.loc 1 47 5 is_stmt 1
  48:src/syscall_c.cpp ****     __asm__ volatile("mv %0, a0" : "=r" (ret));
 174              		.loc 1 48 5
 175              		.loc 1 48 47 is_stmt 0
 176              	# 48 "src/syscall_c.cpp" 1
  49              	    return ret;
 177              		mv a0, a0
 178              	# 0 "" 2
 179              	.LVL6:
 180              		.loc 1 49 5 is_stmt 1
  50:src/syscall_c.cpp **** }
 181              		.loc 1 50 1 is_stmt 0
 182              	#NO_APP
GAS LISTING /tmp/ccUw1Qji.s 			page 5


 183 00a4 1B050500 		sext.w	a0,a0
 184              	.LVL7:
 185 00a8 03348100 		ld	s0,8(sp)
 186              		.cfi_restore 8
 187              		.cfi_def_cfa 2, 16
 188 00ac 13010101 		addi	sp,sp,16
 189              		.cfi_def_cfa_offset 0
 190 00b0 67800000 		jr	ra
 191              		.cfi_endproc
 192              	.LFE34:
 194              		.align	2
 195              		.globl	_Z13thread_createPP7_threadPFvPvES2_
 197              	_Z13thread_createPP7_threadPFvPvES2_:
 198              	.LFB35:
  51:src/syscall_c.cpp **** 
  52:src/syscall_c.cpp **** int thread_create( thread_t* handle,
  53:src/syscall_c.cpp ****                    void(*start_routine)(void*),
  54:src/syscall_c.cpp ****                    void *arg
  55:src/syscall_c.cpp ****                    ){
 199              		.loc 1 55 21 is_stmt 1
 200              		.cfi_startproc
 201              	.LVL8:
 202 00b4 130101FC 		addi	sp,sp,-64
 203              		.cfi_def_cfa_offset 64
 204 00b8 233C1102 		sd	ra,56(sp)
 205 00bc 23388102 		sd	s0,48(sp)
 206 00c0 23349102 		sd	s1,40(sp)
 207 00c4 23302103 		sd	s2,32(sp)
 208 00c8 233C3101 		sd	s3,24(sp)
 209              		.cfi_offset 1, -8
 210              		.cfi_offset 8, -16
 211              		.cfi_offset 9, -24
 212              		.cfi_offset 18, -32
 213              		.cfi_offset 19, -40
 214 00cc 13040104 		addi	s0,sp,64
 215              		.cfi_def_cfa 8, 0
 216 00d0 93090500 		mv	s3,a0
 217 00d4 13890500 		mv	s2,a1
 218 00d8 93040600 		mv	s1,a2
  56:src/syscall_c.cpp ****     //za ABI poziv mora se dodati i argument za stek
  57:src/syscall_c.cpp **** 
  58:src/syscall_c.cpp ****     void* volatile stack = new uint64[DEFAULT_STACK_SIZE];
 219              		.loc 1 58 5
 220              		.loc 1 58 57 is_stmt 0
 221 00dc 37850000 		li	a0,32768
 222              	.LVL9:
 223 00e0 97000000 		call	_Znam@plt
 223      E7800000 
 224              	.LVL10:
 225 00e8 2334A4FC 		sd	a0,-56(s0)
  59:src/syscall_c.cpp ****     printInteger((uint64)stack);
 226              		.loc 1 59 5 is_stmt 1
 227              		.loc 1 59 17 is_stmt 0
 228 00ec 033584FC 		ld	a0,-56(s0)
 229 00f0 97000000 		call	_Z12printIntegerm@plt
 229      E7800000 
 230              	.LVL11:
GAS LISTING /tmp/ccUw1Qji.s 			page 6


  60:src/syscall_c.cpp ****     if(stack != nullptr) {
 231              		.loc 1 60 5 is_stmt 1
 232              	.LBB2:
 233              		.loc 1 60 8 is_stmt 0
 234 00f8 833784FC 		ld	a5,-56(s0)
 235              		.loc 1 60 5
 236 00fc 63840704 		beqz	a5,.L13
 237              	.LBB3:
  61:src/syscall_c.cpp ****         __asm__ volatile("mv a0, %0" : : "r" (THREAD_CREATE));
 238              		.loc 1 61 9 is_stmt 1
 239              		.loc 1 61 62 is_stmt 0
 240 0100 93071001 		li	a5,17
 241              	#APP
 242              	# 61 "src/syscall_c.cpp" 1
  62              	        __asm__ volatile("mv a1, %0" : : "r" (handle));
 243              		mv a0, a5
 244              	# 0 "" 2
 245              		.loc 1 62 9 is_stmt 1
 246              		.loc 1 62 55 is_stmt 0
 247              	# 62 "src/syscall_c.cpp" 1
  63              	        __asm__ volatile("mv a2, %0" : : "r" (start_routine));
 248              		mv a1, s3
 249              	# 0 "" 2
 250              		.loc 1 63 9 is_stmt 1
 251              		.loc 1 63 62 is_stmt 0
 252              	# 63 "src/syscall_c.cpp" 1
  64              	        __asm__ volatile("mv a3, %0" : : "r" (arg));
 253              		mv a2, s2
 254              	# 0 "" 2
 255              		.loc 1 64 9 is_stmt 1
 256              		.loc 1 64 52 is_stmt 0
 257              	# 64 "src/syscall_c.cpp" 1
  65              	        __asm__ volatile("mv a4, %0" : : "r" (stack));
 258              		mv a3, s1
 259              	# 0 "" 2
 260              		.loc 1 65 9 is_stmt 1
 261              		.loc 1 65 47 is_stmt 0
 262              	#NO_APP
 263 0114 833784FC 		ld	a5,-56(s0)
 264              		.loc 1 65 54
 265              	#APP
 266              	# 65 "src/syscall_c.cpp" 1
  66              	        __asm__ volatile("ecall");
 267              		mv a4, a5
 268              	# 0 "" 2
 269              		.loc 1 66 9 is_stmt 1
 270              		.loc 1 66 34 is_stmt 0
 271              	# 66 "src/syscall_c.cpp" 1
  67              	
  68:src/syscall_c.cpp ****         uint64 ret;
 272              		ecall
 273              	# 0 "" 2
 274              		.loc 1 68 9 is_stmt 1
  69:src/syscall_c.cpp ****         __asm__ volatile("mv %0, a0" : "=r" (ret));
 275              		.loc 1 69 9
 276              		.loc 1 69 51 is_stmt 0
 277              	# 69 "src/syscall_c.cpp" 1
GAS LISTING /tmp/ccUw1Qji.s 			page 7


  70              	        return ret;
 278              		mv a0, a0
 279              	# 0 "" 2
 280              	.LVL12:
 281              		.loc 1 70 9 is_stmt 1
 282              		.loc 1 70 16 is_stmt 0
 283              	#NO_APP
 284 0124 1B050500 		sext.w	a0,a0
 285              	.LVL13:
 286              	.L12:
 287              	.LBE3:
 288              	.LBE2:
  71:src/syscall_c.cpp **** 
  72:src/syscall_c.cpp ****     } else{
  73:src/syscall_c.cpp ****         return -2;
  74:src/syscall_c.cpp ****     }
  75:src/syscall_c.cpp **** }
 289              		.loc 1 75 1
 290 0128 83308103 		ld	ra,56(sp)
 291              		.cfi_remember_state
 292              		.cfi_restore 1
 293 012c 03340103 		ld	s0,48(sp)
 294              		.cfi_restore 8
 295              		.cfi_def_cfa 2, 64
 296 0130 83348102 		ld	s1,40(sp)
 297              		.cfi_restore 9
 298              	.LVL14:
 299 0134 03390102 		ld	s2,32(sp)
 300              		.cfi_restore 18
 301              	.LVL15:
 302 0138 83398101 		ld	s3,24(sp)
 303              		.cfi_restore 19
 304              	.LVL16:
 305 013c 13010104 		addi	sp,sp,64
 306              		.cfi_def_cfa_offset 0
 307 0140 67800000 		jr	ra
 308              	.LVL17:
 309              	.L13:
 310              		.cfi_restore_state
 311              	.LBB4:
  73:src/syscall_c.cpp ****     }
 312              		.loc 1 73 17
 313 0144 1305E0FF 		li	a0,-2
 314 0148 6FF01FFE 		j	.L12
 315              	.LBE4:
 316              		.cfi_endproc
 317              	.LFE35:
 319              		.align	2
 320              		.globl	_Z11thread_exitv
 322              	_Z11thread_exitv:
 323              	.LFB36:
  76:src/syscall_c.cpp **** 
  77:src/syscall_c.cpp **** int thread_exit(){
 324              		.loc 1 77 18 is_stmt 1
 325              		.cfi_startproc
 326 014c 130101FF 		addi	sp,sp,-16
 327              		.cfi_def_cfa_offset 16
GAS LISTING /tmp/ccUw1Qji.s 			page 8


 328 0150 23348100 		sd	s0,8(sp)
 329              		.cfi_offset 8, -8
 330 0154 13040101 		addi	s0,sp,16
 331              		.cfi_def_cfa 8, 0
  78:src/syscall_c.cpp ****     __asm__ volatile("mv a0, %0" : : "r" (THREAD_EXIT));
 332              		.loc 1 78 5
 333              		.loc 1 78 56 is_stmt 0
 334 0158 93072001 		li	a5,18
 335              	#APP
 336              	# 78 "src/syscall_c.cpp" 1
  79              	    __asm__ volatile("ecall");
 337              		mv a0, a5
 338              	# 0 "" 2
 339              		.loc 1 79 5 is_stmt 1
 340              		.loc 1 79 30 is_stmt 0
 341              	# 79 "src/syscall_c.cpp" 1
  80              	    uint64 ret;
 342              		ecall
 343              	# 0 "" 2
 344              		.loc 1 80 5 is_stmt 1
  81:src/syscall_c.cpp ****     __asm__ volatile("mv %0, a0" : "=r" (ret));
 345              		.loc 1 81 5
 346              		.loc 1 81 47 is_stmt 0
 347              	# 81 "src/syscall_c.cpp" 1
  82              	    return ret;
 348              		mv a0, a0
 349              	# 0 "" 2
 350              	.LVL18:
 351              		.loc 1 82 5 is_stmt 1
  83:src/syscall_c.cpp **** }
 352              		.loc 1 83 1 is_stmt 0
 353              	#NO_APP
 354 0168 1B050500 		sext.w	a0,a0
 355              	.LVL19:
 356 016c 03348100 		ld	s0,8(sp)
 357              		.cfi_restore 8
 358              		.cfi_def_cfa 2, 16
 359 0170 13010101 		addi	sp,sp,16
 360              		.cfi_def_cfa_offset 0
 361 0174 67800000 		jr	ra
 362              		.cfi_endproc
 363              	.LFE36:
 365              		.align	2
 366              		.globl	_Z15thread_dispatchv
 368              	_Z15thread_dispatchv:
 369              	.LFB37:
  84:src/syscall_c.cpp **** 
  85:src/syscall_c.cpp **** void thread_dispatch(){
 370              		.loc 1 85 23 is_stmt 1
 371              		.cfi_startproc
 372 0178 130101FF 		addi	sp,sp,-16
 373              		.cfi_def_cfa_offset 16
 374 017c 23348100 		sd	s0,8(sp)
 375              		.cfi_offset 8, -8
 376 0180 13040101 		addi	s0,sp,16
 377              		.cfi_def_cfa 8, 0
  86:src/syscall_c.cpp ****     __asm__ volatile("mv a0, %0" : : "r" (THREAD_DISPACH));
GAS LISTING /tmp/ccUw1Qji.s 			page 9


 378              		.loc 1 86 5
 379              		.loc 1 86 59 is_stmt 0
 380 0184 93073001 		li	a5,19
 381              	#APP
 382              	# 86 "src/syscall_c.cpp" 1
  87              	    __asm__ volatile("ecall");
 383              		mv a0, a5
 384              	# 0 "" 2
 385              		.loc 1 87 5 is_stmt 1
 386              		.loc 1 87 30 is_stmt 0
 387              	# 87 "src/syscall_c.cpp" 1
  88              	}
 388              		ecall
 389              	# 0 "" 2
 390              		.loc 1 88 1
 391              	#NO_APP
 392 0190 03348100 		ld	s0,8(sp)
 393              		.cfi_restore 8
 394              		.cfi_def_cfa 2, 16
 395 0194 13010101 		addi	sp,sp,16
 396              		.cfi_def_cfa_offset 0
 397 0198 67800000 		jr	ra
 398              		.cfi_endproc
 399              	.LFE37:
 401              		.align	2
 402              		.globl	_Z21thread_initializationPP7_threadPFvPvES2_
 404              	_Z21thread_initializationPP7_threadPFvPvES2_:
 405              	.LFB38:
  89:src/syscall_c.cpp **** 
  90:src/syscall_c.cpp **** void thread_initialization(
  91:src/syscall_c.cpp ****         thread_t *handle,
  92:src/syscall_c.cpp ****         void(*start_routine)(void*),
  93:src/syscall_c.cpp ****         void *arg) {
 406              		.loc 1 93 20 is_stmt 1
 407              		.cfi_startproc
 408              	.LVL20:
 409 019c 130101FC 		addi	sp,sp,-64
 410              		.cfi_def_cfa_offset 64
 411 01a0 233C1102 		sd	ra,56(sp)
 412 01a4 23388102 		sd	s0,48(sp)
 413 01a8 23349102 		sd	s1,40(sp)
 414 01ac 23302103 		sd	s2,32(sp)
 415 01b0 233C3101 		sd	s3,24(sp)
 416              		.cfi_offset 1, -8
 417              		.cfi_offset 8, -16
 418              		.cfi_offset 9, -24
 419              		.cfi_offset 18, -32
 420              		.cfi_offset 19, -40
 421 01b4 13040104 		addi	s0,sp,64
 422              		.cfi_def_cfa 8, 0
 423 01b8 93090500 		mv	s3,a0
 424 01bc 13890500 		mv	s2,a1
 425 01c0 93040600 		mv	s1,a2
  94:src/syscall_c.cpp ****     void* volatile stack = new uint64[DEFAULT_STACK_SIZE];
 426              		.loc 1 94 5
 427              		.loc 1 94 57 is_stmt 0
 428 01c4 37850000 		li	a0,32768
GAS LISTING /tmp/ccUw1Qji.s 			page 10


 429              	.LVL21:
 430 01c8 97000000 		call	_Znam@plt
 430      E7800000 
 431              	.LVL22:
 432 01d0 2334A4FC 		sd	a0,-56(s0)
  95:src/syscall_c.cpp ****     if (stack != nullptr) {
 433              		.loc 1 95 5 is_stmt 1
 434              		.loc 1 95 9 is_stmt 0
 435 01d4 833784FC 		ld	a5,-56(s0)
 436              		.loc 1 95 5
 437 01d8 63820702 		beqz	a5,.L19
  96:src/syscall_c.cpp ****         __asm__ volatile("mv a0, %0" : : "r" (THREAD_INIT));
 438              		.loc 1 96 9 is_stmt 1
 439              		.loc 1 96 60 is_stmt 0
 440 01dc 93073004 		li	a5,67
 441              	#APP
 442              	# 96 "src/syscall_c.cpp" 1
  97              	        __asm__ volatile("mv a1, %0" : : "r" (handle));
 443              		mv a0, a5
 444              	# 0 "" 2
 445              		.loc 1 97 9 is_stmt 1
 446              		.loc 1 97 55 is_stmt 0
 447              	# 97 "src/syscall_c.cpp" 1
  98              	        __asm__ volatile("mv a2, %0" : : "r" (start_routine));
 448              		mv a1, s3
 449              	# 0 "" 2
 450              		.loc 1 98 9 is_stmt 1
 451              		.loc 1 98 62 is_stmt 0
 452              	# 98 "src/syscall_c.cpp" 1
  99              	        __asm__ volatile("mv a3, %0" : : "r" (arg));
 453              		mv a2, s2
 454              	# 0 "" 2
 455              		.loc 1 99 9 is_stmt 1
 456              		.loc 1 99 52 is_stmt 0
 457              	# 99 "src/syscall_c.cpp" 1
 100              	        __asm__ volatile("mv a4, %0" : : "r" (stack));
 458              		mv a3, s1
 459              	# 0 "" 2
 460              		.loc 1 100 9 is_stmt 1
 461              		.loc 1 100 47 is_stmt 0
 462              	#NO_APP
 463 01f0 833784FC 		ld	a5,-56(s0)
 464              		.loc 1 100 54
 465              	#APP
 466              	# 100 "src/syscall_c.cpp" 1
 101              	        __asm__ volatile("ecall");
 467              		mv a4, a5
 468              	# 0 "" 2
 469              		.loc 1 101 9 is_stmt 1
 470              		.loc 1 101 34 is_stmt 0
 471              	# 101 "src/syscall_c.cpp" 1
 102              	    }
 472              		ecall
 473              	# 0 "" 2
 474              	#NO_APP
 475              	.L19:
 103:src/syscall_c.cpp **** }
GAS LISTING /tmp/ccUw1Qji.s 			page 11


 476              		.loc 1 103 1
 477 01fc 83308103 		ld	ra,56(sp)
 478              		.cfi_restore 1
 479 0200 03340103 		ld	s0,48(sp)
 480              		.cfi_restore 8
 481              		.cfi_def_cfa 2, 64
 482 0204 83348102 		ld	s1,40(sp)
 483              		.cfi_restore 9
 484              	.LVL23:
 485 0208 03390102 		ld	s2,32(sp)
 486              		.cfi_restore 18
 487              	.LVL24:
 488 020c 83398101 		ld	s3,24(sp)
 489              		.cfi_restore 19
 490              	.LVL25:
 491 0210 13010104 		addi	sp,sp,64
 492              		.cfi_def_cfa_offset 0
 493 0214 67800000 		jr	ra
 494              		.cfi_endproc
 495              	.LFE38:
 497              		.align	2
 498              		.globl	_Z12thread_startP7_thread
 500              	_Z12thread_startP7_thread:
 501              	.LFB39:
 104:src/syscall_c.cpp **** 
 105:src/syscall_c.cpp **** void thread_start(thread_t t){
 502              		.loc 1 105 30 is_stmt 1
 503              		.cfi_startproc
 504              	.LVL26:
 505 0218 130101FF 		addi	sp,sp,-16
 506              		.cfi_def_cfa_offset 16
 507 021c 23348100 		sd	s0,8(sp)
 508              		.cfi_offset 8, -8
 509 0220 13040101 		addi	s0,sp,16
 510              		.cfi_def_cfa 8, 0
 106:src/syscall_c.cpp ****     __asm__ volatile("mv a1, %0" : : "r" (t));
 511              		.loc 1 106 5
 512              		.loc 1 106 46 is_stmt 0
 513              	#APP
 514              	# 106 "src/syscall_c.cpp" 1
 107              	    __asm__ volatile("mv a0, %0" : : "r" (THREAD_START));
 515              		mv a1, a0
 516              	# 0 "" 2
 517              		.loc 1 107 5 is_stmt 1
 518              		.loc 1 107 57 is_stmt 0
 519              	#NO_APP
 520 0228 93074004 		li	a5,68
 521              	#APP
 522              	# 107 "src/syscall_c.cpp" 1
 108              	    __asm__ volatile("ecall");
 523              		mv a0, a5
 524              	# 0 "" 2
 525              		.loc 1 108 5 is_stmt 1
 526              		.loc 1 108 30 is_stmt 0
 527              	# 108 "src/syscall_c.cpp" 1
 109              	}
 528              		ecall
GAS LISTING /tmp/ccUw1Qji.s 			page 12


 529              	# 0 "" 2
 530              		.loc 1 109 1
 531              	#NO_APP
 532 0234 03348100 		ld	s0,8(sp)
 533              		.cfi_restore 8
 534              		.cfi_def_cfa 2, 16
 535 0238 13010101 		addi	sp,sp,16
 536              		.cfi_def_cfa_offset 0
 537 023c 67800000 		jr	ra
 538              		.cfi_endproc
 539              	.LFE39:
 541              		.align	2
 542              		.globl	_Z8sem_openPP4_semj
 544              	_Z8sem_openPP4_semj:
 545              	.LFB40:
 110:src/syscall_c.cpp **** 
 111:src/syscall_c.cpp **** 
 112:src/syscall_c.cpp **** int sem_open(sem_t *handle, unsigned init){
 546              		.loc 1 112 43 is_stmt 1
 547              		.cfi_startproc
 548              	.LVL27:
 549 0240 130101FF 		addi	sp,sp,-16
 550              		.cfi_def_cfa_offset 16
 551 0244 23348100 		sd	s0,8(sp)
 552              		.cfi_offset 8, -8
 553 0248 13040101 		addi	s0,sp,16
 554              		.cfi_def_cfa 8, 0
 113:src/syscall_c.cpp ****     __asm__ volatile("mv a2, %0" : : "r" (init));
 555              		.loc 1 113 5
 556              		.loc 1 113 49 is_stmt 0
 557              	#APP
 558              	# 113 "src/syscall_c.cpp" 1
 114              	    __asm__ volatile("mv a1, %0" : : "r" (handle));
 559              		mv a2, a1
 560              	# 0 "" 2
 561              		.loc 1 114 5 is_stmt 1
 562              		.loc 1 114 51 is_stmt 0
 563              	# 114 "src/syscall_c.cpp" 1
 115              	    __asm__ volatile("mv a0, %0" : : "r" (SEM_OPEN));
 564              		mv a1, a0
 565              	# 0 "" 2
 566              		.loc 1 115 5 is_stmt 1
 567              		.loc 1 115 53 is_stmt 0
 568              	#NO_APP
 569 0254 93071002 		li	a5,33
 570              	#APP
 571              	# 115 "src/syscall_c.cpp" 1
 116              	    __asm__ volatile("ecall");
 572              		mv a0, a5
 573              	# 0 "" 2
 574              		.loc 1 116 5 is_stmt 1
 575              		.loc 1 116 30 is_stmt 0
 576              	# 116 "src/syscall_c.cpp" 1
 117              	    uint64 ret;
 577              		ecall
 578              	# 0 "" 2
 579              		.loc 1 117 5 is_stmt 1
GAS LISTING /tmp/ccUw1Qji.s 			page 13


 118:src/syscall_c.cpp ****     __asm__ volatile("mv %0, a0" : "=r" (ret));
 580              		.loc 1 118 5
 581              		.loc 1 118 47 is_stmt 0
 582              	# 118 "src/syscall_c.cpp" 1
 119              	    return ret;
 583              		mv a0, a0
 584              	# 0 "" 2
 585              	.LVL28:
 586              		.loc 1 119 5 is_stmt 1
 120:src/syscall_c.cpp **** }
 587              		.loc 1 120 1 is_stmt 0
 588              	#NO_APP
 589 0264 1B050500 		sext.w	a0,a0
 590              	.LVL29:
 591 0268 03348100 		ld	s0,8(sp)
 592              		.cfi_restore 8
 593              		.cfi_def_cfa 2, 16
 594 026c 13010101 		addi	sp,sp,16
 595              		.cfi_def_cfa_offset 0
 596 0270 67800000 		jr	ra
 597              		.cfi_endproc
 598              	.LFE40:
 600              		.align	2
 601              		.globl	_Z9sem_closeP4_sem
 603              	_Z9sem_closeP4_sem:
 604              	.LFB41:
 121:src/syscall_c.cpp **** 
 122:src/syscall_c.cpp **** int sem_close(sem_t handle){
 605              		.loc 1 122 28 is_stmt 1
 606              		.cfi_startproc
 607              	.LVL30:
 608 0274 130101FF 		addi	sp,sp,-16
 609              		.cfi_def_cfa_offset 16
 610 0278 23348100 		sd	s0,8(sp)
 611              		.cfi_offset 8, -8
 612 027c 13040101 		addi	s0,sp,16
 613              		.cfi_def_cfa 8, 0
 123:src/syscall_c.cpp ****     __asm__ volatile("mv a1, %0" : : "r" (handle));
 614              		.loc 1 123 5
 615              		.loc 1 123 51 is_stmt 0
 616              	#APP
 617              	# 123 "src/syscall_c.cpp" 1
 124              	    __asm__ volatile("mv a0, %0" : : "r" (SEM_CLOSE));
 618              		mv a1, a0
 619              	# 0 "" 2
 620              		.loc 1 124 5 is_stmt 1
 621              		.loc 1 124 54 is_stmt 0
 622              	#NO_APP
 623 0284 93072002 		li	a5,34
 624              	#APP
 625              	# 124 "src/syscall_c.cpp" 1
 125              	    __asm__ volatile("ecall");
 626              		mv a0, a5
 627              	# 0 "" 2
 628              		.loc 1 125 5 is_stmt 1
 629              		.loc 1 125 30 is_stmt 0
 630              	# 125 "src/syscall_c.cpp" 1
GAS LISTING /tmp/ccUw1Qji.s 			page 14


 126              	    uint64 ret;
 631              		ecall
 632              	# 0 "" 2
 633              		.loc 1 126 5 is_stmt 1
 127:src/syscall_c.cpp ****     __asm__ volatile("mv %0, a0" : "=r" (ret));
 634              		.loc 1 127 5
 635              		.loc 1 127 47 is_stmt 0
 636              	# 127 "src/syscall_c.cpp" 1
 128              	    return ret;
 637              		mv a0, a0
 638              	# 0 "" 2
 639              	.LVL31:
 640              		.loc 1 128 5 is_stmt 1
 129:src/syscall_c.cpp **** }
 641              		.loc 1 129 1 is_stmt 0
 642              	#NO_APP
 643 0294 1B050500 		sext.w	a0,a0
 644              	.LVL32:
 645 0298 03348100 		ld	s0,8(sp)
 646              		.cfi_restore 8
 647              		.cfi_def_cfa 2, 16
 648 029c 13010101 		addi	sp,sp,16
 649              		.cfi_def_cfa_offset 0
 650 02a0 67800000 		jr	ra
 651              		.cfi_endproc
 652              	.LFE41:
 654              		.align	2
 655              		.globl	_Z8sem_waitP4_sem
 657              	_Z8sem_waitP4_sem:
 658              	.LFB42:
 130:src/syscall_c.cpp **** 
 131:src/syscall_c.cpp **** int sem_wait(sem_t id){
 659              		.loc 1 131 23 is_stmt 1
 660              		.cfi_startproc
 661              	.LVL33:
 662 02a4 130101FF 		addi	sp,sp,-16
 663              		.cfi_def_cfa_offset 16
 664 02a8 23348100 		sd	s0,8(sp)
 665              		.cfi_offset 8, -8
 666 02ac 13040101 		addi	s0,sp,16
 667              		.cfi_def_cfa 8, 0
 132:src/syscall_c.cpp ****     __asm__ volatile("mv a1, %0" : : "r" (id));
 668              		.loc 1 132 5
 669              		.loc 1 132 47 is_stmt 0
 670              	#APP
 671              	# 132 "src/syscall_c.cpp" 1
 133              	    __asm__ volatile("mv a0, %0" : : "r" (SEM_WAIT));
 672              		mv a1, a0
 673              	# 0 "" 2
 674              		.loc 1 133 5 is_stmt 1
 675              		.loc 1 133 53 is_stmt 0
 676              	#NO_APP
 677 02b4 93073002 		li	a5,35
 678              	#APP
 679              	# 133 "src/syscall_c.cpp" 1
 134              	    __asm__ volatile("ecall");
 680              		mv a0, a5
GAS LISTING /tmp/ccUw1Qji.s 			page 15


 681              	# 0 "" 2
 682              		.loc 1 134 5 is_stmt 1
 683              		.loc 1 134 30 is_stmt 0
 684              	# 134 "src/syscall_c.cpp" 1
 135              	    uint64 ret;
 685              		ecall
 686              	# 0 "" 2
 687              		.loc 1 135 5 is_stmt 1
 136:src/syscall_c.cpp ****     __asm__ volatile("mv %0, a0" : "=r" (ret));
 688              		.loc 1 136 5
 689              		.loc 1 136 47 is_stmt 0
 690              	# 136 "src/syscall_c.cpp" 1
 137              	    return ret;
 691              		mv a0, a0
 692              	# 0 "" 2
 693              	.LVL34:
 694              		.loc 1 137 5 is_stmt 1
 138:src/syscall_c.cpp **** }
 695              		.loc 1 138 1 is_stmt 0
 696              	#NO_APP
 697 02c4 1B050500 		sext.w	a0,a0
 698              	.LVL35:
 699 02c8 03348100 		ld	s0,8(sp)
 700              		.cfi_restore 8
 701              		.cfi_def_cfa 2, 16
 702 02cc 13010101 		addi	sp,sp,16
 703              		.cfi_def_cfa_offset 0
 704 02d0 67800000 		jr	ra
 705              		.cfi_endproc
 706              	.LFE42:
 708              		.align	2
 709              		.globl	_Z10sem_signalP4_sem
 711              	_Z10sem_signalP4_sem:
 712              	.LFB43:
 139:src/syscall_c.cpp **** 
 140:src/syscall_c.cpp **** int sem_signal(sem_t id){
 713              		.loc 1 140 25 is_stmt 1
 714              		.cfi_startproc
 715              	.LVL36:
 716 02d4 130101FF 		addi	sp,sp,-16
 717              		.cfi_def_cfa_offset 16
 718 02d8 23348100 		sd	s0,8(sp)
 719              		.cfi_offset 8, -8
 720 02dc 13040101 		addi	s0,sp,16
 721              		.cfi_def_cfa 8, 0
 141:src/syscall_c.cpp ****     __asm__ volatile("mv a1, %0" : : "r" (id));
 722              		.loc 1 141 5
 723              		.loc 1 141 47 is_stmt 0
 724              	#APP
 725              	# 141 "src/syscall_c.cpp" 1
 142              	    __asm__ volatile("mv a0, %0" : : "r" (SEM_SIGNAL));
 726              		mv a1, a0
 727              	# 0 "" 2
 728              		.loc 1 142 5 is_stmt 1
 729              		.loc 1 142 55 is_stmt 0
 730              	#NO_APP
 731 02e4 93074002 		li	a5,36
GAS LISTING /tmp/ccUw1Qji.s 			page 16


 732              	#APP
 733              	# 142 "src/syscall_c.cpp" 1
 143              	    __asm__ volatile("ecall");
 734              		mv a0, a5
 735              	# 0 "" 2
 736              		.loc 1 143 5 is_stmt 1
 737              		.loc 1 143 30 is_stmt 0
 738              	# 143 "src/syscall_c.cpp" 1
 144              	    uint64 ret;
 739              		ecall
 740              	# 0 "" 2
 741              		.loc 1 144 5 is_stmt 1
 145:src/syscall_c.cpp ****     __asm__ volatile("mv %0, a0" : "=r" (ret));
 742              		.loc 1 145 5
 743              		.loc 1 145 47 is_stmt 0
 744              	# 145 "src/syscall_c.cpp" 1
 146              	    return ret;
 745              		mv a0, a0
 746              	# 0 "" 2
 747              	.LVL37:
 748              		.loc 1 146 5 is_stmt 1
 147:src/syscall_c.cpp **** }
 749              		.loc 1 147 1 is_stmt 0
 750              	#NO_APP
 751 02f4 1B050500 		sext.w	a0,a0
 752              	.LVL38:
 753 02f8 03348100 		ld	s0,8(sp)
 754              		.cfi_restore 8
 755              		.cfi_def_cfa 2, 16
 756 02fc 13010101 		addi	sp,sp,16
 757              		.cfi_def_cfa_offset 0
 758 0300 67800000 		jr	ra
 759              		.cfi_endproc
 760              	.LFE43:
 762              		.align	2
 763              		.globl	_Z10time_sleepm
 765              	_Z10time_sleepm:
 766              	.LFB44:
 148:src/syscall_c.cpp **** 
 149:src/syscall_c.cpp **** int time_sleep(time_t t){
 767              		.loc 1 149 25 is_stmt 1
 768              		.cfi_startproc
 769              	.LVL39:
 770 0304 130101FF 		addi	sp,sp,-16
 771              		.cfi_def_cfa_offset 16
 772 0308 23348100 		sd	s0,8(sp)
 773              		.cfi_offset 8, -8
 774 030c 13040101 		addi	s0,sp,16
 775              		.cfi_def_cfa 8, 0
 150:src/syscall_c.cpp ****     __asm__ volatile("mv a1, %0" : : "r" (t));
 776              		.loc 1 150 5
 777              		.loc 1 150 46 is_stmt 0
 778              	#APP
 779              	# 150 "src/syscall_c.cpp" 1
 151              	    __asm__ volatile("mv a0, %0" : : "r" (THREAD_SLEEP));
 780              		mv a1, a0
 781              	# 0 "" 2
GAS LISTING /tmp/ccUw1Qji.s 			page 17


 782              		.loc 1 151 5 is_stmt 1
 783              		.loc 1 151 57 is_stmt 0
 784              	#NO_APP
 785 0314 93071003 		li	a5,49
 786              	#APP
 787              	# 151 "src/syscall_c.cpp" 1
 152              	    __asm__ volatile("ecall");
 788              		mv a0, a5
 789              	# 0 "" 2
 790              		.loc 1 152 5 is_stmt 1
 791              		.loc 1 152 30 is_stmt 0
 792              	# 152 "src/syscall_c.cpp" 1
 153              	    uint64 ret;
 793              		ecall
 794              	# 0 "" 2
 795              		.loc 1 153 5 is_stmt 1
 154:src/syscall_c.cpp ****     __asm__ volatile("mv %0, a0" : "=r" (ret));
 796              		.loc 1 154 5
 797              		.loc 1 154 47 is_stmt 0
 798              	# 154 "src/syscall_c.cpp" 1
 155              	    return ret;
 799              		mv a0, a0
 800              	# 0 "" 2
 801              	.LVL40:
 802              		.loc 1 155 5 is_stmt 1
 156:src/syscall_c.cpp **** }
 803              		.loc 1 156 1 is_stmt 0
 804              	#NO_APP
 805 0324 1B050500 		sext.w	a0,a0
 806              	.LVL41:
 807 0328 03348100 		ld	s0,8(sp)
 808              		.cfi_restore 8
 809              		.cfi_def_cfa 2, 16
 810 032c 13010101 		addi	sp,sp,16
 811              		.cfi_def_cfa_offset 0
 812 0330 67800000 		jr	ra
 813              		.cfi_endproc
 814              	.LFE44:
 816              		.align	2
 817              		.globl	_Z4getcv
 819              	_Z4getcv:
 820              	.LFB45:
 157:src/syscall_c.cpp **** 
 158:src/syscall_c.cpp **** char getc(){
 821              		.loc 1 158 12 is_stmt 1
 822              		.cfi_startproc
 823 0334 130101FF 		addi	sp,sp,-16
 824              		.cfi_def_cfa_offset 16
 825 0338 23348100 		sd	s0,8(sp)
 826              		.cfi_offset 8, -8
 827 033c 13040101 		addi	s0,sp,16
 828              		.cfi_def_cfa 8, 0
 159:src/syscall_c.cpp ****     __asm__ volatile("mv a0, %0" : : "r" (GETC));
 829              		.loc 1 159 5
 830              		.loc 1 159 49 is_stmt 0
 831 0340 93071004 		li	a5,65
 832              	#APP
GAS LISTING /tmp/ccUw1Qji.s 			page 18


 833              	# 159 "src/syscall_c.cpp" 1
 160              	    __asm__ volatile("ecall");
 834              		mv a0, a5
 835              	# 0 "" 2
 836              		.loc 1 160 5 is_stmt 1
 837              		.loc 1 160 30 is_stmt 0
 838              	# 160 "src/syscall_c.cpp" 1
 161              	    char ret;
 839              		ecall
 840              	# 0 "" 2
 841              		.loc 1 161 5 is_stmt 1
 162:src/syscall_c.cpp ****     __asm__ volatile("mv %0, a0" : "=r" (ret));
 842              		.loc 1 162 5
 843              		.loc 1 162 47 is_stmt 0
 844              	# 162 "src/syscall_c.cpp" 1
 163              	    return ret;
 845              		mv a0, a0
 846              	# 0 "" 2
 847              	.LVL42:
 848              		.loc 1 163 5 is_stmt 1
 164:src/syscall_c.cpp **** }
 849              		.loc 1 164 1 is_stmt 0
 850              	#NO_APP
 851 0350 1375F50F 		andi	a0,a0,0xff
 852 0354 03348100 		ld	s0,8(sp)
 853              		.cfi_restore 8
 854              		.cfi_def_cfa 2, 16
 855 0358 13010101 		addi	sp,sp,16
 856              		.cfi_def_cfa_offset 0
 857 035c 67800000 		jr	ra
 858              		.cfi_endproc
 859              	.LFE45:
 861              		.align	2
 862              		.globl	_Z4putcc
 864              	_Z4putcc:
 865              	.LFB46:
 165:src/syscall_c.cpp **** void putc(char c){
 866              		.loc 1 165 18 is_stmt 1
 867              		.cfi_startproc
 868              	.LVL43:
 869 0360 130101FF 		addi	sp,sp,-16
 870              		.cfi_def_cfa_offset 16
 871 0364 23348100 		sd	s0,8(sp)
 872              		.cfi_offset 8, -8
 873 0368 13040101 		addi	s0,sp,16
 874              		.cfi_def_cfa 8, 0
 166:src/syscall_c.cpp ****     __asm__ volatile("mv a1, %0" : : "r" (c));
 875              		.loc 1 166 5
 876              		.loc 1 166 46 is_stmt 0
 877              	#APP
 878              	# 166 "src/syscall_c.cpp" 1
 167              	    __asm__ volatile("mv a0, %0" : : "r" (PUTC));
 879              		mv a1, a0
 880              	# 0 "" 2
 881              		.loc 1 167 5 is_stmt 1
 882              		.loc 1 167 49 is_stmt 0
 883              	#NO_APP
GAS LISTING /tmp/ccUw1Qji.s 			page 19


 884 0370 93072004 		li	a5,66
 885              	#APP
 886              	# 167 "src/syscall_c.cpp" 1
 168              	    __asm__ volatile("ecall");
 887              		mv a0, a5
 888              	# 0 "" 2
 889              		.loc 1 168 5 is_stmt 1
 890              		.loc 1 168 30 is_stmt 0
 891              	# 168 "src/syscall_c.cpp" 1
 169              	}
 892              		ecall
 893              	# 0 "" 2
 894              		.loc 1 169 1
 895              	#NO_APP
 896 037c 03348100 		ld	s0,8(sp)
 897              		.cfi_restore 8
 898              		.cfi_def_cfa 2, 16
 899 0380 13010101 		addi	sp,sp,16
 900              		.cfi_def_cfa_offset 0
 901 0384 67800000 		jr	ra
 902              		.cfi_endproc
 903              	.LFE46:
 905              	.Letext0:
 906              		.file 2 "src/../lib/hw.h"
 907              		.file 3 "src/../h/syscall_c.h"
 908              		.file 4 "src/../h/tcb.hpp"
 909              		.file 5 "src/../h/_sem.hpp"
 910              		.file 6 "src/../h/list.hpp"
 911              		.file 7 "src/../h/syscall_codes.h"
 912              		.file 8 "src/../h/print.hpp"
GAS LISTING /tmp/ccUw1Qji.s 			page 20


DEFINED SYMBOLS
                            *ABS*:0000000000000000 syscall_c.cpp
     /tmp/ccUw1Qji.s:9      .text:0000000000000000 _Z7syscallv
     /tmp/ccUw1Qji.s:13     .text:0000000000000000 .L0 
     /tmp/ccUw1Qji.s:14     .text:0000000000000000 .L0 
     /tmp/ccUw1Qji.s:15     .text:0000000000000004 .L0 
     /tmp/ccUw1Qji.s:17     .text:0000000000000008 .L0 
     /tmp/ccUw1Qji.s:19     .text:000000000000000c .L0 
     /tmp/ccUw1Qji.s:21     .text:000000000000000c .L0 
   src/syscall_c.cpp:12     .text:000000000000000c .L0 
     /tmp/ccUw1Qji.s:28     .text:0000000000000010 .L0 
     /tmp/ccUw1Qji.s:29     .text:0000000000000014 .L0 
     /tmp/ccUw1Qji.s:30     .text:0000000000000014 .L0 
     /tmp/ccUw1Qji.s:32     .text:0000000000000018 .L0 
     /tmp/ccUw1Qji.s:34     .text:000000000000001c .L0 
     /tmp/ccUw1Qji.s:40     .text:000000000000001c _Z7setArgsv
     /tmp/ccUw1Qji.s:43     .text:000000000000001c .L0 
     /tmp/ccUw1Qji.s:44     .text:000000000000001c .L0 
     /tmp/ccUw1Qji.s:45     .text:0000000000000020 .L0 
     /tmp/ccUw1Qji.s:47     .text:0000000000000024 .L0 
     /tmp/ccUw1Qji.s:49     .text:0000000000000028 .L0 
     /tmp/ccUw1Qji.s:51     .text:0000000000000028 .L0 
     /tmp/ccUw1Qji.s:52     .text:000000000000002c .L0 
     /tmp/ccUw1Qji.s:53     .text:000000000000002c .L0 
     /tmp/ccUw1Qji.s:55     .text:0000000000000030 .L0 
     /tmp/ccUw1Qji.s:57     .text:0000000000000034 .L0 
     /tmp/ccUw1Qji.s:63     .text:0000000000000034 _Z9mem_allocm
     /tmp/ccUw1Qji.s:66     .text:0000000000000034 .L0 
     /tmp/ccUw1Qji.s:68     .text:0000000000000034 .L0 
     /tmp/ccUw1Qji.s:69     .text:0000000000000038 .L0 
     /tmp/ccUw1Qji.s:71     .text:000000000000003c .L0 
     /tmp/ccUw1Qji.s:73     .text:0000000000000040 .L0 
     /tmp/ccUw1Qji.s:75     .text:0000000000000040 .L0 
     /tmp/ccUw1Qji.s:76     .text:0000000000000040 .L0 
     /tmp/ccUw1Qji.s:77     .text:0000000000000040 .L0 
     /tmp/ccUw1Qji.s:79     .text:0000000000000044 .L0 
     /tmp/ccUw1Qji.s:81     .text:0000000000000048 .L0 
     /tmp/ccUw1Qji.s:82     .text:0000000000000048 .L0 
     /tmp/ccUw1Qji.s:85     .text:000000000000004c .L0 
     /tmp/ccUw1Qji.s:87     .text:0000000000000050 .L0 
     /tmp/ccUw1Qji.s:90     .text:0000000000000054 .L0 
     /tmp/ccUw1Qji.s:91     .text:0000000000000054 .L0 
     /tmp/ccUw1Qji.s:97     .text:000000000000005c .L0 
     /tmp/ccUw1Qji.s:99     .text:000000000000005c .L0 
   src/syscall_c.cpp:30     .text:0000000000000060 .L0 
     /tmp/ccUw1Qji.s:106    .text:0000000000000064 .L0 
   src/syscall_c.cpp:31     .text:0000000000000064 .L0 
     /tmp/ccUw1Qji.s:111    .text:0000000000000068 .L0 
     /tmp/ccUw1Qji.s:112    .text:0000000000000068 .L0 
   src/syscall_c.cpp:34     .text:0000000000000068 .L0 
     /tmp/ccUw1Qji.s:118    .text:000000000000006c .L0 
     /tmp/ccUw1Qji.s:120    .text:000000000000006c .L0 
     /tmp/ccUw1Qji.s:121    .text:0000000000000070 .L0 
     /tmp/ccUw1Qji.s:122    .text:0000000000000070 .L0 
     /tmp/ccUw1Qji.s:123    .text:0000000000000070 .L0 
     /tmp/ccUw1Qji.s:125    .text:0000000000000074 .L0 
     /tmp/ccUw1Qji.s:129    .text:0000000000000078 .L0 
GAS LISTING /tmp/ccUw1Qji.s 			page 21


     /tmp/ccUw1Qji.s:131    .text:0000000000000078 .L0 
     /tmp/ccUw1Qji.s:132    .text:0000000000000078 .L0 
     /tmp/ccUw1Qji.s:135    .text:000000000000007c .L0 
     /tmp/ccUw1Qji.s:137    .text:0000000000000084 .L0 
     /tmp/ccUw1Qji.s:143    .text:0000000000000084 _Z8mem_freePv
     /tmp/ccUw1Qji.s:146    .text:0000000000000084 .L0 
     /tmp/ccUw1Qji.s:148    .text:0000000000000084 .L0 
     /tmp/ccUw1Qji.s:149    .text:0000000000000088 .L0 
     /tmp/ccUw1Qji.s:151    .text:000000000000008c .L0 
     /tmp/ccUw1Qji.s:153    .text:0000000000000090 .L0 
     /tmp/ccUw1Qji.s:155    .text:0000000000000090 .L0 
   src/syscall_c.cpp:43     .text:0000000000000090 .L0 
     /tmp/ccUw1Qji.s:161    .text:0000000000000094 .L0 
     /tmp/ccUw1Qji.s:163    .text:0000000000000094 .L0 
     /tmp/ccUw1Qji.s:169    .text:000000000000009c .L0 
   src/syscall_c.cpp:46     .text:000000000000009c .L0 
     /tmp/ccUw1Qji.s:174    .text:00000000000000a0 .L0 
     /tmp/ccUw1Qji.s:175    .text:00000000000000a0 .L0 
   src/syscall_c.cpp:48     .text:00000000000000a0 .L0 
     /tmp/ccUw1Qji.s:181    .text:00000000000000a4 .L0 
     /tmp/ccUw1Qji.s:183    .text:00000000000000a4 .L0 
     /tmp/ccUw1Qji.s:186    .text:00000000000000ac .L0 
     /tmp/ccUw1Qji.s:187    .text:00000000000000ac .L0 
     /tmp/ccUw1Qji.s:189    .text:00000000000000b0 .L0 
     /tmp/ccUw1Qji.s:191    .text:00000000000000b4 .L0 
     /tmp/ccUw1Qji.s:197    .text:00000000000000b4 _Z13thread_createPP7_threadPFvPvES2_
     /tmp/ccUw1Qji.s:200    .text:00000000000000b4 .L0 
     /tmp/ccUw1Qji.s:202    .text:00000000000000b4 .L0 
     /tmp/ccUw1Qji.s:203    .text:00000000000000b8 .L0 
     /tmp/ccUw1Qji.s:209    .text:00000000000000cc .L0 
     /tmp/ccUw1Qji.s:210    .text:00000000000000cc .L0 
     /tmp/ccUw1Qji.s:211    .text:00000000000000cc .L0 
     /tmp/ccUw1Qji.s:212    .text:00000000000000cc .L0 
     /tmp/ccUw1Qji.s:213    .text:00000000000000cc .L0 
     /tmp/ccUw1Qji.s:215    .text:00000000000000d0 .L0 
     /tmp/ccUw1Qji.s:220    .text:00000000000000dc .L0 
     /tmp/ccUw1Qji.s:221    .text:00000000000000dc .L0 
     /tmp/ccUw1Qji.s:227    .text:00000000000000ec .L0 
     /tmp/ccUw1Qji.s:228    .text:00000000000000ec .L0 
     /tmp/ccUw1Qji.s:233    .text:00000000000000f8 .L0 
     /tmp/ccUw1Qji.s:234    .text:00000000000000f8 .L0 
     /tmp/ccUw1Qji.s:236    .text:00000000000000fc .L0 
     /tmp/ccUw1Qji.s:239    .text:0000000000000100 .L0 
     /tmp/ccUw1Qji.s:240    .text:0000000000000100 .L0 
     /tmp/ccUw1Qji.s:246    .text:0000000000000108 .L0 
   src/syscall_c.cpp:62     .text:0000000000000108 .L0 
     /tmp/ccUw1Qji.s:251    .text:000000000000010c .L0 
   src/syscall_c.cpp:63     .text:000000000000010c .L0 
     /tmp/ccUw1Qji.s:256    .text:0000000000000110 .L0 
   src/syscall_c.cpp:64     .text:0000000000000110 .L0 
     /tmp/ccUw1Qji.s:261    .text:0000000000000114 .L0 
     /tmp/ccUw1Qji.s:263    .text:0000000000000114 .L0 
   src/syscall_c.cpp:65     .text:0000000000000118 .L0 
     /tmp/ccUw1Qji.s:270    .text:000000000000011c .L0 
   src/syscall_c.cpp:66     .text:000000000000011c .L0 
     /tmp/ccUw1Qji.s:275    .text:0000000000000120 .L0 
     /tmp/ccUw1Qji.s:276    .text:0000000000000120 .L0 
GAS LISTING /tmp/ccUw1Qji.s 			page 22


   src/syscall_c.cpp:69     .text:0000000000000120 .L0 
     /tmp/ccUw1Qji.s:282    .text:0000000000000124 .L0 
     /tmp/ccUw1Qji.s:284    .text:0000000000000124 .L0 
     /tmp/ccUw1Qji.s:290    .text:0000000000000128 .L0 
     /tmp/ccUw1Qji.s:291    .text:000000000000012c .L0 
     /tmp/ccUw1Qji.s:292    .text:000000000000012c .L0 
     /tmp/ccUw1Qji.s:294    .text:0000000000000130 .L0 
     /tmp/ccUw1Qji.s:295    .text:0000000000000130 .L0 
     /tmp/ccUw1Qji.s:297    .text:0000000000000134 .L0 
     /tmp/ccUw1Qji.s:300    .text:0000000000000138 .L0 
     /tmp/ccUw1Qji.s:303    .text:000000000000013c .L0 
     /tmp/ccUw1Qji.s:306    .text:0000000000000140 .L0 
     /tmp/ccUw1Qji.s:310    .text:0000000000000144 .L0 
     /tmp/ccUw1Qji.s:313    .text:0000000000000144 .L0 
     /tmp/ccUw1Qji.s:316    .text:000000000000014c .L0 
     /tmp/ccUw1Qji.s:322    .text:000000000000014c _Z11thread_exitv
     /tmp/ccUw1Qji.s:325    .text:000000000000014c .L0 
     /tmp/ccUw1Qji.s:326    .text:000000000000014c .L0 
     /tmp/ccUw1Qji.s:327    .text:0000000000000150 .L0 
     /tmp/ccUw1Qji.s:329    .text:0000000000000154 .L0 
     /tmp/ccUw1Qji.s:331    .text:0000000000000158 .L0 
     /tmp/ccUw1Qji.s:333    .text:0000000000000158 .L0 
     /tmp/ccUw1Qji.s:334    .text:0000000000000158 .L0 
     /tmp/ccUw1Qji.s:340    .text:0000000000000160 .L0 
   src/syscall_c.cpp:79     .text:0000000000000160 .L0 
     /tmp/ccUw1Qji.s:345    .text:0000000000000164 .L0 
     /tmp/ccUw1Qji.s:346    .text:0000000000000164 .L0 
   src/syscall_c.cpp:81     .text:0000000000000164 .L0 
     /tmp/ccUw1Qji.s:352    .text:0000000000000168 .L0 
     /tmp/ccUw1Qji.s:354    .text:0000000000000168 .L0 
     /tmp/ccUw1Qji.s:357    .text:0000000000000170 .L0 
     /tmp/ccUw1Qji.s:358    .text:0000000000000170 .L0 
     /tmp/ccUw1Qji.s:360    .text:0000000000000174 .L0 
     /tmp/ccUw1Qji.s:362    .text:0000000000000178 .L0 
     /tmp/ccUw1Qji.s:368    .text:0000000000000178 _Z15thread_dispatchv
     /tmp/ccUw1Qji.s:371    .text:0000000000000178 .L0 
     /tmp/ccUw1Qji.s:372    .text:0000000000000178 .L0 
     /tmp/ccUw1Qji.s:373    .text:000000000000017c .L0 
     /tmp/ccUw1Qji.s:375    .text:0000000000000180 .L0 
     /tmp/ccUw1Qji.s:377    .text:0000000000000184 .L0 
     /tmp/ccUw1Qji.s:379    .text:0000000000000184 .L0 
     /tmp/ccUw1Qji.s:380    .text:0000000000000184 .L0 
     /tmp/ccUw1Qji.s:386    .text:000000000000018c .L0 
   src/syscall_c.cpp:87     .text:000000000000018c .L0 
     /tmp/ccUw1Qji.s:392    .text:0000000000000190 .L0 
     /tmp/ccUw1Qji.s:393    .text:0000000000000194 .L0 
     /tmp/ccUw1Qji.s:394    .text:0000000000000194 .L0 
     /tmp/ccUw1Qji.s:396    .text:0000000000000198 .L0 
     /tmp/ccUw1Qji.s:398    .text:000000000000019c .L0 
     /tmp/ccUw1Qji.s:404    .text:000000000000019c _Z21thread_initializationPP7_threadPFvPvES2_
     /tmp/ccUw1Qji.s:407    .text:000000000000019c .L0 
     /tmp/ccUw1Qji.s:409    .text:000000000000019c .L0 
     /tmp/ccUw1Qji.s:410    .text:00000000000001a0 .L0 
     /tmp/ccUw1Qji.s:416    .text:00000000000001b4 .L0 
     /tmp/ccUw1Qji.s:417    .text:00000000000001b4 .L0 
     /tmp/ccUw1Qji.s:418    .text:00000000000001b4 .L0 
     /tmp/ccUw1Qji.s:419    .text:00000000000001b4 .L0 
GAS LISTING /tmp/ccUw1Qji.s 			page 23


     /tmp/ccUw1Qji.s:420    .text:00000000000001b4 .L0 
     /tmp/ccUw1Qji.s:422    .text:00000000000001b8 .L0 
     /tmp/ccUw1Qji.s:427    .text:00000000000001c4 .L0 
     /tmp/ccUw1Qji.s:428    .text:00000000000001c4 .L0 
     /tmp/ccUw1Qji.s:434    .text:00000000000001d4 .L0 
     /tmp/ccUw1Qji.s:435    .text:00000000000001d4 .L0 
     /tmp/ccUw1Qji.s:437    .text:00000000000001d8 .L0 
     /tmp/ccUw1Qji.s:439    .text:00000000000001dc .L0 
     /tmp/ccUw1Qji.s:440    .text:00000000000001dc .L0 
     /tmp/ccUw1Qji.s:446    .text:00000000000001e4 .L0 
   src/syscall_c.cpp:97     .text:00000000000001e4 .L0 
     /tmp/ccUw1Qji.s:451    .text:00000000000001e8 .L0 
   src/syscall_c.cpp:98     .text:00000000000001e8 .L0 
     /tmp/ccUw1Qji.s:456    .text:00000000000001ec .L0 
   src/syscall_c.cpp:99     .text:00000000000001ec .L0 
     /tmp/ccUw1Qji.s:461    .text:00000000000001f0 .L0 
     /tmp/ccUw1Qji.s:463    .text:00000000000001f0 .L0 
   src/syscall_c.cpp:100    .text:00000000000001f4 .L0 
     /tmp/ccUw1Qji.s:470    .text:00000000000001f8 .L0 
   src/syscall_c.cpp:101    .text:00000000000001f8 .L0 
     /tmp/ccUw1Qji.s:477    .text:00000000000001fc .L0 
     /tmp/ccUw1Qji.s:478    .text:0000000000000200 .L0 
     /tmp/ccUw1Qji.s:480    .text:0000000000000204 .L0 
     /tmp/ccUw1Qji.s:481    .text:0000000000000204 .L0 
     /tmp/ccUw1Qji.s:483    .text:0000000000000208 .L0 
     /tmp/ccUw1Qji.s:486    .text:000000000000020c .L0 
     /tmp/ccUw1Qji.s:489    .text:0000000000000210 .L0 
     /tmp/ccUw1Qji.s:492    .text:0000000000000214 .L0 
     /tmp/ccUw1Qji.s:494    .text:0000000000000218 .L0 
     /tmp/ccUw1Qji.s:500    .text:0000000000000218 _Z12thread_startP7_thread
     /tmp/ccUw1Qji.s:503    .text:0000000000000218 .L0 
     /tmp/ccUw1Qji.s:505    .text:0000000000000218 .L0 
     /tmp/ccUw1Qji.s:506    .text:000000000000021c .L0 
     /tmp/ccUw1Qji.s:508    .text:0000000000000220 .L0 
     /tmp/ccUw1Qji.s:510    .text:0000000000000224 .L0 
     /tmp/ccUw1Qji.s:512    .text:0000000000000224 .L0 
   src/syscall_c.cpp:106    .text:0000000000000224 .L0 
     /tmp/ccUw1Qji.s:518    .text:0000000000000228 .L0 
     /tmp/ccUw1Qji.s:520    .text:0000000000000228 .L0 
     /tmp/ccUw1Qji.s:526    .text:0000000000000230 .L0 
   src/syscall_c.cpp:108    .text:0000000000000230 .L0 
     /tmp/ccUw1Qji.s:532    .text:0000000000000234 .L0 
     /tmp/ccUw1Qji.s:533    .text:0000000000000238 .L0 
     /tmp/ccUw1Qji.s:534    .text:0000000000000238 .L0 
     /tmp/ccUw1Qji.s:536    .text:000000000000023c .L0 
     /tmp/ccUw1Qji.s:538    .text:0000000000000240 .L0 
     /tmp/ccUw1Qji.s:544    .text:0000000000000240 _Z8sem_openPP4_semj
     /tmp/ccUw1Qji.s:547    .text:0000000000000240 .L0 
     /tmp/ccUw1Qji.s:549    .text:0000000000000240 .L0 
     /tmp/ccUw1Qji.s:550    .text:0000000000000244 .L0 
     /tmp/ccUw1Qji.s:552    .text:0000000000000248 .L0 
     /tmp/ccUw1Qji.s:554    .text:000000000000024c .L0 
     /tmp/ccUw1Qji.s:556    .text:000000000000024c .L0 
   src/syscall_c.cpp:113    .text:000000000000024c .L0 
     /tmp/ccUw1Qji.s:562    .text:0000000000000250 .L0 
   src/syscall_c.cpp:114    .text:0000000000000250 .L0 
     /tmp/ccUw1Qji.s:567    .text:0000000000000254 .L0 
GAS LISTING /tmp/ccUw1Qji.s 			page 24


     /tmp/ccUw1Qji.s:569    .text:0000000000000254 .L0 
     /tmp/ccUw1Qji.s:575    .text:000000000000025c .L0 
   src/syscall_c.cpp:116    .text:000000000000025c .L0 
     /tmp/ccUw1Qji.s:580    .text:0000000000000260 .L0 
     /tmp/ccUw1Qji.s:581    .text:0000000000000260 .L0 
   src/syscall_c.cpp:118    .text:0000000000000260 .L0 
     /tmp/ccUw1Qji.s:587    .text:0000000000000264 .L0 
     /tmp/ccUw1Qji.s:589    .text:0000000000000264 .L0 
     /tmp/ccUw1Qji.s:592    .text:000000000000026c .L0 
     /tmp/ccUw1Qji.s:593    .text:000000000000026c .L0 
     /tmp/ccUw1Qji.s:595    .text:0000000000000270 .L0 
     /tmp/ccUw1Qji.s:597    .text:0000000000000274 .L0 
     /tmp/ccUw1Qji.s:603    .text:0000000000000274 _Z9sem_closeP4_sem
     /tmp/ccUw1Qji.s:606    .text:0000000000000274 .L0 
     /tmp/ccUw1Qji.s:608    .text:0000000000000274 .L0 
     /tmp/ccUw1Qji.s:609    .text:0000000000000278 .L0 
     /tmp/ccUw1Qji.s:611    .text:000000000000027c .L0 
     /tmp/ccUw1Qji.s:613    .text:0000000000000280 .L0 
     /tmp/ccUw1Qji.s:615    .text:0000000000000280 .L0 
   src/syscall_c.cpp:123    .text:0000000000000280 .L0 
     /tmp/ccUw1Qji.s:621    .text:0000000000000284 .L0 
     /tmp/ccUw1Qji.s:623    .text:0000000000000284 .L0 
     /tmp/ccUw1Qji.s:629    .text:000000000000028c .L0 
   src/syscall_c.cpp:125    .text:000000000000028c .L0 
     /tmp/ccUw1Qji.s:634    .text:0000000000000290 .L0 
     /tmp/ccUw1Qji.s:635    .text:0000000000000290 .L0 
   src/syscall_c.cpp:127    .text:0000000000000290 .L0 
     /tmp/ccUw1Qji.s:641    .text:0000000000000294 .L0 
     /tmp/ccUw1Qji.s:643    .text:0000000000000294 .L0 
     /tmp/ccUw1Qji.s:646    .text:000000000000029c .L0 
     /tmp/ccUw1Qji.s:647    .text:000000000000029c .L0 
     /tmp/ccUw1Qji.s:649    .text:00000000000002a0 .L0 
     /tmp/ccUw1Qji.s:651    .text:00000000000002a4 .L0 
     /tmp/ccUw1Qji.s:657    .text:00000000000002a4 _Z8sem_waitP4_sem
     /tmp/ccUw1Qji.s:660    .text:00000000000002a4 .L0 
     /tmp/ccUw1Qji.s:662    .text:00000000000002a4 .L0 
     /tmp/ccUw1Qji.s:663    .text:00000000000002a8 .L0 
     /tmp/ccUw1Qji.s:665    .text:00000000000002ac .L0 
     /tmp/ccUw1Qji.s:667    .text:00000000000002b0 .L0 
     /tmp/ccUw1Qji.s:669    .text:00000000000002b0 .L0 
   src/syscall_c.cpp:132    .text:00000000000002b0 .L0 
     /tmp/ccUw1Qji.s:675    .text:00000000000002b4 .L0 
     /tmp/ccUw1Qji.s:677    .text:00000000000002b4 .L0 
     /tmp/ccUw1Qji.s:683    .text:00000000000002bc .L0 
   src/syscall_c.cpp:134    .text:00000000000002bc .L0 
     /tmp/ccUw1Qji.s:688    .text:00000000000002c0 .L0 
     /tmp/ccUw1Qji.s:689    .text:00000000000002c0 .L0 
   src/syscall_c.cpp:136    .text:00000000000002c0 .L0 
     /tmp/ccUw1Qji.s:695    .text:00000000000002c4 .L0 
     /tmp/ccUw1Qji.s:697    .text:00000000000002c4 .L0 
     /tmp/ccUw1Qji.s:700    .text:00000000000002cc .L0 
     /tmp/ccUw1Qji.s:701    .text:00000000000002cc .L0 
     /tmp/ccUw1Qji.s:703    .text:00000000000002d0 .L0 
     /tmp/ccUw1Qji.s:705    .text:00000000000002d4 .L0 
     /tmp/ccUw1Qji.s:711    .text:00000000000002d4 _Z10sem_signalP4_sem
     /tmp/ccUw1Qji.s:714    .text:00000000000002d4 .L0 
     /tmp/ccUw1Qji.s:716    .text:00000000000002d4 .L0 
GAS LISTING /tmp/ccUw1Qji.s 			page 25


     /tmp/ccUw1Qji.s:717    .text:00000000000002d8 .L0 
     /tmp/ccUw1Qji.s:719    .text:00000000000002dc .L0 
     /tmp/ccUw1Qji.s:721    .text:00000000000002e0 .L0 
     /tmp/ccUw1Qji.s:723    .text:00000000000002e0 .L0 
   src/syscall_c.cpp:141    .text:00000000000002e0 .L0 
     /tmp/ccUw1Qji.s:729    .text:00000000000002e4 .L0 
     /tmp/ccUw1Qji.s:731    .text:00000000000002e4 .L0 
     /tmp/ccUw1Qji.s:737    .text:00000000000002ec .L0 
   src/syscall_c.cpp:143    .text:00000000000002ec .L0 
     /tmp/ccUw1Qji.s:742    .text:00000000000002f0 .L0 
     /tmp/ccUw1Qji.s:743    .text:00000000000002f0 .L0 
   src/syscall_c.cpp:145    .text:00000000000002f0 .L0 
     /tmp/ccUw1Qji.s:749    .text:00000000000002f4 .L0 
     /tmp/ccUw1Qji.s:751    .text:00000000000002f4 .L0 
     /tmp/ccUw1Qji.s:754    .text:00000000000002fc .L0 
     /tmp/ccUw1Qji.s:755    .text:00000000000002fc .L0 
     /tmp/ccUw1Qji.s:757    .text:0000000000000300 .L0 
     /tmp/ccUw1Qji.s:759    .text:0000000000000304 .L0 
     /tmp/ccUw1Qji.s:765    .text:0000000000000304 _Z10time_sleepm
     /tmp/ccUw1Qji.s:768    .text:0000000000000304 .L0 
     /tmp/ccUw1Qji.s:770    .text:0000000000000304 .L0 
     /tmp/ccUw1Qji.s:771    .text:0000000000000308 .L0 
     /tmp/ccUw1Qji.s:773    .text:000000000000030c .L0 
     /tmp/ccUw1Qji.s:775    .text:0000000000000310 .L0 
     /tmp/ccUw1Qji.s:777    .text:0000000000000310 .L0 
   src/syscall_c.cpp:150    .text:0000000000000310 .L0 
     /tmp/ccUw1Qji.s:783    .text:0000000000000314 .L0 
     /tmp/ccUw1Qji.s:785    .text:0000000000000314 .L0 
     /tmp/ccUw1Qji.s:791    .text:000000000000031c .L0 
   src/syscall_c.cpp:152    .text:000000000000031c .L0 
     /tmp/ccUw1Qji.s:796    .text:0000000000000320 .L0 
     /tmp/ccUw1Qji.s:797    .text:0000000000000320 .L0 
   src/syscall_c.cpp:154    .text:0000000000000320 .L0 
     /tmp/ccUw1Qji.s:803    .text:0000000000000324 .L0 
     /tmp/ccUw1Qji.s:805    .text:0000000000000324 .L0 
     /tmp/ccUw1Qji.s:808    .text:000000000000032c .L0 
     /tmp/ccUw1Qji.s:809    .text:000000000000032c .L0 
     /tmp/ccUw1Qji.s:811    .text:0000000000000330 .L0 
     /tmp/ccUw1Qji.s:813    .text:0000000000000334 .L0 
     /tmp/ccUw1Qji.s:819    .text:0000000000000334 _Z4getcv
     /tmp/ccUw1Qji.s:822    .text:0000000000000334 .L0 
     /tmp/ccUw1Qji.s:823    .text:0000000000000334 .L0 
     /tmp/ccUw1Qji.s:824    .text:0000000000000338 .L0 
     /tmp/ccUw1Qji.s:826    .text:000000000000033c .L0 
     /tmp/ccUw1Qji.s:828    .text:0000000000000340 .L0 
     /tmp/ccUw1Qji.s:830    .text:0000000000000340 .L0 
     /tmp/ccUw1Qji.s:831    .text:0000000000000340 .L0 
     /tmp/ccUw1Qji.s:837    .text:0000000000000348 .L0 
   src/syscall_c.cpp:160    .text:0000000000000348 .L0 
     /tmp/ccUw1Qji.s:842    .text:000000000000034c .L0 
     /tmp/ccUw1Qji.s:843    .text:000000000000034c .L0 
   src/syscall_c.cpp:162    .text:000000000000034c .L0 
     /tmp/ccUw1Qji.s:849    .text:0000000000000350 .L0 
     /tmp/ccUw1Qji.s:851    .text:0000000000000350 .L0 
     /tmp/ccUw1Qji.s:853    .text:0000000000000358 .L0 
     /tmp/ccUw1Qji.s:854    .text:0000000000000358 .L0 
     /tmp/ccUw1Qji.s:856    .text:000000000000035c .L0 
GAS LISTING /tmp/ccUw1Qji.s 			page 26


     /tmp/ccUw1Qji.s:858    .text:0000000000000360 .L0 
     /tmp/ccUw1Qji.s:864    .text:0000000000000360 _Z4putcc
     /tmp/ccUw1Qji.s:867    .text:0000000000000360 .L0 
     /tmp/ccUw1Qji.s:869    .text:0000000000000360 .L0 
     /tmp/ccUw1Qji.s:870    .text:0000000000000364 .L0 
     /tmp/ccUw1Qji.s:872    .text:0000000000000368 .L0 
     /tmp/ccUw1Qji.s:874    .text:000000000000036c .L0 
     /tmp/ccUw1Qji.s:876    .text:000000000000036c .L0 
   src/syscall_c.cpp:166    .text:000000000000036c .L0 
     /tmp/ccUw1Qji.s:882    .text:0000000000000370 .L0 
     /tmp/ccUw1Qji.s:884    .text:0000000000000370 .L0 
     /tmp/ccUw1Qji.s:890    .text:0000000000000378 .L0 
   src/syscall_c.cpp:168    .text:0000000000000378 .L0 
     /tmp/ccUw1Qji.s:896    .text:000000000000037c .L0 
     /tmp/ccUw1Qji.s:897    .text:0000000000000380 .L0 
     /tmp/ccUw1Qji.s:898    .text:0000000000000380 .L0 
     /tmp/ccUw1Qji.s:900    .text:0000000000000384 .L0 
     /tmp/ccUw1Qji.s:902    .text:0000000000000388 .L0 
     /tmp/ccUw1Qji.s:913    .text:0000000000000388 .L0 
     /tmp/ccUw1Qji.s:128    .text:0000000000000078 .L6
     /tmp/ccUw1Qji.s:88     .text:0000000000000054 .L7
     /tmp/ccUw1Qji.s:309    .text:0000000000000144 .L13
     /tmp/ccUw1Qji.s:286    .text:0000000000000128 .L12
     /tmp/ccUw1Qji.s:475    .text:00000000000001fc .L19
     /tmp/ccUw1Qji.s:2335   .debug_abbrev:0000000000000000 .Ldebug_abbrev0
     /tmp/ccUw1Qji.s:3913   .debug_str:000000000000086b .LASF165
     /tmp/ccUw1Qji.s:3773   .debug_str:0000000000000479 .LASF166
     /tmp/ccUw1Qji.s:3705   .debug_str:00000000000002a5 .LASF167
     /tmp/ccUw1Qji.s:5      .text:0000000000000000 .Ltext0
     /tmp/ccUw1Qji.s:905    .text:0000000000000388 .Letext0
     /tmp/ccUw1Qji.s:3621   .debug_line:0000000000000000 .Ldebug_line0
     /tmp/ccUw1Qji.s:3723   .debug_str:0000000000000322 .LASF0
     /tmp/ccUw1Qji.s:3751   .debug_str:00000000000003f5 .LASF1
     /tmp/ccUw1Qji.s:3845   .debug_str:000000000000069f .LASF2
     /tmp/ccUw1Qji.s:3853   .debug_str:00000000000006d6 .LASF4
     /tmp/ccUw1Qji.s:3729   .debug_str:000000000000033a .LASF3
     /tmp/ccUw1Qji.s:3629   .debug_str:000000000000002d .LASF5
     /tmp/ccUw1Qji.s:3819   .debug_str:00000000000005f3 .LASF6
     /tmp/ccUw1Qji.s:3807   .debug_str:0000000000000585 .LASF7
     /tmp/ccUw1Qji.s:3739   .debug_str:000000000000039d .LASF8
     /tmp/ccUw1Qji.s:3703   .debug_str:0000000000000295 .LASF9
     /tmp/ccUw1Qji.s:3707   .debug_str:00000000000002c3 .LASF10
     /tmp/ccUw1Qji.s:3655   .debug_str:0000000000000104 .LASF11
     /tmp/ccUw1Qji.s:3695   .debug_str:000000000000024f .LASF12
     /tmp/ccUw1Qji.s:3663   .debug_str:0000000000000144 .LASF13
     /tmp/ccUw1Qji.s:3653   .debug_str:00000000000000f4 .LASF14
     /tmp/ccUw1Qji.s:3887   .debug_str:00000000000007eb .LASF15
     /tmp/ccUw1Qji.s:3683   .debug_str:00000000000001e8 .LASF16
     /tmp/ccUw1Qji.s:3873   .debug_str:000000000000076d .LASF17
     /tmp/ccUw1Qji.s:3951   .debug_str:0000000000000a71 .LASF18
     /tmp/ccUw1Qji.s:3639   .debug_str:0000000000000088 .LASF45
     /tmp/ccUw1Qji.s:3899   .debug_str:0000000000000824 .LASF168
     /tmp/ccUw1Qji.s:3891   .debug_str:0000000000000800 .LASF19
     /tmp/ccUw1Qji.s:3743   .debug_str:00000000000003c9 .LASF21
     /tmp/ccUw1Qji.s:3901   .debug_str:000000000000082c .LASF23
     /tmp/ccUw1Qji.s:3883   .debug_str:00000000000007c3 .LASF25
     /tmp/ccUw1Qji.s:3645   .debug_str:00000000000000b0 .LASF20
GAS LISTING /tmp/ccUw1Qji.s 			page 27


     /tmp/ccUw1Qji.s:3945   .debug_str:0000000000000a36 .LASF22
     /tmp/ccUw1Qji.s:3755   .debug_str:000000000000040e .LASF24
     /tmp/ccUw1Qji.s:3651   .debug_str:00000000000000d7 .LASF26
     /tmp/ccUw1Qji.s:3941   .debug_str:0000000000000a1d .LASF27
     /tmp/ccUw1Qji.s:3903   .debug_str:0000000000000837 .LASF28
     /tmp/ccUw1Qji.s:3833   .debug_str:0000000000000641 .LASF29
     /tmp/ccUw1Qji.s:3679   .debug_str:00000000000001c3 .LASF30
     /tmp/ccUw1Qji.s:3687   .debug_str:0000000000000218 .LASF31
     /tmp/ccUw1Qji.s:3809   .debug_str:0000000000000598 .LASF32
     /tmp/ccUw1Qji.s:3971   .debug_str:0000000000000b33 .LASF33
     /tmp/ccUw1Qji.s:3823   .debug_str:0000000000000606 .LASF34
     /tmp/ccUw1Qji.s:3885   .debug_str:00000000000007de .LASF35
     /tmp/ccUw1Qji.s:3775   .debug_str:000000000000048b .LASF36
     /tmp/ccUw1Qji.s:3803   .debug_str:0000000000000573 .LASF169
     /tmp/ccUw1Qji.s:3863   .debug_str:0000000000000710 .LASF37
     /tmp/ccUw1Qji.s:3753   .debug_str:0000000000000408 .LASF38
     /tmp/ccUw1Qji.s:3791   .debug_str:0000000000000501 .LASF40
     /tmp/ccUw1Qji.s:3911   .debug_str:0000000000000863 .LASF170
     /tmp/ccUw1Qji.s:3829   .debug_str:000000000000062b .LASF44
     /tmp/ccUw1Qji.s:3959   .debug_str:0000000000000acc .LASF46
     /tmp/ccUw1Qji.s:3805   .debug_str:0000000000000578 .LASF39
     /tmp/ccUw1Qji.s:3915   .debug_str:000000000000092f .LASF41
     /tmp/ccUw1Qji.s:3673   .debug_str:0000000000000189 .LASF42
     /tmp/ccUw1Qji.s:3671   .debug_str:0000000000000172 .LASF43
     /tmp/ccUw1Qji.s:3979   .debug_str:0000000000000b63 .LASF47
     /tmp/ccUw1Qji.s:3977   .debug_str:0000000000000b47 .LASF48
     /tmp/ccUw1Qji.s:3627   .debug_str:0000000000000028 .LASF49
     /tmp/ccUw1Qji.s:3975   .debug_str:0000000000000b41 .LASF50
     /tmp/ccUw1Qji.s:3925   .debug_str:000000000000097e .LASF51
     /tmp/ccUw1Qji.s:3921   .debug_str:000000000000096a .LASF52
     /tmp/ccUw1Qji.s:3871   .debug_str:0000000000000764 .LASF53
     /tmp/ccUw1Qji.s:3937   .debug_str:0000000000000a0b .LASF54
     /tmp/ccUw1Qji.s:3799   .debug_str:000000000000055f .LASF55
     /tmp/ccUw1Qji.s:3897   .debug_str:000000000000081b .LASF56
     /tmp/ccUw1Qji.s:3769   .debug_str:000000000000046a .LASF57
     /tmp/ccUw1Qji.s:3647   .debug_str:00000000000000bc .LASF171
     /tmp/ccUw1Qji.s:3835   .debug_str:0000000000000651 .LASF172
     /tmp/ccUw1Qji.s:3669   .debug_str:0000000000000164 .LASF173
     /tmp/ccUw1Qji.s:3733   .debug_str:0000000000000358 .LASF174
     /tmp/ccUw1Qji.s:3895   .debug_str:0000000000000810 .LASF58
     /tmp/ccUw1Qji.s:3955   .debug_str:0000000000000a8d .LASF59
     /tmp/ccUw1Qji.s:3635   .debug_str:000000000000005f .LASF60
     /tmp/ccUw1Qji.s:3735   .debug_str:0000000000000384 .LASF61
     /tmp/ccUw1Qji.s:3857   .debug_str:00000000000006e9 .LASF175
     /tmp/ccUw1Qji.s:3851   .debug_str:00000000000006cb .LASF62
     /tmp/ccUw1Qji.s:3963   .debug_str:0000000000000af5 .LASF63
     /tmp/ccUw1Qji.s:3965   .debug_str:0000000000000b00 .LASF64
     /tmp/ccUw1Qji.s:3907   .debug_str:0000000000000853 .LASF65
     /tmp/ccUw1Qji.s:3869   .debug_str:000000000000075a .LASF66
     /tmp/ccUw1Qji.s:3741   .debug_str:00000000000003b0 .LASF67
     /tmp/ccUw1Qji.s:3681   .debug_str:00000000000001e2 .LASF68
     /tmp/ccUw1Qji.s:3701   .debug_str:0000000000000288 .LASF69
     /tmp/ccUw1Qji.s:3675   .debug_str:0000000000000192 .LASF70
     /tmp/ccUw1Qji.s:3785   .debug_str:00000000000004d2 .LASF71
     /tmp/ccUw1Qji.s:3893   .debug_str:0000000000000809 .LASF72
     /tmp/ccUw1Qji.s:3877   .debug_str:0000000000000794 .LASF73
     /tmp/ccUw1Qji.s:3715   .debug_str:0000000000000305 .LASF74
GAS LISTING /tmp/ccUw1Qji.s 			page 28


     /tmp/ccUw1Qji.s:3919   .debug_str:0000000000000959 .LASF75
     /tmp/ccUw1Qji.s:3961   .debug_str:0000000000000ae9 .LASF76
     /tmp/ccUw1Qji.s:3795   .debug_str:0000000000000525 .LASF77
     /tmp/ccUw1Qji.s:3649   .debug_str:00000000000000ca .LASF78
     /tmp/ccUw1Qji.s:3721   .debug_str:000000000000031c .LASF79
     /tmp/ccUw1Qji.s:3691   .debug_str:0000000000000239 .LASF80
     /tmp/ccUw1Qji.s:3973   .debug_str:0000000000000b39 .LASF81
     /tmp/ccUw1Qji.s:3953   .debug_str:0000000000000a7a .LASF82
     /tmp/ccUw1Qji.s:3843   .debug_str:000000000000068c .LASF83
     /tmp/ccUw1Qji.s:3859   .debug_str:00000000000006fa .LASF176
     /tmp/ccUw1Qji.s:3983   .debug_str:0000000000000b8b .LASF84
     /tmp/ccUw1Qji.s:3699   .debug_str:000000000000027f .LASF85
     /tmp/ccUw1Qji.s:3881   .debug_str:00000000000007b5 .LASF86
     /tmp/ccUw1Qji.s:3825   .debug_str:000000000000061a .LASF87
     /tmp/ccUw1Qji.s:3879   .debug_str:00000000000007a6 .LASF88
     /tmp/ccUw1Qji.s:3657   .debug_str:0000000000000113 .LASF89
     /tmp/ccUw1Qji.s:3661   .debug_str:000000000000013a .LASF90
     /tmp/ccUw1Qji.s:3789   .debug_str:00000000000004f8 .LASF91
     /tmp/ccUw1Qji.s:3909   .debug_str:0000000000000858 .LASF92
     /tmp/ccUw1Qji.s:3641   .debug_str:0000000000000090 .LASF93
     /tmp/ccUw1Qji.s:3737   .debug_str:0000000000000398 .LASF94
     /tmp/ccUw1Qji.s:3781   .debug_str:00000000000004c8 .LASF95
     /tmp/ccUw1Qji.s:3801   .debug_str:0000000000000567 .LASF96
     /tmp/ccUw1Qji.s:3841   .debug_str:000000000000067f .LASF97
     /tmp/ccUw1Qji.s:3759   .debug_str:0000000000000425 .LASF98
     /tmp/ccUw1Qji.s:3667   .debug_str:000000000000015f .LASF177
     /tmp/ccUw1Qji.s:3693   .debug_str:000000000000024a .LASF99
     /tmp/ccUw1Qji.s:3761   .debug_str:0000000000000433 .LASF100
     /tmp/ccUw1Qji.s:3783   .debug_str:00000000000004cd .LASF101
     /tmp/ccUw1Qji.s:3947   .debug_str:0000000000000a51 .LASF102
     /tmp/ccUw1Qji.s:3689   .debug_str:000000000000021e .LASF103
     /tmp/ccUw1Qji.s:3847   .debug_str:00000000000006ad .LASF128
     /tmp/ccUw1Qji.s:3713   .debug_str:00000000000002ea .LASF130
     /tmp/ccUw1Qji.s:3939   .debug_str:0000000000000a10 .LASF104
     /tmp/ccUw1Qji.s:3633   .debug_str:000000000000003c .LASF105
     /tmp/ccUw1Qji.s:3745   .debug_str:00000000000003d9 .LASF106
     /tmp/ccUw1Qji.s:3765   .debug_str:000000000000043d .LASF107
     /tmp/ccUw1Qji.s:3717   .debug_str:000000000000030b .LASF108
     /tmp/ccUw1Qji.s:3811   .debug_str:00000000000005ac .LASF109
     /tmp/ccUw1Qji.s:3855   .debug_str:00000000000006dd .LASF110
     /tmp/ccUw1Qji.s:3797   .debug_str:000000000000053d .LASF111
     /tmp/ccUw1Qji.s:3985   .debug_str:0000000000000b95 .LASF112
     /tmp/ccUw1Qji.s:3967   .debug_str:0000000000000b06 .LASF113
     /tmp/ccUw1Qji.s:3861   .debug_str:0000000000000705 .LASF114
     /tmp/ccUw1Qji.s:3697   .debug_str:000000000000025e .LASF115
     /tmp/ccUw1Qji.s:3831   .debug_str:0000000000000638 .LASF116
     /tmp/ccUw1Qji.s:3659   .debug_str:000000000000011c .LASF117
     /tmp/ccUw1Qji.s:3933   .debug_str:00000000000009ec .LASF118
     /tmp/ccUw1Qji.s:3931   .debug_str:00000000000009c0 .LASF119
     /tmp/ccUw1Qji.s:3787   .debug_str:00000000000004e2 .LASF120
     /tmp/ccUw1Qji.s:3677   .debug_str:0000000000000197 .LASF121
     /tmp/ccUw1Qji.s:3935   .debug_str:00000000000009fe .LASF122
     /tmp/ccUw1Qji.s:3637   .debug_str:0000000000000065 .LASF123
     /tmp/ccUw1Qji.s:3763   .debug_str:0000000000000438 .LASF124
     /tmp/ccUw1Qji.s:3771   .debug_str:0000000000000474 .LASF125
     /tmp/ccUw1Qji.s:3889   .debug_str:00000000000007f7 .LASF126
     /tmp/ccUw1Qji.s:865    .text:0000000000000360 .LFB46
GAS LISTING /tmp/ccUw1Qji.s 			page 29


     /tmp/ccUw1Qji.s:903    .text:0000000000000388 .LFE46
     /tmp/ccUw1Qji.s:3905   .debug_str:000000000000084e .LASF127
     /tmp/ccUw1Qji.s:3725   .debug_str:000000000000032f .LASF129
     /tmp/ccUw1Qji.s:3949   .debug_str:0000000000000a68 .LASF131
     /tmp/ccUw1Qji.s:820    .text:0000000000000334 .LFB45
     /tmp/ccUw1Qji.s:859    .text:0000000000000360 .LFE45
     /tmp/ccUw1Qji.s:3665   .debug_str:0000000000000154 .LASF132
     /tmp/ccUw1Qji.s:3817   .debug_str:00000000000005e3 .LASF133
     /tmp/ccUw1Qji.s:766    .text:0000000000000304 .LFB44
     /tmp/ccUw1Qji.s:814    .text:0000000000000334 .LFE44
     /tmp/ccUw1Qji.s:3316   .debug_loc:0000000000000000 .LLST20
     /tmp/ccUw1Qji.s:3330   .debug_loc:0000000000000039 .LLST21
     /tmp/ccUw1Qji.s:3711   .debug_str:00000000000002df .LASF134
     /tmp/ccUw1Qji.s:3867   .debug_str:0000000000000745 .LASF135
     /tmp/ccUw1Qji.s:712    .text:00000000000002d4 .LFB43
     /tmp/ccUw1Qji.s:760    .text:0000000000000304 .LFE43
     /tmp/ccUw1Qji.s:3337   .debug_loc:000000000000005c .LLST18
     /tmp/ccUw1Qji.s:3351   .debug_loc:0000000000000095 .LLST19
     /tmp/ccUw1Qji.s:3865   .debug_str:000000000000073c .LASF136
     /tmp/ccUw1Qji.s:3981   .debug_str:0000000000000b79 .LASF137
     /tmp/ccUw1Qji.s:658    .text:00000000000002a4 .LFB42
     /tmp/ccUw1Qji.s:706    .text:00000000000002d4 .LFE42
     /tmp/ccUw1Qji.s:3358   .debug_loc:00000000000000b8 .LLST16
     /tmp/ccUw1Qji.s:3372   .debug_loc:00000000000000f1 .LLST17
     /tmp/ccUw1Qji.s:3757   .debug_str:000000000000041b .LASF138
     /tmp/ccUw1Qji.s:3643   .debug_str:000000000000009d .LASF139
     /tmp/ccUw1Qji.s:604    .text:0000000000000274 .LFB41
     /tmp/ccUw1Qji.s:652    .text:00000000000002a4 .LFE41
     /tmp/ccUw1Qji.s:3777   .debug_str:00000000000004ac .LASF140
     /tmp/ccUw1Qji.s:3379   .debug_loc:0000000000000114 .LLST14
     /tmp/ccUw1Qji.s:3393   .debug_loc:000000000000014d .LLST15
     /tmp/ccUw1Qji.s:3837   .debug_str:000000000000066e .LASF141
     /tmp/ccUw1Qji.s:3849   .debug_str:00000000000006b7 .LASF142
     /tmp/ccUw1Qji.s:545    .text:0000000000000240 .LFB40
     /tmp/ccUw1Qji.s:598    .text:0000000000000274 .LFE40
     /tmp/ccUw1Qji.s:3400   .debug_loc:0000000000000170 .LLST12
     /tmp/ccUw1Qji.s:3827   .debug_str:0000000000000626 .LASF143
     /tmp/ccUw1Qji.s:3414   .debug_loc:00000000000001a9 .LLST13
     /tmp/ccUw1Qji.s:3929   .debug_str:00000000000009b3 .LASF144
     /tmp/ccUw1Qji.s:3685   .debug_str:00000000000001fe .LASF145
     /tmp/ccUw1Qji.s:501    .text:0000000000000218 .LFB39
     /tmp/ccUw1Qji.s:539    .text:0000000000000240 .LFE39
     /tmp/ccUw1Qji.s:3623   .debug_str:0000000000000000 .LASF146
     /tmp/ccUw1Qji.s:3927   .debug_str:0000000000000986 .LASF147
     /tmp/ccUw1Qji.s:405    .text:000000000000019c .LFB38
     /tmp/ccUw1Qji.s:495    .text:0000000000000218 .LFE38
     /tmp/ccUw1Qji.s:3421   .debug_loc:00000000000001cc .LLST9
     /tmp/ccUw1Qji.s:3747   .debug_str:00000000000003e2 .LASF148
     /tmp/ccUw1Qji.s:3439   .debug_loc:0000000000000218 .LLST10
     /tmp/ccUw1Qji.s:3457   .debug_loc:0000000000000264 .LLST11
     /tmp/ccUw1Qji.s:431    .text:00000000000001d0 .LVL22
     /tmp/ccUw1Qji.s:3943   .debug_str:0000000000000a26 .LASF159
     /tmp/ccUw1Qji.s:3779   .debug_str:00000000000004b3 .LASF161
     /tmp/ccUw1Qji.s:369    .text:0000000000000178 .LFB37
     /tmp/ccUw1Qji.s:399    .text:000000000000019c .LFE37
     /tmp/ccUw1Qji.s:3767   .debug_str:000000000000045e .LASF149
     /tmp/ccUw1Qji.s:3875   .debug_str:0000000000000783 .LASF150
GAS LISTING /tmp/ccUw1Qji.s 			page 30


     /tmp/ccUw1Qji.s:323    .text:000000000000014c .LFB36
     /tmp/ccUw1Qji.s:363    .text:0000000000000178 .LFE36
     /tmp/ccUw1Qji.s:3475   .debug_loc:00000000000002b0 .LLST8
     /tmp/ccUw1Qji.s:3917   .debug_str:000000000000094b .LASF151
     /tmp/ccUw1Qji.s:3957   .debug_str:0000000000000aa7 .LASF152
     /tmp/ccUw1Qji.s:198    .text:00000000000000b4 .LFB35
     /tmp/ccUw1Qji.s:317    .text:000000000000014c .LFE35
     /tmp/ccUw1Qji.s:3482   .debug_loc:00000000000002d3 .LLST4
     /tmp/ccUw1Qji.s:3504   .debug_loc:0000000000000332 .LLST5
     /tmp/ccUw1Qji.s:3526   .debug_loc:0000000000000391 .LLST6
     /tmp/ccUw1Qji.s:237    .text:0000000000000100 .LBB3
     /tmp/ccUw1Qji.s:287    .text:0000000000000128 .LBE3
     /tmp/ccUw1Qji.s:3548   .debug_loc:00000000000003f0 .LLST7
     /tmp/ccUw1Qji.s:224    .text:00000000000000e8 .LVL10
     /tmp/ccUw1Qji.s:230    .text:00000000000000f8 .LVL11
     /tmp/ccUw1Qji.s:3719   .debug_str:0000000000000313 .LASF153
     /tmp/ccUw1Qji.s:3969   .debug_str:0000000000000b25 .LASF154
     /tmp/ccUw1Qji.s:144    .text:0000000000000084 .LFB34
     /tmp/ccUw1Qji.s:192    .text:00000000000000b4 .LFE34
     /tmp/ccUw1Qji.s:3555   .debug_loc:0000000000000413 .LLST2
     /tmp/ccUw1Qji.s:3569   .debug_loc:000000000000044c .LLST3
     /tmp/ccUw1Qji.s:3923   .debug_str:0000000000000974 .LASF155
     /tmp/ccUw1Qji.s:3709   .debug_str:00000000000002d1 .LASF156
     /tmp/ccUw1Qji.s:64     .text:0000000000000034 .LFB33
     /tmp/ccUw1Qji.s:138    .text:0000000000000084 .LFE33
     /tmp/ccUw1Qji.s:3749   .debug_str:00000000000003f0 .LASF157
     /tmp/ccUw1Qji.s:3576   .debug_loc:000000000000046f .LLST0
     /tmp/ccUw1Qji.s:3815   .debug_str:00000000000005d9 .LASF158
     /tmp/ccUw1Qji.s:3601   .debug_loc:00000000000004d1 .LLST1
     /tmp/ccUw1Qji.s:3631   .debug_str:0000000000000034 .LASF160
     /tmp/ccUw1Qji.s:3731   .debug_str:000000000000034c .LASF162
     /tmp/ccUw1Qji.s:41     .text:000000000000001c .LFB32
     /tmp/ccUw1Qji.s:58     .text:0000000000000034 .LFE32
     /tmp/ccUw1Qji.s:3839   .debug_str:0000000000000677 .LASF163
     /tmp/ccUw1Qji.s:3821   .debug_str:00000000000005fa .LASF164
     /tmp/ccUw1Qji.s:10     .text:0000000000000000 .LFB31
     /tmp/ccUw1Qji.s:35     .text:000000000000001c .LFE31
     /tmp/ccUw1Qji.s:3727   .debug_str:0000000000000334 .LASF178
     /tmp/ccUw1Qji.s:3793   .debug_str:0000000000000515 .LASF179
     /tmp/ccUw1Qji.s:3625   .debug_str:0000000000000016 .LASF180
     /tmp/ccUw1Qji.s:3813   .debug_str:00000000000005cc .LASF181
     /tmp/ccUw1Qji.s:769    .text:0000000000000304 .LVL39
     /tmp/ccUw1Qji.s:801    .text:0000000000000324 .LVL40
     /tmp/ccUw1Qji.s:806    .text:0000000000000328 .LVL41
     /tmp/ccUw1Qji.s:715    .text:00000000000002d4 .LVL36
     /tmp/ccUw1Qji.s:747    .text:00000000000002f4 .LVL37
     /tmp/ccUw1Qji.s:752    .text:00000000000002f8 .LVL38
     /tmp/ccUw1Qji.s:661    .text:00000000000002a4 .LVL33
     /tmp/ccUw1Qji.s:693    .text:00000000000002c4 .LVL34
     /tmp/ccUw1Qji.s:698    .text:00000000000002c8 .LVL35
     /tmp/ccUw1Qji.s:607    .text:0000000000000274 .LVL30
     /tmp/ccUw1Qji.s:639    .text:0000000000000294 .LVL31
     /tmp/ccUw1Qji.s:644    .text:0000000000000298 .LVL32
     /tmp/ccUw1Qji.s:548    .text:0000000000000240 .LVL27
     /tmp/ccUw1Qji.s:585    .text:0000000000000264 .LVL28
     /tmp/ccUw1Qji.s:590    .text:0000000000000268 .LVL29
     /tmp/ccUw1Qji.s:408    .text:000000000000019c .LVL20
GAS LISTING /tmp/ccUw1Qji.s 			page 31


     /tmp/ccUw1Qji.s:429    .text:00000000000001c8 .LVL21
     /tmp/ccUw1Qji.s:490    .text:0000000000000210 .LVL25
     /tmp/ccUw1Qji.s:487    .text:000000000000020c .LVL24
     /tmp/ccUw1Qji.s:484    .text:0000000000000208 .LVL23
     /tmp/ccUw1Qji.s:350    .text:0000000000000168 .LVL18
     /tmp/ccUw1Qji.s:355    .text:000000000000016c .LVL19
     /tmp/ccUw1Qji.s:201    .text:00000000000000b4 .LVL8
     /tmp/ccUw1Qji.s:222    .text:00000000000000e0 .LVL9
     /tmp/ccUw1Qji.s:304    .text:000000000000013c .LVL16
     /tmp/ccUw1Qji.s:308    .text:0000000000000144 .LVL17
     /tmp/ccUw1Qji.s:301    .text:0000000000000138 .LVL15
     /tmp/ccUw1Qji.s:298    .text:0000000000000134 .LVL14
     /tmp/ccUw1Qji.s:280    .text:0000000000000124 .LVL12
     /tmp/ccUw1Qji.s:285    .text:0000000000000128 .LVL13
     /tmp/ccUw1Qji.s:147    .text:0000000000000084 .LVL5
     /tmp/ccUw1Qji.s:179    .text:00000000000000a4 .LVL6
     /tmp/ccUw1Qji.s:184    .text:00000000000000a8 .LVL7
     /tmp/ccUw1Qji.s:67     .text:0000000000000034 .LVL0
     /tmp/ccUw1Qji.s:83     .text:000000000000004c .LVL1
     /tmp/ccUw1Qji.s:127    .text:0000000000000078 .LVL3
     /tmp/ccUw1Qji.s:133    .text:000000000000007c .LVL4
     /tmp/ccUw1Qji.s:116    .text:000000000000006c .LVL2
     /tmp/ccUw1Qji.s:914    .debug_info:0000000000000000 .Ldebug_info0

UNDEFINED SYMBOLS
_Znam
_Z12printIntegerm
