GAS LISTING /tmp/ccAfoz3S.s 			page 1


   1              		.file	"tcb.cpp"
   2              		.option pic
   3              		.option norelax
   4              		.text
   5              	.Ltext0:
   6              		.align	2
   7              		.globl	_ZN7_thread8setSleepEv
   9              	_ZN7_thread8setSleepEv:
  10              	.LFB49:
  11              		.file 1 "src/tcb.cpp"
   1:src/tcb.cpp   **** //
   2:src/tcb.cpp   **** // Created by marko on 20.4.22..
   3:src/tcb.cpp   **** //
   4:src/tcb.cpp   **** 
   5:src/tcb.cpp   **** #include "../h/tcb.hpp"
   6:src/tcb.cpp   **** #include "../h/riscv.hpp"
   7:src/tcb.cpp   **** 
   8:src/tcb.cpp   **** 
   9:src/tcb.cpp   **** _thread *_thread::running = nullptr;
  10:src/tcb.cpp   **** 
  11:src/tcb.cpp   **** uint64 _thread::timeSliceCounter = 0;
  12:src/tcb.cpp   **** 
  13:src/tcb.cpp   **** void _thread::setSleep(){
  12              		.loc 1 13 25
  13              		.cfi_startproc
  14              	.LVL0:
  15 0000 130101FF 		addi	sp,sp,-16
  16              		.cfi_def_cfa_offset 16
  17 0004 23348100 		sd	s0,8(sp)
  18              		.cfi_offset 8, -8
  19 0008 13040101 		addi	s0,sp,16
  20              		.cfi_def_cfa 8, 0
  14:src/tcb.cpp   ****     if(!_thread::sleeping)
  21              		.loc 1 14 5
  22              		.loc 1 14 18 is_stmt 0
  23 000c 83479503 		lbu	a5,57(a0)
  24              		.loc 1 14 5
  25 0010 639C0700 		bnez	a5,.L2
  15:src/tcb.cpp   ****         _thread::sleeping = true;
  26              		.loc 1 15 9 is_stmt 1
  27              		.loc 1 15 27 is_stmt 0
  28 0014 93071000 		li	a5,1
  29 0018 A30CF502 		sb	a5,57(a0)
  30              	.L1:
  16:src/tcb.cpp   ****     else
  17:src/tcb.cpp   ****         _thread::sleeping = false;
  18:src/tcb.cpp   **** }
  31              		.loc 1 18 1
  32 001c 03348100 		ld	s0,8(sp)
  33              		.cfi_remember_state
  34              		.cfi_restore 8
  35              		.cfi_def_cfa 2, 16
  36 0020 13010101 		addi	sp,sp,16
  37              		.cfi_def_cfa_offset 0
  38 0024 67800000 		jr	ra
  39              	.L2:
  40              		.cfi_restore_state
GAS LISTING /tmp/ccAfoz3S.s 			page 2


  17:src/tcb.cpp   **** }
  41              		.loc 1 17 9 is_stmt 1
  17:src/tcb.cpp   **** }
  42              		.loc 1 17 27 is_stmt 0
  43 0028 A30C0502 		sb	zero,57(a0)
  44              		.loc 1 18 1
  45 002c 6FF01FFF 		j	.L1
  46              		.cfi_endproc
  47              	.LFE49:
  49              		.align	2
  50              		.globl	_ZN7_thread12createThreadEPFvvE
  52              	_ZN7_thread12createThreadEPFvvE:
  53              	.LFB50:
  19:src/tcb.cpp   **** 
  20:src/tcb.cpp   **** //mickov kod za kreiranje niti
  21:src/tcb.cpp   **** _thread *_thread::createThread(Body body)
  22:src/tcb.cpp   **** {
  54              		.loc 1 22 1 is_stmt 1
  55              		.cfi_startproc
  56              		.cfi_personality 0x9b,DW.ref.__gxx_personality_v0
  57              		.cfi_lsda 0x1b,.LLSDA50
  58              	.LVL1:
  59 0030 130101FE 		addi	sp,sp,-32
  60              		.cfi_def_cfa_offset 32
  61 0034 233C1100 		sd	ra,24(sp)
  62 0038 23388100 		sd	s0,16(sp)
  63 003c 23349100 		sd	s1,8(sp)
  64 0040 23302101 		sd	s2,0(sp)
  65              		.cfi_offset 1, -8
  66              		.cfi_offset 8, -16
  67              		.cfi_offset 9, -24
  68              		.cfi_offset 18, -32
  69 0044 13040102 		addi	s0,sp,32
  70              		.cfi_def_cfa 8, 0
  71 0048 13090500 		mv	s2,a0
  23:src/tcb.cpp   ****     return new _thread(body, TIME_SLICE);
  72              		.loc 1 23 5
  73              		.loc 1 23 40 is_stmt 0
  74 004c 13058004 		li	a0,72
  75              	.LVL2:
  76              	.LEHB0:
  77 0050 97000000 		call	_Znwm@plt
  77      E7800000 
  78              	.LVL3:
  79              	.LEHE0:
  80 0058 93040500 		mv	s1,a0
  81              	.LVL4:
  82              	.LBB24:
  83              	.LBB25:
  84              		.file 2 "src/../h/tcb.hpp"
   1:src/../h/tcb.hpp **** //
   2:src/../h/tcb.hpp **** // Created by marko on 20.4.22..
   3:src/../h/tcb.hpp **** //
   4:src/../h/tcb.hpp **** 
   5:src/../h/tcb.hpp **** #ifndef OS1_VEZBE07_RISCV_CONTEXT_SWITCH_2_INTERRUPT_TCB_HPP
   6:src/../h/tcb.hpp **** #define OS1_VEZBE07_RISCV_CONTEXT_SWITCH_2_INTERRUPT_TCB_HPP
   7:src/../h/tcb.hpp **** 
GAS LISTING /tmp/ccAfoz3S.s 			page 3


   8:src/../h/tcb.hpp **** #include "syscall_c.h"
   9:src/../h/tcb.hpp **** #include "../lib/hw.h"
  10:src/../h/tcb.hpp **** #include "scheduler.hpp"
  11:src/../h/tcb.hpp **** #include "../h/print.hpp"
  12:src/../h/tcb.hpp **** #include "_sem.hpp"
  13:src/../h/tcb.hpp **** 
  14:src/../h/tcb.hpp **** // Thread Control Block
  15:src/../h/tcb.hpp **** 
  16:src/../h/tcb.hpp **** class _thread
  17:src/../h/tcb.hpp **** {
  18:src/../h/tcb.hpp **** public:
  19:src/../h/tcb.hpp ****     ~_thread() { delete[] stack; }
  20:src/../h/tcb.hpp **** 
  21:src/../h/tcb.hpp ****     bool isFinished() const { return finished; }
  22:src/../h/tcb.hpp **** 
  23:src/../h/tcb.hpp ****     void setFinished(bool value) { finished = value; }
  24:src/../h/tcb.hpp **** 
  25:src/../h/tcb.hpp ****     uint64 getTimeSlice() const { return timeSlice; }
  26:src/../h/tcb.hpp **** 
  27:src/../h/tcb.hpp ****     void setSleep();
  28:src/../h/tcb.hpp **** 
  29:src/../h/tcb.hpp ****     void insertScheduler() {
  30:src/../h/tcb.hpp ****         Scheduler::put(this);
  31:src/../h/tcb.hpp ****     }
  32:src/../h/tcb.hpp **** 
  33:src/../h/tcb.hpp ****     void dblck();
  34:src/../h/tcb.hpp **** 
  35:src/../h/tcb.hpp ****     using Body = void (*)();
  36:src/../h/tcb.hpp **** 
  37:src/../h/tcb.hpp ****     //mickov poziv, i poziv za projekat
  38:src/../h/tcb.hpp ****     static _thread *createThread(Body body);
  39:src/../h/tcb.hpp ****     static int createThread(thread_t*, Body, void*, void*);
  40:src/../h/tcb.hpp **** 
  41:src/../h/tcb.hpp ****     static void yield();
  42:src/../h/tcb.hpp **** 
  43:src/../h/tcb.hpp ****     static _thread *running;
  44:src/../h/tcb.hpp **** 
  45:src/../h/tcb.hpp ****     static void consoleWrite();
  46:src/../h/tcb.hpp ****     static void dispatch();
  47:src/../h/tcb.hpp **** 
  48:src/../h/tcb.hpp **** private:
  49:src/../h/tcb.hpp ****     //mickov konstruktor
  50:src/../h/tcb.hpp ****     _thread(Body body, uint64 timeSlice) :
  51:src/../h/tcb.hpp ****             body(body),
  52:src/../h/tcb.hpp ****             stack(body != nullptr ? new uint64[STACK_SIZE] : nullptr),
  53:src/../h/tcb.hpp ****             context({(uint64) &threadWrapper,
  54:src/../h/tcb.hpp ****                      stack != nullptr ? (uint64) &stack[STACK_SIZE] : 0
  55:src/../h/tcb.hpp ****                     }),
  56:src/../h/tcb.hpp ****             timeSlice(timeSlice),
  57:src/../h/tcb.hpp ****             finished(false)
  85              		.loc 2 57 27
  86 005c 23302501 		sd	s2,0(a0)
  52:src/../h/tcb.hpp ****             context({(uint64) &threadWrapper,
  87              		.loc 2 52 35
  88 0060 630A0900 		beqz	s2,.L10
  52:src/../h/tcb.hpp ****             context({(uint64) &threadWrapper,
  89              		.loc 2 52 58
GAS LISTING /tmp/ccAfoz3S.s 			page 4


  90 0064 37250000 		li	a0,8192
  91              	.LEHB1:
  92 0068 97000000 		call	_Znam@plt
  92      E7800000 
  93              	.LVL5:
  94 0070 6F008000 		j	.L6
  95              	.L10:
  52:src/../h/tcb.hpp ****             context({(uint64) &threadWrapper,
  96              		.loc 2 52 35
  97 0074 13050000 		li	a0,0
  98              	.L6:
  99              		.loc 2 57 27
 100 0078 23B4A400 		sd	a0,8(s1)
 101 007c 97070000 		lla	a5,_ZN7_thread13threadWrapperEv
 101      93870700 
 102 0084 23B8F400 		sd	a5,16(s1)
  54:src/../h/tcb.hpp ****                     }),
 103              		.loc 2 54 39
 104 0088 63000504 		beqz	a0,.L11
  54:src/../h/tcb.hpp ****                     }),
 105              		.loc 2 54 50
 106 008c B7270000 		li	a5,8192
 107 0090 B307F500 		add	a5,a0,a5
 108              	.L7:
 109              		.loc 2 57 27
 110 0094 23BCF400 		sd	a5,24(s1)
 111 0098 93072000 		li	a5,2
 112 009c 23B0F402 		sd	a5,32(s1)
 113 00a0 23840402 		sb	zero,40(s1)
 114 00a4 23B80402 		sd	zero,48(s1)
 115 00a8 238C0402 		sb	zero,56(s1)
 116 00ac A38C0402 		sb	zero,57(s1)
 117 00b0 23B00404 		sd	zero,64(s1)
  58:src/../h/tcb.hpp ****     {
  59:src/../h/tcb.hpp ****         if (body != nullptr) { Scheduler::put(this);}
 118              		.loc 2 59 9 is_stmt 1
 119 00b4 630C0902 		beqz	s2,.L5
 120              		.loc 2 59 32
 121              		.loc 2 59 46 is_stmt 0
 122 00b8 13850400 		mv	a0,s1
 123 00bc 97000000 		call	_ZN9Scheduler3putEP7_thread@plt
 123      E7800000 
 124              	.LVL6:
 125              	.LEHE1:
 126 00c4 6F008002 		j	.L5
 127              	.L11:
  54:src/../h/tcb.hpp ****                     }),
 128              		.loc 2 54 39
 129 00c8 93070000 		li	a5,0
 130 00cc 6FF09FFC 		j	.L7
 131              	.L12:
 132 00d0 13090500 		mv	s2,a0
 133              	.LVL7:
 134              	.LBE25:
 135              	.LBE24:
 136              		.loc 1 23 40
 137 00d4 13850400 		mv	a0,s1
GAS LISTING /tmp/ccAfoz3S.s 			page 5


 138 00d8 97000000 		call	_ZdlPv@plt
 138      E7800000 
 139              	.LVL8:
 140 00e0 13050900 		mv	a0,s2
 141              	.LEHB2:
 142 00e4 97000000 		call	_Unwind_Resume@plt
 142      E7800000 
 143              	.LVL9:
 144              	.LEHE2:
 145              	.L5:
  24:src/tcb.cpp   **** }
 146              		.loc 1 24 1
 147 00ec 13850400 		mv	a0,s1
 148 00f0 83308101 		ld	ra,24(sp)
 149              		.cfi_restore 1
 150 00f4 03340101 		ld	s0,16(sp)
 151              		.cfi_restore 8
 152              		.cfi_def_cfa 2, 32
 153 00f8 83348100 		ld	s1,8(sp)
 154              		.cfi_restore 9
 155              	.LVL10:
 156 00fc 03390100 		ld	s2,0(sp)
 157              		.cfi_restore 18
 158              	.LVL11:
 159 0100 13010102 		addi	sp,sp,32
 160              		.cfi_def_cfa_offset 0
 161 0104 67800000 		jr	ra
 162              		.cfi_endproc
 163              	.LFE50:
 164              		.globl	__gxx_personality_v0
 165              		.section	.gcc_except_table,"a",@progbits
 166              	.LLSDA50:
 167 0000 FF       		.byte	0xff
 168 0001 FF       		.byte	0xff
 169 0002 03       		.byte	0x3
 170 0003 27       		.byte	0x27
 171 0004 00000000 		.4byte	.LEHB0-.LFB50
 172 0008 00000000 		.4byte	.LEHE0-.LEHB0
 173 000c 00000000 		.4byte	0
 174 0010 00       		.byte	0
 175 0011 00000000 		.4byte	.LEHB1-.LFB50
 176 0015 00000000 		.4byte	.LEHE1-.LEHB1
 177 0019 00000000 		.4byte	.L12-.LFB50
 178 001d 00       		.byte	0
 179 001e 00000000 		.4byte	.LEHB2-.LFB50
 180 0022 00000000 		.4byte	.LEHE2-.LEHB2
 181 0026 00000000 		.4byte	0
 182 002a 00       		.byte	0
 183              		.text
 185              		.align	2
 186              		.globl	_ZN7_thread12createThreadEPPS_PFvvEPvS4_
 188              	_ZN7_thread12createThreadEPPS_PFvvEPvS4_:
 189              	.LFB51:
  25:src/tcb.cpp   **** //poziv za projekat
  26:src/tcb.cpp   **** int _thread::createThread(thread_t* handle, Body body, void *args, void *stack)
  27:src/tcb.cpp   **** {
 190              		.loc 1 27 1 is_stmt 1
GAS LISTING /tmp/ccAfoz3S.s 			page 6


 191              		.cfi_startproc
 192              		.cfi_personality 0x9b,DW.ref.__gxx_personality_v0
 193              		.cfi_lsda 0x1b,.LLSDA51
 194              	.LVL12:
 195 0108 130101FC 		addi	sp,sp,-64
 196              		.cfi_def_cfa_offset 64
 197 010c 233C1102 		sd	ra,56(sp)
 198 0110 23388102 		sd	s0,48(sp)
 199 0114 23349102 		sd	s1,40(sp)
 200 0118 23302103 		sd	s2,32(sp)
 201 011c 233C3101 		sd	s3,24(sp)
 202 0120 23384101 		sd	s4,16(sp)
 203 0124 23345101 		sd	s5,8(sp)
 204              		.cfi_offset 1, -8
 205              		.cfi_offset 8, -16
 206              		.cfi_offset 9, -24
 207              		.cfi_offset 18, -32
 208              		.cfi_offset 19, -40
 209              		.cfi_offset 20, -48
 210              		.cfi_offset 21, -56
 211 0128 13040104 		addi	s0,sp,64
 212              		.cfi_def_cfa 8, 0
 213 012c 130A0500 		mv	s4,a0
 214 0130 93890500 		mv	s3,a1
 215 0134 930A0600 		mv	s5,a2
 216 0138 13890600 		mv	s2,a3
  28:src/tcb.cpp   ****     *handle = new _thread(body, args, stack);
 217              		.loc 1 28 5
 218              		.loc 1 28 44 is_stmt 0
 219 013c 13058004 		li	a0,72
 220              	.LVL13:
 221              	.LEHB3:
 222 0140 97000000 		call	_Znwm@plt
 222      E7800000 
 223              	.LVL14:
 224              	.LEHE3:
 225 0148 93040500 		mv	s1,a0
 226              	.LVL15:
 227              	.LBB29:
 228              	.LBB30:
  60:src/../h/tcb.hpp ****     }
  61:src/../h/tcb.hpp **** 
  62:src/../h/tcb.hpp **** 
  63:src/../h/tcb.hpp **** 
  64:src/../h/tcb.hpp ****     _thread(Body body, void *args, void *stackk) :
  65:src/../h/tcb.hpp ****             body(body),
  66:src/../h/tcb.hpp ****             stack(body != nullptr ? (uint64*)stackk : nullptr),
  67:src/../h/tcb.hpp ****             context({(uint64) &threadWrapper,
  68:src/../h/tcb.hpp ****                      stack != nullptr ?  (uint64) &stack[1024] : 0
  69:src/../h/tcb.hpp ****                     }),
  70:src/../h/tcb.hpp ****             timeSlice(DEFAULT_TIME_SLICE),
  71:src/../h/tcb.hpp ****             finished(false),
  72:src/../h/tcb.hpp ****             args(args)
 229              		.loc 2 72 22
 230 014c 23303501 		sd	s3,0(a0)
  66:src/../h/tcb.hpp ****             context({(uint64) &threadWrapper,
 231              		.loc 2 66 35
GAS LISTING /tmp/ccAfoz3S.s 			page 7


 232 0150 638A0904 		beqz	s3,.L26
 233              	.LVL16:
 234              	.L15:
 235              		.loc 2 72 22
 236 0154 23B42401 		sd	s2,8(s1)
 237 0158 97070000 		lla	a5,_ZN7_thread13threadWrapperEv
 237      93870700 
 238 0160 23B8F400 		sd	a5,16(s1)
  68:src/../h/tcb.hpp ****                     }),
 239              		.loc 2 68 39
 240 0164 63040904 		beqz	s2,.L21
  68:src/../h/tcb.hpp ****                     }),
 241              		.loc 2 68 51
 242 0168 B7260000 		li	a3,8192
 243 016c 3309D900 		add	s2,s2,a3
 244              	.L16:
 245              		.loc 2 72 22
 246 0170 23BC2401 		sd	s2,24(s1)
 247 0174 93072000 		li	a5,2
 248 0178 23B0F402 		sd	a5,32(s1)
 249 017c 23840402 		sb	zero,40(s1)
 250 0180 23B85403 		sd	s5,48(s1)
 251 0184 238C0402 		sb	zero,56(s1)
 252 0188 A38C0402 		sb	zero,57(s1)
 253 018c 23B00404 		sd	zero,64(s1)
  73:src/../h/tcb.hpp ****     {
  74:src/../h/tcb.hpp ****         if (body != nullptr) {
 254              		.loc 2 74 9 is_stmt 1
 255 0190 63820902 		beqz	s3,.L17
  75:src/../h/tcb.hpp ****             Scheduler::put(this);
 256              		.loc 2 75 13
 257              		.loc 2 75 27 is_stmt 0
 258 0194 13850400 		mv	a0,s1
 259              	.LEHB4:
 260 0198 97000000 		call	_ZN9Scheduler3putEP7_thread@plt
 260      E7800000 
 261              	.LVL17:
 262              	.LEHE4:
 263 01a0 6F004001 		j	.L17
 264              	.LVL18:
 265              	.L26:
  66:src/../h/tcb.hpp ****             context({(uint64) &threadWrapper,
 266              		.loc 2 66 35
 267 01a4 13090000 		li	s2,0
 268              	.LVL19:
 269 01a8 6FF0DFFA 		j	.L15
 270              	.L21:
  68:src/../h/tcb.hpp ****                     }),
 271              		.loc 2 68 39
 272 01ac 13090000 		li	s2,0
 273 01b0 6FF01FFC 		j	.L16
 274              	.L17:
 275              	.LVL20:
 276              	.LBE30:
 277              	.LBE29:
 278              		.loc 1 28 13
 279 01b4 23309A00 		sd	s1,0(s4)
GAS LISTING /tmp/ccAfoz3S.s 			page 8


  29:src/tcb.cpp   ****     if(*handle != nullptr)
 280              		.loc 1 29 5 is_stmt 1
 281 01b8 63860402 		beqz	s1,.L22
  30:src/tcb.cpp   ****         return 0;
 282              		.loc 1 30 16 is_stmt 0
 283 01bc 13050000 		li	a0,0
 284              	.L24:
  31:src/tcb.cpp   ****     else
  32:src/tcb.cpp   ****         return -2;
  33:src/tcb.cpp   **** }
 285              		.loc 1 33 1
 286 01c0 83308103 		ld	ra,56(sp)
 287              		.cfi_remember_state
 288              		.cfi_restore 1
 289 01c4 03340103 		ld	s0,48(sp)
 290              		.cfi_restore 8
 291              		.cfi_def_cfa 2, 64
 292 01c8 83348102 		ld	s1,40(sp)
 293              		.cfi_restore 9
 294 01cc 03390102 		ld	s2,32(sp)
 295              		.cfi_restore 18
 296 01d0 83398101 		ld	s3,24(sp)
 297              		.cfi_restore 19
 298              	.LVL21:
 299 01d4 033A0101 		ld	s4,16(sp)
 300              		.cfi_restore 20
 301              	.LVL22:
 302 01d8 833A8100 		ld	s5,8(sp)
 303              		.cfi_restore 21
 304              	.LVL23:
 305 01dc 13010104 		addi	sp,sp,64
 306              		.cfi_def_cfa_offset 0
 307 01e0 67800000 		jr	ra
 308              	.LVL24:
 309              	.L22:
 310              		.cfi_restore_state
  32:src/tcb.cpp   **** }
 311              		.loc 1 32 17
 312 01e4 1305E0FF 		li	a0,-2
 313 01e8 6FF09FFD 		j	.L24
 314              	.LVL25:
 315              	.L23:
 316 01ec 13090500 		mv	s2,a0
  28:src/tcb.cpp   ****     if(*handle != nullptr)
 317              		.loc 1 28 44
 318 01f0 13850400 		mv	a0,s1
 319 01f4 97000000 		call	_ZdlPv@plt
 319      E7800000 
 320              	.LVL26:
 321 01fc 13050900 		mv	a0,s2
 322              	.LEHB5:
 323 0200 97000000 		call	_Unwind_Resume@plt
 323      E7800000 
 324              	.LVL27:
 325              	.LEHE5:
 326              		.cfi_endproc
 327              	.LFE51:
GAS LISTING /tmp/ccAfoz3S.s 			page 9


 328              		.section	.gcc_except_table
 329              	.LLSDA51:
 330 002b FF       		.byte	0xff
 331 002c FF       		.byte	0xff
 332 002d 03       		.byte	0x3
 333 002e 27       		.byte	0x27
 334 002f 00000000 		.4byte	.LEHB3-.LFB51
 335 0033 00000000 		.4byte	.LEHE3-.LEHB3
 336 0037 00000000 		.4byte	0
 337 003b 00       		.byte	0
 338 003c 00000000 		.4byte	.LEHB4-.LFB51
 339 0040 00000000 		.4byte	.LEHE4-.LEHB4
 340 0044 00000000 		.4byte	.L23-.LFB51
 341 0048 00       		.byte	0
 342 0049 00000000 		.4byte	.LEHB5-.LFB51
 343 004d 00000000 		.4byte	.LEHE5-.LEHB5
 344 0051 00000000 		.4byte	0
 345 0055 00       		.byte	0
 346              		.text
 348              		.align	2
 349              		.globl	_ZN7_thread5yieldEv
 351              	_ZN7_thread5yieldEv:
 352              	.LFB52:
  34:src/tcb.cpp   **** 
  35:src/tcb.cpp   **** void _thread::yield()
  36:src/tcb.cpp   **** {
 353              		.loc 1 36 1 is_stmt 1
 354              		.cfi_startproc
 355 0208 130101FF 		addi	sp,sp,-16
 356              		.cfi_def_cfa_offset 16
 357 020c 23348100 		sd	s0,8(sp)
 358              		.cfi_offset 8, -8
 359 0210 13040101 		addi	s0,sp,16
 360              		.cfi_def_cfa 8, 0
  37:src/tcb.cpp   ****     __asm__ volatile ("ecall");
 361              		.loc 1 37 5
 362              		.loc 1 37 31 is_stmt 0
 363              	#APP
 364              	# 37 "src/tcb.cpp" 1
  38              	}
 365              		ecall
 366              	# 0 "" 2
 367              		.loc 1 38 1
 368              	#NO_APP
 369 0218 03348100 		ld	s0,8(sp)
 370              		.cfi_restore 8
 371              		.cfi_def_cfa 2, 16
 372 021c 13010101 		addi	sp,sp,16
 373              		.cfi_def_cfa_offset 0
 374 0220 67800000 		jr	ra
 375              		.cfi_endproc
 376              	.LFE52:
 378              		.section	.rodata.str1.8,"aMS",@progbits,1
 379              		.align	3
 380              	.LC0:
 381 0000 676F746F 		.string	"gotova nit"
 381      7661206E 
GAS LISTING /tmp/ccAfoz3S.s 			page 10


 381      697400
 382              		.text
 383              		.align	2
 384              		.globl	_ZN7_thread13threadWrapperEv
 386              	_ZN7_thread13threadWrapperEv:
 387              	.LFB54:
  39:src/tcb.cpp   **** 
  40:src/tcb.cpp   **** void _thread::dispatch()
  41:src/tcb.cpp   **** {
  42:src/tcb.cpp   ****     _thread *old = running;
  43:src/tcb.cpp   ****     if (!old->isFinished() && !old->blocked && !old->sleeping) {
  44:src/tcb.cpp   ****         Scheduler::put(old);
  45:src/tcb.cpp   ****     }
  46:src/tcb.cpp   ****     else if(!old->isFinished() && old->blocked && !old->sleeping){
  47:src/tcb.cpp   ****         if(old->blockedBy != nullptr){
  48:src/tcb.cpp   ****             old->blockedBy->blockedList().addLast(old);
  49:src/tcb.cpp   ****         }
  50:src/tcb.cpp   ****     }
  51:src/tcb.cpp   ****     running = Scheduler::get();
  52:src/tcb.cpp   **** 
  53:src/tcb.cpp   ****     _thread::contextSwitch(&old->context, &running->context);
  54:src/tcb.cpp   **** }
  55:src/tcb.cpp   **** 
  56:src/tcb.cpp   **** void _thread::threadWrapper()
  57:src/tcb.cpp   **** {
 388              		.loc 1 57 1 is_stmt 1
 389              		.cfi_startproc
 390 0224 130101FE 		addi	sp,sp,-32
 391              		.cfi_def_cfa_offset 32
 392 0228 233C1100 		sd	ra,24(sp)
 393 022c 23388100 		sd	s0,16(sp)
 394 0230 23349100 		sd	s1,8(sp)
 395              		.cfi_offset 1, -8
 396              		.cfi_offset 8, -16
 397              		.cfi_offset 9, -24
 398 0234 13040102 		addi	s0,sp,32
 399              		.cfi_def_cfa 8, 0
  58:src/tcb.cpp   ****     Riscv::popSppSpie();
 400              		.loc 1 58 5
 401              		.loc 1 58 22 is_stmt 0
 402 0238 97000000 		call	_ZN5Riscv10popSppSpieEv@plt
 402      E7800000 
 403              	.LVL28:
  59:src/tcb.cpp   ****     running->body();
 404              		.loc 1 59 5 is_stmt 1
 405              		.loc 1 59 14 is_stmt 0
 406 0240 97040000 		lla	s1,.LANCHOR0
 406      93840400 
 407 0248 83B70400 		ld	a5,0(s1)
 408 024c 83B70700 		ld	a5,0(a5)
 409              		.loc 1 59 18
 410 0250 E7800700 		jalr	a5
 411              	.LVL29:
  60:src/tcb.cpp   ****     running->setFinished(true);
 412              		.loc 1 60 5 is_stmt 1
 413              		.loc 1 60 25 is_stmt 0
 414 0254 83B70400 		ld	a5,0(s1)
GAS LISTING /tmp/ccAfoz3S.s 			page 11


 415              	.LVL30:
 416              	.LBB31:
 417              	.LBB32:
  23:src/../h/tcb.hpp **** 
 418              		.loc 2 23 36 is_stmt 1
  23:src/../h/tcb.hpp **** 
 419              		.loc 2 23 45 is_stmt 0
 420 0258 13071000 		li	a4,1
 421 025c 2384E702 		sb	a4,40(a5)
 422              	.LVL31:
 423              	.LBE32:
 424              	.LBE31:
  61:src/tcb.cpp   ****     printString("gotova nit");
 425              		.loc 1 61 5 is_stmt 1
 426              		.loc 1 61 16 is_stmt 0
 427 0260 17050000 		lla	a0,.LC0
 427      13050500 
 428 0268 97000000 		call	_Z11printStringPKc@plt
 428      E7800000 
 429              	.LVL32:
  62:src/tcb.cpp   ****     _thread::yield();
 430              		.loc 1 62 5 is_stmt 1
 431              		.loc 1 62 19 is_stmt 0
 432 0270 97000000 		call	_ZN7_thread5yieldEv
 432      E7800000 
 433              	.LVL33:
  63:src/tcb.cpp   **** }
 434              		.loc 1 63 1
 435 0278 83308101 		ld	ra,24(sp)
 436              		.cfi_restore 1
 437 027c 03340101 		ld	s0,16(sp)
 438              		.cfi_restore 8
 439              		.cfi_def_cfa 2, 32
 440 0280 83348100 		ld	s1,8(sp)
 441              		.cfi_restore 9
 442 0284 13010102 		addi	sp,sp,32
 443              		.cfi_def_cfa_offset 0
 444 0288 67800000 		jr	ra
 445              		.cfi_endproc
 446              	.LFE54:
 448              		.align	2
 449              		.globl	_ZN7_thread8dispatchEv
 451              	_ZN7_thread8dispatchEv:
 452              	.LFB53:
  41:src/tcb.cpp   ****     _thread *old = running;
 453              		.loc 1 41 1 is_stmt 1
 454              		.cfi_startproc
 455 028c 130101FE 		addi	sp,sp,-32
 456              		.cfi_def_cfa_offset 32
 457 0290 233C1100 		sd	ra,24(sp)
 458 0294 23388100 		sd	s0,16(sp)
 459 0298 23349100 		sd	s1,8(sp)
 460 029c 23302101 		sd	s2,0(sp)
 461              		.cfi_offset 1, -8
 462              		.cfi_offset 8, -16
 463              		.cfi_offset 9, -24
 464              		.cfi_offset 18, -32
GAS LISTING /tmp/ccAfoz3S.s 			page 12


 465 02a0 13040102 		addi	s0,sp,32
 466              		.cfi_def_cfa 8, 0
  42:src/tcb.cpp   ****     if (!old->isFinished() && !old->blocked && !old->sleeping) {
 467              		.loc 1 42 5
  42:src/tcb.cpp   ****     if (!old->isFinished() && !old->blocked && !old->sleeping) {
 468              		.loc 1 42 14 is_stmt 0
 469 02a4 97040000 		ld	s1,.LANCHOR0
 469      83B40400 
 470              	.LVL34:
  43:src/tcb.cpp   ****         Scheduler::put(old);
 471              		.loc 1 43 5 is_stmt 1
 472              	.LBB40:
 473              	.LBB41:
  21:src/../h/tcb.hpp **** 
 474              		.loc 2 21 31
  21:src/../h/tcb.hpp **** 
 475              		.loc 2 21 38 is_stmt 0
 476 02ac 83C78402 		lbu	a5,40(s1)
 477              	.LVL35:
 478              	.LBE41:
 479              	.LBE40:
  43:src/tcb.cpp   ****         Scheduler::put(old);
 480              		.loc 1 43 45
 481 02b0 639A0700 		bnez	a5,.L32
  43:src/tcb.cpp   ****         Scheduler::put(old);
 482              		.loc 1 43 37 discriminator 1
 483 02b4 03C78403 		lbu	a4,56(s1)
  43:src/tcb.cpp   ****         Scheduler::put(old);
 484              		.loc 1 43 28 discriminator 1
 485 02b8 63160700 		bnez	a4,.L32
  43:src/tcb.cpp   ****         Scheduler::put(old);
 486              		.loc 1 43 54 discriminator 3
 487 02bc 03C79403 		lbu	a4,57(s1)
  43:src/tcb.cpp   ****         Scheduler::put(old);
 488              		.loc 1 43 45 discriminator 3
 489 02c0 630C0704 		beqz	a4,.L37
 490              	.L32:
  46:src/tcb.cpp   ****         if(old->blockedBy != nullptr){
 491              		.loc 1 46 10 is_stmt 1
 492              	.LVL36:
  21:src/../h/tcb.hpp **** 
 493              		.loc 2 21 31
  46:src/tcb.cpp   ****         if(old->blockedBy != nullptr){
 494              		.loc 1 46 48 is_stmt 0
 495 02c4 63900706 		bnez	a5,.L33
  46:src/tcb.cpp   ****         if(old->blockedBy != nullptr){
 496              		.loc 1 46 40 discriminator 1
 497 02c8 83C78403 		lbu	a5,56(s1)
  46:src/tcb.cpp   ****         if(old->blockedBy != nullptr){
 498              		.loc 1 46 32 discriminator 1
 499 02cc 638C0704 		beqz	a5,.L33
  46:src/tcb.cpp   ****         if(old->blockedBy != nullptr){
 500              		.loc 1 46 57 discriminator 3
 501 02d0 83C79403 		lbu	a5,57(s1)
  46:src/tcb.cpp   ****         if(old->blockedBy != nullptr){
 502              		.loc 1 46 48 discriminator 3
 503 02d4 63980704 		bnez	a5,.L33
GAS LISTING /tmp/ccAfoz3S.s 			page 13


  47:src/tcb.cpp   ****             old->blockedBy->blockedList().addLast(old);
 504              		.loc 1 47 9 is_stmt 1
  47:src/tcb.cpp   ****             old->blockedBy->blockedList().addLast(old);
 505              		.loc 1 47 17 is_stmt 0
 506 02d8 03B50404 		ld	a0,64(s1)
  47:src/tcb.cpp   ****             old->blockedBy->blockedList().addLast(old);
 507              		.loc 1 47 9
 508 02dc 63040504 		beqz	a0,.L33
  48:src/tcb.cpp   ****         }
 509              		.loc 1 48 13 is_stmt 1
  48:src/tcb.cpp   ****         }
 510              		.loc 1 48 41 is_stmt 0
 511 02e0 97000000 		call	_ZN4_sem11blockedListEv@plt
 511      E7800000 
 512              	.LVL37:
 513 02e8 13090500 		mv	s2,a0
 514              	.LVL38:
 515              	.LBB42:
 516              	.LBB43:
 517              		.file 3 "src/../h/list.hpp"
   1:src/../h/list.hpp **** //
   2:src/../h/list.hpp **** // Created by marko on 20.4.22..
   3:src/../h/list.hpp **** //
   4:src/../h/list.hpp **** 
   5:src/../h/list.hpp **** #ifndef OS1_VEZBE07_RISCV_CONTEXT_SWITCH_2_INTERRUPT_LIST_HPP
   6:src/../h/list.hpp **** #define OS1_VEZBE07_RISCV_CONTEXT_SWITCH_2_INTERRUPT_LIST_HPP
   7:src/../h/list.hpp **** 
   8:src/../h/list.hpp **** //#include "riscv.hpp"
   9:src/../h/list.hpp **** 
  10:src/../h/list.hpp **** //class Scheduler;
  11:src/../h/list.hpp **** template<typename T>
  12:src/../h/list.hpp **** class List
  13:src/../h/list.hpp **** {
  14:src/../h/list.hpp **** private:
  15:src/../h/list.hpp ****     struct Elem
  16:src/../h/list.hpp ****     {
  17:src/../h/list.hpp ****         T *data;
  18:src/../h/list.hpp ****         Elem *next;
  19:src/../h/list.hpp ****         int sleepTime;
  20:src/../h/list.hpp ****         Elem(T *data, Elem *next, int sleepTime = 0) : data(data), next(next), sleepTime(sleepTime)
  21:src/../h/list.hpp ****         Elem(T *data) : data(data), next(nullptr), sleepTime(0) {}
  22:src/../h/list.hpp ****     };
  23:src/../h/list.hpp **** 
  24:src/../h/list.hpp ****     Elem *head, *tail;
  25:src/../h/list.hpp **** 
  26:src/../h/list.hpp **** public:
  27:src/../h/list.hpp ****     List() : head(0), tail(0) {}
  28:src/../h/list.hpp **** 
  29:src/../h/list.hpp ****     List(const List<T> &) = delete;
  30:src/../h/list.hpp **** 
  31:src/../h/list.hpp ****     List<T> &operator=(const List<T> &) = delete;
  32:src/../h/list.hpp **** 
  33:src/../h/list.hpp ****     void addFirst(T *data)
  34:src/../h/list.hpp ****     {
  35:src/../h/list.hpp ****         Elem *elem = new Elem(data, head);
  36:src/../h/list.hpp ****         head = elem;
  37:src/../h/list.hpp ****         if (!tail) { tail = head; }
GAS LISTING /tmp/ccAfoz3S.s 			page 14


  38:src/../h/list.hpp ****     }
  39:src/../h/list.hpp **** 
  40:src/../h/list.hpp ****     void addLast(T *data)
  41:src/../h/list.hpp ****     {
  42:src/../h/list.hpp ****         Elem *elem = new Elem(data, 0);
 518              		.loc 3 42 22
 519 02ec 13058001 		li	a0,24
 520              	.LVL39:
 521 02f0 97000000 		call	_Znwm@plt
 521      E7800000 
 522              	.LVL40:
 523              	.LBB44:
 524              	.LBB45:
  20:src/../h/list.hpp ****         Elem(T *data) : data(data), next(nullptr), sleepTime(0) {}
 525              		.loc 3 20 99
 526 02f8 23309500 		sd	s1,0(a0)
 527 02fc 23340500 		sd	zero,8(a0)
 528 0300 23280500 		sw	zero,16(a0)
 529              	.LVL41:
 530              	.LBE45:
 531              	.LBE44:
  43:src/../h/list.hpp ****         if (tail)
 532              		.loc 3 43 13
 533 0304 83378900 		ld	a5,8(s2)
 534              		.loc 3 43 9
 535 0308 638A0704 		beqz	a5,.L34
  44:src/../h/list.hpp ****         {
  45:src/../h/list.hpp ****             tail->next = elem;
 536              		.loc 3 45 13
 537 030c 23B4A700 		sd	a0,8(a5)
  46:src/../h/list.hpp ****             tail = elem;
 538              		.loc 3 46 13
 539 0310 2334A900 		sd	a0,8(s2)
 540 0314 6F000001 		j	.L33
 541              	.LVL42:
 542              	.L37:
 543              	.LBE43:
 544              	.LBE42:
  44:src/tcb.cpp   ****     }
 545              		.loc 1 44 9 is_stmt 1
  44:src/tcb.cpp   ****     }
 546              		.loc 1 44 23 is_stmt 0
 547 0318 13850400 		mv	a0,s1
 548 031c 97000000 		call	_ZN9Scheduler3putEP7_thread@plt
 548      E7800000 
 549              	.LVL43:
 550              	.L33:
  51:src/tcb.cpp   **** 
 551              		.loc 1 51 5 is_stmt 1
  51:src/tcb.cpp   **** 
 552              		.loc 1 51 29 is_stmt 0
 553 0324 97000000 		call	_ZN9Scheduler3getEv@plt
 553      E7800000 
 554              	.LVL44:
  51:src/tcb.cpp   **** 
 555              		.loc 1 51 13
 556 032c 97070000 		sd	a0,.LANCHOR0,a5
GAS LISTING /tmp/ccAfoz3S.s 			page 15


 556      23B0A700 
  53:src/tcb.cpp   **** }
 557              		.loc 1 53 5 is_stmt 1
  53:src/tcb.cpp   **** }
 558              		.loc 1 53 27 is_stmt 0
 559 0334 93050501 		addi	a1,a0,16
 560 0338 13850401 		addi	a0,s1,16
 561 033c 97000000 		call	_ZN7_thread13contextSwitchEPNS_7ContextES1_@plt
 561      E7800000 
 562              	.LVL45:
  54:src/tcb.cpp   **** 
 563              		.loc 1 54 1
 564 0344 83308101 		ld	ra,24(sp)
 565              		.cfi_remember_state
 566              		.cfi_restore 1
 567 0348 03340101 		ld	s0,16(sp)
 568              		.cfi_restore 8
 569              		.cfi_def_cfa 2, 32
 570 034c 83348100 		ld	s1,8(sp)
 571              		.cfi_restore 9
 572              	.LVL46:
 573 0350 03390100 		ld	s2,0(sp)
 574              		.cfi_restore 18
 575 0354 13010102 		addi	sp,sp,32
 576              		.cfi_def_cfa_offset 0
 577 0358 67800000 		jr	ra
 578              	.LVL47:
 579              	.L34:
 580              		.cfi_restore_state
 581              	.LBB47:
 582              	.LBB46:
  47:src/../h/list.hpp ****         } else
  48:src/../h/list.hpp ****         {
  49:src/../h/list.hpp ****             head = tail = elem;
 583              		.loc 3 49 13
 584 035c 2334A900 		sd	a0,8(s2)
 585 0360 2330A900 		sd	a0,0(s2)
  50:src/../h/list.hpp ****         }
  51:src/../h/list.hpp ****     }
 586              		.loc 3 51 5
 587 0364 6FF01FFC 		j	.L33
 588              	.LBE46:
 589              	.LBE47:
 590              		.cfi_endproc
 591              	.LFE53:
 593              		.align	2
 594              		.globl	_ZN7_thread10threadStopEv
 596              	_ZN7_thread10threadStopEv:
 597              	.LFB55:
  64:src/tcb.cpp   **** 
  65:src/tcb.cpp   **** int _thread::threadStop(){
 598              		.loc 1 65 26 is_stmt 1
 599              		.cfi_startproc
 600 0368 130101FF 		addi	sp,sp,-16
 601              		.cfi_def_cfa_offset 16
 602 036c 23348100 		sd	s0,8(sp)
 603              		.cfi_offset 8, -8
GAS LISTING /tmp/ccAfoz3S.s 			page 16


 604 0370 13040101 		addi	s0,sp,16
 605              		.cfi_def_cfa 8, 0
  66:src/tcb.cpp   ****     running->setFinished(true);
 606              		.loc 1 66 5
 607              	.LVL48:
 608              	.LBB48:
 609              	.LBB49:
  23:src/../h/tcb.hpp **** 
 610              		.loc 2 23 36
  23:src/../h/tcb.hpp **** 
 611              		.loc 2 23 45 is_stmt 0
 612 0374 97070000 		ld	a5,.LANCHOR0
 612      83B70700 
 613 037c 13071000 		li	a4,1
 614 0380 2384E702 		sb	a4,40(a5)
 615              	.LVL49:
 616              	.LBE49:
 617              	.LBE48:
  67:src/tcb.cpp   **** //    if(mem_free(running->stack) != 0)
  68:src/tcb.cpp   **** //        return -3;
  69:src/tcb.cpp   **** //    else{
  70:src/tcb.cpp   **** //        _thread::yield();
  71:src/tcb.cpp   **** //        return 0;
  72:src/tcb.cpp   **** //    }
  73:src/tcb.cpp   **** 
  74:src/tcb.cpp   **** //    delete []running->stack;
  75:src/tcb.cpp   **** //    nzm da se brise nit ili se samo zaustavlja
  76:src/tcb.cpp   **** return 0;
 618              		.loc 1 76 1 is_stmt 1
  77:src/tcb.cpp   **** }
 619              		.loc 1 77 1 is_stmt 0
 620 0384 13050000 		li	a0,0
 621 0388 03348100 		ld	s0,8(sp)
 622              		.cfi_restore 8
 623              		.cfi_def_cfa 2, 16
 624 038c 13010101 		addi	sp,sp,16
 625              		.cfi_def_cfa_offset 0
 626 0390 67800000 		jr	ra
 627              		.cfi_endproc
 628              	.LFE55:
 630              		.align	2
 631              		.globl	_ZN7_thread5dblckEv
 633              	_ZN7_thread5dblckEv:
 634              	.LFB56:
  78:src/tcb.cpp   **** 
  79:src/tcb.cpp   **** void _thread::dblck(){
 635              		.loc 1 79 22 is_stmt 1
 636              		.cfi_startproc
 637              	.LVL50:
 638 0394 130101FF 		addi	sp,sp,-16
 639              		.cfi_def_cfa_offset 16
 640 0398 23348100 		sd	s0,8(sp)
 641              		.cfi_offset 8, -8
 642 039c 13040101 		addi	s0,sp,16
 643              		.cfi_def_cfa 8, 0
  80:src/tcb.cpp   ****     _thread::blocked = false;
 644              		.loc 1 80 5
GAS LISTING /tmp/ccAfoz3S.s 			page 17


 645              		.loc 1 80 22 is_stmt 0
 646 03a0 230C0502 		sb	zero,56(a0)
  81:src/tcb.cpp   ****     _thread::blockedBy = nullptr;
 647              		.loc 1 81 5 is_stmt 1
 648              		.loc 1 81 24 is_stmt 0
 649 03a4 23300504 		sd	zero,64(a0)
  82:src/tcb.cpp   **** }
 650              		.loc 1 82 1
 651 03a8 03348100 		ld	s0,8(sp)
 652              		.cfi_restore 8
 653              		.cfi_def_cfa 2, 16
 654 03ac 13010101 		addi	sp,sp,16
 655              		.cfi_def_cfa_offset 0
 656 03b0 67800000 		jr	ra
 657              		.cfi_endproc
 658              	.LFE56:
 660              		.align	2
 661              		.globl	_ZN7_thread5sleepEm
 663              	_ZN7_thread5sleepEm:
 664              	.LFB57:
  83:src/tcb.cpp   **** 
  84:src/tcb.cpp   **** 
  85:src/tcb.cpp   **** int _thread::sleep(time_t time) {
 665              		.loc 1 85 33 is_stmt 1
 666              		.cfi_startproc
 667              	.LVL51:
 668 03b4 130101FE 		addi	sp,sp,-32
 669              		.cfi_def_cfa_offset 32
 670 03b8 233C1100 		sd	ra,24(sp)
 671 03bc 23388100 		sd	s0,16(sp)
 672 03c0 23349100 		sd	s1,8(sp)
 673 03c4 23302101 		sd	s2,0(sp)
 674              		.cfi_offset 1, -8
 675              		.cfi_offset 8, -16
 676              		.cfi_offset 9, -24
 677              		.cfi_offset 18, -32
 678 03c8 13040102 		addi	s0,sp,32
 679              		.cfi_def_cfa 8, 0
 680 03cc 93040500 		mv	s1,a0
  86:src/tcb.cpp   ****     running->setSleep();
 681              		.loc 1 86 5
 682              		.loc 1 86 22 is_stmt 0
 683 03d0 17090000 		lla	s2,.LANCHOR0
 683      13090900 
 684 03d8 03350900 		ld	a0,0(s2)
 685              	.LVL52:
 686 03dc 97000000 		call	_ZN7_thread8setSleepEv
 686      E7800000 
 687              	.LVL53:
  87:src/tcb.cpp   ****     Riscv::sleepingThreads.addSleepingThread(running, time);
 688              		.loc 1 87 5 is_stmt 1
 689              		.loc 1 87 45 is_stmt 0
 690 03e4 03390900 		ld	s2,0(s2)
 691 03e8 9B840400 		sext.w	s1,s1
 692              	.LVL54:
 693              	.LBB57:
 694              	.LBB58:
GAS LISTING /tmp/ccAfoz3S.s 			page 18


  52:src/../h/list.hpp **** 
  53:src/../h/list.hpp ****     T *removeFirst()
  54:src/../h/list.hpp ****     {
  55:src/../h/list.hpp ****         if (!head) { return 0; }
  56:src/../h/list.hpp **** 
  57:src/../h/list.hpp ****         Elem *elem = head;
  58:src/../h/list.hpp ****         head = head->next;
  59:src/../h/list.hpp ****         if (!head) { tail = 0; }
  60:src/../h/list.hpp **** 
  61:src/../h/list.hpp ****         T *ret = elem->data;
  62:src/../h/list.hpp ****         delete elem;
  63:src/../h/list.hpp ****         return ret;
  64:src/../h/list.hpp ****     }
  65:src/../h/list.hpp **** 
  66:src/../h/list.hpp ****     T *peekFirst()
  67:src/../h/list.hpp ****     {
  68:src/../h/list.hpp ****         if (!head) { return 0; }
  69:src/../h/list.hpp ****         return head->data;
  70:src/../h/list.hpp ****     }
  71:src/../h/list.hpp **** 
  72:src/../h/list.hpp ****     T *removeLast()
  73:src/../h/list.hpp ****     {
  74:src/../h/list.hpp ****         if (!head) { return 0; }
  75:src/../h/list.hpp **** 
  76:src/../h/list.hpp ****         Elem *prev = 0;
  77:src/../h/list.hpp ****         for (Elem *curr = head; curr && curr != tail; curr = curr->next)
  78:src/../h/list.hpp ****         {
  79:src/../h/list.hpp ****             prev = curr;
  80:src/../h/list.hpp ****         }
  81:src/../h/list.hpp **** 
  82:src/../h/list.hpp ****         Elem *elem = tail;
  83:src/../h/list.hpp ****         if (prev) { prev->next = 0; }
  84:src/../h/list.hpp ****         else { head = 0; }
  85:src/../h/list.hpp ****         tail = prev;
  86:src/../h/list.hpp **** 
  87:src/../h/list.hpp ****         T *ret = elem->data;
  88:src/../h/list.hpp ****         delete elem;
  89:src/../h/list.hpp ****         return ret;
  90:src/../h/list.hpp ****     }
  91:src/../h/list.hpp **** 
  92:src/../h/list.hpp ****     T *peekLast()
  93:src/../h/list.hpp ****     {
  94:src/../h/list.hpp ****         if (!tail) { return 0; }
  95:src/../h/list.hpp ****         return tail->data;
  96:src/../h/list.hpp ****     }
  97:src/../h/list.hpp **** 
  98:src/../h/list.hpp ****     void addSleepingThread(T *data, int time){
  99:src/../h/list.hpp ****         Elem *elem = new Elem(data);
 695              		.loc 3 99 22
 696 03ec 13058001 		li	a0,24
 697 03f0 97000000 		call	_Znwm@plt
 697      E7800000 
 698              	.LVL55:
 699              	.LBB59:
 700              	.LBB60:
  21:src/../h/list.hpp ****     };
 701              		.loc 3 21 63
GAS LISTING /tmp/ccAfoz3S.s 			page 19


 702 03f8 23302501 		sd	s2,0(a0)
 703 03fc 23340500 		sd	zero,8(a0)
 704 0400 23280500 		sw	zero,16(a0)
 705              	.LVL56:
 706              	.LBE60:
 707              	.LBE59:
 100:src/../h/list.hpp ****         if(!head){
 708              		.loc 3 100 13
 709 0404 97070000 		la	a5,_ZN5Riscv15sleepingThreadsE
 709      83B70700 
 710 040c 83B70700 		ld	a5,0(a5)
 711              		.loc 3 100 9
 712 0410 63880700 		beqz	a5,.L50
 101:src/../h/list.hpp ****             head = elem;
 102:src/../h/list.hpp ****             elem->next = nullptr;
 103:src/../h/list.hpp ****             elem->sleepTime = time;
 104:src/../h/list.hpp ****             tail = head;
 105:src/../h/list.hpp ****             return;
 106:src/../h/list.hpp ****         }
 107:src/../h/list.hpp ****         int timeCount = 0;
 108:src/../h/list.hpp ****         Elem *next = head, *prev = nullptr;
 713              		.loc 3 108 29
 714 0414 93060000 		li	a3,0
 107:src/../h/list.hpp ****         Elem *next = head, *prev = nullptr;
 715              		.loc 3 107 13
 716 0418 13070000 		li	a4,0
 717 041c 6F000002 		j	.L43
 718              	.L50:
 101:src/../h/list.hpp ****             head = elem;
 719              		.loc 3 101 13
 720 0420 97070000 		la	a5,_ZN5Riscv15sleepingThreadsE
 720      83B70700 
 721 0428 23B0A700 		sd	a0,0(a5)
 103:src/../h/list.hpp ****             tail = head;
 722              		.loc 3 103 13
 723 042c 23289500 		sw	s1,16(a0)
 104:src/../h/list.hpp ****             return;
 724              		.loc 3 104 13
 725 0430 23B4A700 		sd	a0,8(a5)
 105:src/../h/list.hpp ****         }
 726              		.loc 3 105 13
 727 0434 6F000005 		j	.L44
 728              	.LVL57:
 729              	.L48:
 109:src/../h/list.hpp **** 
 110:src/../h/list.hpp ****         while(time >= timeCount + next->sleepTime){
 111:src/../h/list.hpp ****              timeCount += next->sleepTime;
 112:src/../h/list.hpp ****              prev= next;
 113:src/../h/list.hpp ****              next = next->next;
 730              		.loc 3 113 14
 731 0438 93070600 		mv	a5,a2
 732              	.LVL58:
 733              	.L43:
 110:src/../h/list.hpp ****              timeCount += next->sleepTime;
 734              		.loc 3 110 20 is_stmt 1
 110:src/../h/list.hpp ****              timeCount += next->sleepTime;
 735              		.loc 3 110 41 is_stmt 0
GAS LISTING /tmp/ccAfoz3S.s 			page 20


 736 043c 03A60701 		lw	a2,16(a5)
 737 0440 93050700 		mv	a1,a4
 110:src/../h/list.hpp ****              timeCount += next->sleepTime;
 738              		.loc 3 110 33
 739 0444 3B07E600 		addw	a4,a2,a4
 740              	.LVL59:
 110:src/../h/list.hpp ****              timeCount += next->sleepTime;
 741              		.loc 3 110 20
 742 0448 63CCE400 		blt	s1,a4,.L45
 743              	.LVL60:
 744              		.loc 3 113 14
 745 044c 03B68700 		ld	a2,8(a5)
 746              	.LVL61:
 112:src/../h/list.hpp ****              next = next->next;
 747              		.loc 3 112 14
 748 0450 93860700 		mv	a3,a5
 114:src/../h/list.hpp ****              if(next == nullptr)
 749              		.loc 3 114 14
 750 0454 E31206FE 		bnez	a2,.L48
 113:src/../h/list.hpp ****              if(next == nullptr)
 751              		.loc 3 113 14
 752 0458 93070600 		mv	a5,a2
 753              	.LVL62:
 111:src/../h/list.hpp ****              prev= next;
 754              		.loc 3 111 14
 755 045c 93050700 		mv	a1,a4
 756              	.LVL63:
 757              	.L45:
 758              	.LBB61:
 115:src/../h/list.hpp ****                  break;
 116:src/../h/list.hpp ****         }
 117:src/../h/list.hpp ****         if(!prev){
 759              		.loc 3 117 9
 760 0460 63840604 		beqz	a3,.L51
 761              	.LBB62:
 118:src/../h/list.hpp ****             head = elem;
 119:src/../h/list.hpp ****             head->next = next;
 120:src/../h/list.hpp ****             head->next->sleepTime -=  head->sleepTime;
 121:src/../h/list.hpp ****         }
 122:src/../h/list.hpp ****         else {
 123:src/../h/list.hpp ****             prev->next = elem;
 762              		.loc 3 123 13
 763 0464 23B4A600 		sd	a0,8(a3)
 124:src/../h/list.hpp ****             elem->next = next;
 764              		.loc 3 124 13
 765 0468 2334F500 		sd	a5,8(a0)
 125:src/../h/list.hpp ****             int diff = time - timeCount;
 766              		.loc 3 125 17
 767 046c BB84B440 		subw	s1,s1,a1
 768              	.LVL64:
 126:src/../h/list.hpp ****             elem->sleepTime = diff;
 769              		.loc 3 126 13
 770 0470 23289500 		sw	s1,16(a0)
 127:src/../h/list.hpp ****             if(next != nullptr)
 771              		.loc 3 127 13
 772 0474 63880700 		beqz	a5,.L44
 128:src/../h/list.hpp ****                 next->sleepTime -= diff;
GAS LISTING /tmp/ccAfoz3S.s 			page 21


 773              		.loc 3 128 33
 774 0478 03A70701 		lw	a4,16(a5)
 775 047c BB049740 		subw	s1,a4,s1
 776              	.LVL65:
 777              		.loc 3 128 17
 778 0480 23A89700 		sw	s1,16(a5)
 779              	.LVL66:
 780              	.L44:
 781              	.LBE62:
 782              	.LBE61:
 783              	.LBE58:
 784              	.LBE57:
  88:src/tcb.cpp   ****     dispatch();
 785              		.loc 1 88 5 is_stmt 1
 786              		.loc 1 88 13 is_stmt 0
 787 0484 97000000 		call	_ZN7_thread8dispatchEv
 787      E7800000 
 788              	.LVL67:
  89:src/tcb.cpp   ****     return 0; //TODO povratna vrednost!!!
 789              		.loc 1 89 5 is_stmt 1
  90:src/tcb.cpp   **** }
 790              		.loc 1 90 1 is_stmt 0
 791 048c 13050000 		li	a0,0
 792 0490 83308101 		ld	ra,24(sp)
 793              		.cfi_remember_state
 794              		.cfi_restore 1
 795 0494 03340101 		ld	s0,16(sp)
 796              		.cfi_restore 8
 797              		.cfi_def_cfa 2, 32
 798 0498 83348100 		ld	s1,8(sp)
 799              		.cfi_restore 9
 800 049c 03390100 		ld	s2,0(sp)
 801              		.cfi_restore 18
 802 04a0 13010102 		addi	sp,sp,32
 803              		.cfi_def_cfa_offset 0
 804 04a4 67800000 		jr	ra
 805              	.LVL68:
 806              	.L51:
 807              		.cfi_restore_state
 808              	.LBB65:
 809              	.LBB64:
 810              	.LBB63:
 118:src/../h/list.hpp ****             head->next = next;
 811              		.loc 3 118 13
 812 04a8 17070000 		la	a4,_ZN5Riscv15sleepingThreadsE
 812      03370700 
 813 04b0 2330A700 		sd	a0,0(a4)
 119:src/../h/list.hpp ****             head->next->sleepTime -=  head->sleepTime;
 814              		.loc 3 119 13
 815 04b4 2334F500 		sd	a5,8(a0)
 120:src/../h/list.hpp ****         }
 816              		.loc 3 120 45
 817 04b8 83260501 		lw	a3,16(a0)
 818              	.LVL69:
 120:src/../h/list.hpp ****         }
 819              		.loc 3 120 35
 820 04bc 03A70701 		lw	a4,16(a5)
GAS LISTING /tmp/ccAfoz3S.s 			page 22


 821 04c0 3B07D740 		subw	a4,a4,a3
 120:src/../h/list.hpp ****         }
 822              		.loc 3 120 13
 823 04c4 23A8E700 		sw	a4,16(a5)
 824 04c8 6FF0DFFB 		j	.L44
 825              	.LBE63:
 826              	.LBE64:
 827              	.LBE65:
 828              		.cfi_endproc
 829              	.LFE57:
 831              		.align	2
 832              		.globl	_ZN7_thread12consoleWriteEv
 834              	_ZN7_thread12consoleWriteEv:
 835              	.LFB58:
  91:src/tcb.cpp   **** 
  92:src/tcb.cpp   **** void _thread::consoleWrite() {
 836              		.loc 1 92 30 is_stmt 1
 837              		.cfi_startproc
 838 04cc 130101FF 		addi	sp,sp,-16
 839              		.cfi_def_cfa_offset 16
 840 04d0 23341100 		sd	ra,8(sp)
 841 04d4 23308100 		sd	s0,0(sp)
 842              		.cfi_offset 1, -8
 843              		.cfi_offset 8, -16
 844 04d8 13040101 		addi	s0,sp,16
 845              		.cfi_def_cfa 8, 0
 846              	.L53:
  93:src/tcb.cpp   ****     {
 847              		.loc 1 93 5
  94:src/tcb.cpp   ****         while(true){
 848              		.loc 1 94 9
 849              	.LBB66:
  95:src/tcb.cpp   ****             char c = Riscv::buff1.take();
 850              		.loc 1 95 13
 851              		.loc 1 95 39 is_stmt 0
 852 04dc 17050000 		la	a0,_ZN5Riscv5buff1E
 852      03350500 
 853 04e4 97000000 		call	_ZN14KeyboardBuffer4takeEv@plt
 853      E7800000 
 854              	.LVL70:
  96:src/tcb.cpp   ****             if((*((char*)CONSOLE_STATUS) & CONSOLE_TX_STATUS_BIT) && (Riscv::buff1.getCount() > 0))
 855              		.loc 1 96 13 is_stmt 1
 856              		.loc 1 96 17 is_stmt 0
 857 04ec 97070000 		la	a5,CONSOLE_STATUS
 857      83B70700 
 858 04f4 83B70700 		ld	a5,0(a5)
 859 04f8 83C70700 		lbu	a5,0(a5)
 860              		.loc 1 96 67
 861 04fc 93F70702 		andi	a5,a5,32
 862 0500 E38E07FC 		beqz	a5,.L53
 863              	.LVL71:
 864              	.LBB67:
 865              	.LBB68:
 866              		.file 4 "src/../h/_buffer.hpp"
   1:src/../h/_buffer.hpp **** //
   2:src/../h/_buffer.hpp **** // Created by os on 9/10/22.
   3:src/../h/_buffer.hpp **** //
GAS LISTING /tmp/ccAfoz3S.s 			page 23


   4:src/../h/_buffer.hpp **** 
   5:src/../h/_buffer.hpp **** #ifndef PROJECT_BASE__BUFFER_HPP
   6:src/../h/_buffer.hpp **** #define PROJECT_BASE__BUFFER_HPP
   7:src/../h/_buffer.hpp **** 
   8:src/../h/_buffer.hpp **** #include "_sem.hpp"
   9:src/../h/_buffer.hpp **** 
  10:src/../h/_buffer.hpp **** class KeyboardBuffer {
  11:src/../h/_buffer.hpp **** public:
  12:src/../h/_buffer.hpp ****     KeyboardBuffer() : head(0),tail(0),count(0) { _sem::createSem(&itemAvailable, 0);}
  13:src/../h/_buffer.hpp ****     char take ();
  14:src/../h/_buffer.hpp ****     void append (char c);
  15:src/../h/_buffer.hpp ****     _sem *itemAvailable;
  16:src/../h/_buffer.hpp ****     uint64 getCount() { return count; }
 867              		.loc 4 16 25 is_stmt 1
 868              		.loc 4 16 32 is_stmt 0
 869 0504 97070000 		la	a5,_ZN5Riscv5buff1E
 869      83B70700 
 870 050c 83B78711 		ld	a5,280(a5)
 871              	.LVL72:
 872              	.LBE68:
 873              	.LBE67:
 874              		.loc 1 96 67
 875 0510 E38607FC 		beqz	a5,.L53
  97:src/tcb.cpp   ****                 *((char*)CONSOLE_TX_DATA) = c;
 876              		.loc 1 97 17 is_stmt 1
 877 0514 97070000 		la	a5,CONSOLE_TX_DATA
 877      83B70700 
 878 051c 83B70700 		ld	a5,0(a5)
 879              		.loc 1 97 43 is_stmt 0
 880 0520 2380A700 		sb	a0,0(a5)
 881 0524 6FF09FFB 		j	.L53
 882              	.LBE66:
 883              		.cfi_endproc
 884              	.LFE58:
 886              		.globl	_ZN7_thread16timeSliceCounterE
 887              		.globl	_ZN7_thread7runningE
 888              		.bss
 889              		.align	3
 890              		.set	.LANCHOR0,. + 0
 893              	_ZN7_thread7runningE:
 894 0000 00000000 		.zero	8
 894      00000000 
 897              	_ZN7_thread16timeSliceCounterE:
 898 0008 00000000 		.zero	8
 898      00000000 
 899              		.text
 900              	.Letext0:
 901              		.file 5 "src/../h/../lib/hw.h"
 902              		.file 6 "src/../h/syscall_c.h"
 903              		.file 7 "src/../h/_sem.hpp"
 904              		.file 8 "src/../h/scheduler.hpp"
 905              		.file 9 "src/../h/riscv.hpp"
 906              		.file 10 "src/../h/../h/print.hpp"
 5224              		.align	3
 5227              	DW.ref.__gxx_personality_v0:
 5228 0000 00000000 		.dword	__gxx_personality_v0
 5228      00000000 
GAS LISTING /tmp/ccAfoz3S.s 			page 24


 5229              		.ident	"GCC: (Ubuntu 9.4.0-1ubuntu1~20.04) 9.4.0"
 5230              		.section	.note.GNU-stack,"",@progbits
GAS LISTING /tmp/ccAfoz3S.s 			page 25


DEFINED SYMBOLS
                            *ABS*:0000000000000000 tcb.cpp
     /tmp/ccAfoz3S.s:9      .text:0000000000000000 _ZN7_thread8setSleepEv
     /tmp/ccAfoz3S.s:13     .text:0000000000000000 .L0 
     /tmp/ccAfoz3S.s:15     .text:0000000000000000 .L0 
     /tmp/ccAfoz3S.s:16     .text:0000000000000004 .L0 
     /tmp/ccAfoz3S.s:18     .text:0000000000000008 .L0 
     /tmp/ccAfoz3S.s:20     .text:000000000000000c .L0 
     /tmp/ccAfoz3S.s:22     .text:000000000000000c .L0 
     /tmp/ccAfoz3S.s:23     .text:000000000000000c .L0 
     /tmp/ccAfoz3S.s:25     .text:0000000000000010 .L0 
     /tmp/ccAfoz3S.s:27     .text:0000000000000014 .L0 
     /tmp/ccAfoz3S.s:28     .text:0000000000000014 .L0 
     /tmp/ccAfoz3S.s:32     .text:000000000000001c .L0 
     /tmp/ccAfoz3S.s:33     .text:0000000000000020 .L0 
     /tmp/ccAfoz3S.s:34     .text:0000000000000020 .L0 
     /tmp/ccAfoz3S.s:35     .text:0000000000000020 .L0 
     /tmp/ccAfoz3S.s:37     .text:0000000000000024 .L0 
     /tmp/ccAfoz3S.s:40     .text:0000000000000028 .L0 
     /tmp/ccAfoz3S.s:42     .text:0000000000000028 .L0 
     /tmp/ccAfoz3S.s:43     .text:0000000000000028 .L0 
     /tmp/ccAfoz3S.s:45     .text:000000000000002c .L0 
     /tmp/ccAfoz3S.s:46     .text:0000000000000030 .L0 
     /tmp/ccAfoz3S.s:52     .text:0000000000000030 _ZN7_thread12createThreadEPFvvE
     /tmp/ccAfoz3S.s:55     .text:0000000000000030 .L0 
     /tmp/ccAfoz3S.s:5227   .data.rel.local.DW.ref.__gxx_personality_v0:0000000000000000 DW.ref.__gxx_personality_v0
     /tmp/ccAfoz3S.s:59     .text:0000000000000030 .L0 
     /tmp/ccAfoz3S.s:60     .text:0000000000000034 .L0 
     /tmp/ccAfoz3S.s:65     .text:0000000000000044 .L0 
     /tmp/ccAfoz3S.s:66     .text:0000000000000044 .L0 
     /tmp/ccAfoz3S.s:67     .text:0000000000000044 .L0 
     /tmp/ccAfoz3S.s:68     .text:0000000000000044 .L0 
     /tmp/ccAfoz3S.s:70     .text:0000000000000048 .L0 
     /tmp/ccAfoz3S.s:73     .text:000000000000004c .L0 
     /tmp/ccAfoz3S.s:74     .text:000000000000004c .L0 
     /tmp/ccAfoz3S.s:86     .text:000000000000005c .L0 
     /tmp/ccAfoz3S.s:88     .text:0000000000000060 .L0 
     /tmp/ccAfoz3S.s:90     .text:0000000000000064 .L0 
     /tmp/ccAfoz3S.s:97     .text:0000000000000074 .L0 
     /tmp/ccAfoz3S.s:100    .text:0000000000000078 .L0 
     /tmp/ccAfoz3S.s:386    .text:0000000000000224 _ZN7_thread13threadWrapperEv
     /tmp/ccAfoz3S.s:104    .text:0000000000000088 .L0 
     /tmp/ccAfoz3S.s:106    .text:000000000000008c .L0 
     /tmp/ccAfoz3S.s:110    .text:0000000000000094 .L0 
     /tmp/ccAfoz3S.s:119    .text:00000000000000b4 .L0 
     /tmp/ccAfoz3S.s:121    .text:00000000000000b8 .L0 
     /tmp/ccAfoz3S.s:122    .text:00000000000000b8 .L0 
     /tmp/ccAfoz3S.s:129    .text:00000000000000c8 .L0 
     /tmp/ccAfoz3S.s:137    .text:00000000000000d4 .L0 
     /tmp/ccAfoz3S.s:147    .text:00000000000000ec .L0 
     /tmp/ccAfoz3S.s:149    .text:00000000000000f4 .L0 
     /tmp/ccAfoz3S.s:151    .text:00000000000000f8 .L0 
     /tmp/ccAfoz3S.s:152    .text:00000000000000f8 .L0 
     /tmp/ccAfoz3S.s:154    .text:00000000000000fc .L0 
     /tmp/ccAfoz3S.s:157    .text:0000000000000100 .L0 
     /tmp/ccAfoz3S.s:160    .text:0000000000000104 .L0 
     /tmp/ccAfoz3S.s:162    .text:0000000000000108 .L0 
GAS LISTING /tmp/ccAfoz3S.s 			page 26


     /tmp/ccAfoz3S.s:188    .text:0000000000000108 _ZN7_thread12createThreadEPPS_PFvvEPvS4_
     /tmp/ccAfoz3S.s:191    .text:0000000000000108 .L0 
     /tmp/ccAfoz3S.s:195    .text:0000000000000108 .L0 
     /tmp/ccAfoz3S.s:196    .text:000000000000010c .L0 
     /tmp/ccAfoz3S.s:204    .text:0000000000000128 .L0 
     /tmp/ccAfoz3S.s:205    .text:0000000000000128 .L0 
     /tmp/ccAfoz3S.s:206    .text:0000000000000128 .L0 
     /tmp/ccAfoz3S.s:207    .text:0000000000000128 .L0 
     /tmp/ccAfoz3S.s:208    .text:0000000000000128 .L0 
     /tmp/ccAfoz3S.s:209    .text:0000000000000128 .L0 
     /tmp/ccAfoz3S.s:210    .text:0000000000000128 .L0 
     /tmp/ccAfoz3S.s:212    .text:000000000000012c .L0 
     /tmp/ccAfoz3S.s:218    .text:000000000000013c .L0 
     /tmp/ccAfoz3S.s:219    .text:000000000000013c .L0 
     /tmp/ccAfoz3S.s:230    .text:000000000000014c .L0 
     /tmp/ccAfoz3S.s:232    .text:0000000000000150 .L0 
     /tmp/ccAfoz3S.s:236    .text:0000000000000154 .L0 
     /tmp/ccAfoz3S.s:240    .text:0000000000000164 .L0 
     /tmp/ccAfoz3S.s:242    .text:0000000000000168 .L0 
     /tmp/ccAfoz3S.s:246    .text:0000000000000170 .L0 
     /tmp/ccAfoz3S.s:255    .text:0000000000000190 .L0 
     /tmp/ccAfoz3S.s:257    .text:0000000000000194 .L0 
     /tmp/ccAfoz3S.s:258    .text:0000000000000194 .L0 
     /tmp/ccAfoz3S.s:267    .text:00000000000001a4 .L0 
     /tmp/ccAfoz3S.s:272    .text:00000000000001ac .L0 
     /tmp/ccAfoz3S.s:279    .text:00000000000001b4 .L0 
     /tmp/ccAfoz3S.s:281    .text:00000000000001b8 .L0 
     /tmp/ccAfoz3S.s:283    .text:00000000000001bc .L0 
     /tmp/ccAfoz3S.s:286    .text:00000000000001c0 .L0 
     /tmp/ccAfoz3S.s:287    .text:00000000000001c4 .L0 
     /tmp/ccAfoz3S.s:288    .text:00000000000001c4 .L0 
     /tmp/ccAfoz3S.s:290    .text:00000000000001c8 .L0 
     /tmp/ccAfoz3S.s:291    .text:00000000000001c8 .L0 
     /tmp/ccAfoz3S.s:293    .text:00000000000001cc .L0 
     /tmp/ccAfoz3S.s:295    .text:00000000000001d0 .L0 
     /tmp/ccAfoz3S.s:297    .text:00000000000001d4 .L0 
     /tmp/ccAfoz3S.s:300    .text:00000000000001d8 .L0 
     /tmp/ccAfoz3S.s:303    .text:00000000000001dc .L0 
     /tmp/ccAfoz3S.s:306    .text:00000000000001e0 .L0 
     /tmp/ccAfoz3S.s:310    .text:00000000000001e4 .L0 
     /tmp/ccAfoz3S.s:312    .text:00000000000001e4 .L0 
     /tmp/ccAfoz3S.s:318    .text:00000000000001f0 .L0 
     /tmp/ccAfoz3S.s:326    .text:0000000000000208 .L0 
     /tmp/ccAfoz3S.s:351    .text:0000000000000208 _ZN7_thread5yieldEv
     /tmp/ccAfoz3S.s:354    .text:0000000000000208 .L0 
     /tmp/ccAfoz3S.s:355    .text:0000000000000208 .L0 
     /tmp/ccAfoz3S.s:356    .text:000000000000020c .L0 
     /tmp/ccAfoz3S.s:358    .text:0000000000000210 .L0 
     /tmp/ccAfoz3S.s:360    .text:0000000000000214 .L0 
     /tmp/ccAfoz3S.s:362    .text:0000000000000214 .L0 
         src/tcb.cpp:37     .text:0000000000000214 .L0 
     /tmp/ccAfoz3S.s:369    .text:0000000000000218 .L0 
     /tmp/ccAfoz3S.s:370    .text:000000000000021c .L0 
     /tmp/ccAfoz3S.s:371    .text:000000000000021c .L0 
     /tmp/ccAfoz3S.s:373    .text:0000000000000220 .L0 
     /tmp/ccAfoz3S.s:375    .text:0000000000000224 .L0 
     /tmp/ccAfoz3S.s:389    .text:0000000000000224 .L0 
GAS LISTING /tmp/ccAfoz3S.s 			page 27


     /tmp/ccAfoz3S.s:390    .text:0000000000000224 .L0 
     /tmp/ccAfoz3S.s:391    .text:0000000000000228 .L0 
     /tmp/ccAfoz3S.s:395    .text:0000000000000234 .L0 
     /tmp/ccAfoz3S.s:396    .text:0000000000000234 .L0 
     /tmp/ccAfoz3S.s:397    .text:0000000000000234 .L0 
     /tmp/ccAfoz3S.s:399    .text:0000000000000238 .L0 
     /tmp/ccAfoz3S.s:401    .text:0000000000000238 .L0 
     /tmp/ccAfoz3S.s:402    .text:0000000000000238 .L0 
     /tmp/ccAfoz3S.s:405    .text:0000000000000240 .L0 
     /tmp/ccAfoz3S.s:406    .text:0000000000000240 .L0 
     /tmp/ccAfoz3S.s:410    .text:0000000000000250 .L0 
     /tmp/ccAfoz3S.s:413    .text:0000000000000254 .L0 
     /tmp/ccAfoz3S.s:414    .text:0000000000000254 .L0 
     /tmp/ccAfoz3S.s:419    .text:0000000000000258 .L0 
     /tmp/ccAfoz3S.s:420    .text:0000000000000258 .L0 
     /tmp/ccAfoz3S.s:426    .text:0000000000000260 .L0 
     /tmp/ccAfoz3S.s:427    .text:0000000000000260 .L0 
     /tmp/ccAfoz3S.s:431    .text:0000000000000270 .L0 
     /tmp/ccAfoz3S.s:432    .text:0000000000000270 .L0 
     /tmp/ccAfoz3S.s:435    .text:0000000000000278 .L0 
     /tmp/ccAfoz3S.s:436    .text:000000000000027c .L0 
     /tmp/ccAfoz3S.s:438    .text:0000000000000280 .L0 
     /tmp/ccAfoz3S.s:439    .text:0000000000000280 .L0 
     /tmp/ccAfoz3S.s:441    .text:0000000000000284 .L0 
     /tmp/ccAfoz3S.s:443    .text:0000000000000288 .L0 
     /tmp/ccAfoz3S.s:445    .text:000000000000028c .L0 
     /tmp/ccAfoz3S.s:451    .text:000000000000028c _ZN7_thread8dispatchEv
     /tmp/ccAfoz3S.s:454    .text:000000000000028c .L0 
     /tmp/ccAfoz3S.s:455    .text:000000000000028c .L0 
     /tmp/ccAfoz3S.s:456    .text:0000000000000290 .L0 
     /tmp/ccAfoz3S.s:461    .text:00000000000002a0 .L0 
     /tmp/ccAfoz3S.s:462    .text:00000000000002a0 .L0 
     /tmp/ccAfoz3S.s:463    .text:00000000000002a0 .L0 
     /tmp/ccAfoz3S.s:464    .text:00000000000002a0 .L0 
     /tmp/ccAfoz3S.s:466    .text:00000000000002a4 .L0 
     /tmp/ccAfoz3S.s:468    .text:00000000000002a4 .L0 
     /tmp/ccAfoz3S.s:469    .text:00000000000002a4 .L0 
     /tmp/ccAfoz3S.s:474    .text:00000000000002ac .L0 
     /tmp/ccAfoz3S.s:475    .text:00000000000002ac .L0 
     /tmp/ccAfoz3S.s:476    .text:00000000000002ac .L0 
     /tmp/ccAfoz3S.s:481    .text:00000000000002b0 .L0 
     /tmp/ccAfoz3S.s:483    .text:00000000000002b4 .L0 
     /tmp/ccAfoz3S.s:485    .text:00000000000002b8 .L0 
     /tmp/ccAfoz3S.s:487    .text:00000000000002bc .L0 
     /tmp/ccAfoz3S.s:489    .text:00000000000002c0 .L0 
     /tmp/ccAfoz3S.s:493    .text:00000000000002c4 .L0 
     /tmp/ccAfoz3S.s:494    .text:00000000000002c4 .L0 
     /tmp/ccAfoz3S.s:495    .text:00000000000002c4 .L0 
     /tmp/ccAfoz3S.s:497    .text:00000000000002c8 .L0 
     /tmp/ccAfoz3S.s:499    .text:00000000000002cc .L0 
     /tmp/ccAfoz3S.s:501    .text:00000000000002d0 .L0 
     /tmp/ccAfoz3S.s:503    .text:00000000000002d4 .L0 
     /tmp/ccAfoz3S.s:505    .text:00000000000002d8 .L0 
     /tmp/ccAfoz3S.s:506    .text:00000000000002d8 .L0 
     /tmp/ccAfoz3S.s:508    .text:00000000000002dc .L0 
     /tmp/ccAfoz3S.s:510    .text:00000000000002e0 .L0 
     /tmp/ccAfoz3S.s:511    .text:00000000000002e0 .L0 
GAS LISTING /tmp/ccAfoz3S.s 			page 28


     /tmp/ccAfoz3S.s:519    .text:00000000000002ec .L0 
     /tmp/ccAfoz3S.s:526    .text:00000000000002f8 .L0 
     /tmp/ccAfoz3S.s:533    .text:0000000000000304 .L0 
     /tmp/ccAfoz3S.s:535    .text:0000000000000308 .L0 
     /tmp/ccAfoz3S.s:537    .text:000000000000030c .L0 
     /tmp/ccAfoz3S.s:539    .text:0000000000000310 .L0 
     /tmp/ccAfoz3S.s:546    .text:0000000000000318 .L0 
     /tmp/ccAfoz3S.s:547    .text:0000000000000318 .L0 
     /tmp/ccAfoz3S.s:552    .text:0000000000000324 .L0 
     /tmp/ccAfoz3S.s:553    .text:0000000000000324 .L0 
     /tmp/ccAfoz3S.s:556    .text:000000000000032c .L0 
     /tmp/ccAfoz3S.s:558    .text:0000000000000334 .L0 
     /tmp/ccAfoz3S.s:559    .text:0000000000000334 .L0 
     /tmp/ccAfoz3S.s:564    .text:0000000000000344 .L0 
     /tmp/ccAfoz3S.s:565    .text:0000000000000348 .L0 
     /tmp/ccAfoz3S.s:566    .text:0000000000000348 .L0 
     /tmp/ccAfoz3S.s:568    .text:000000000000034c .L0 
     /tmp/ccAfoz3S.s:569    .text:000000000000034c .L0 
     /tmp/ccAfoz3S.s:571    .text:0000000000000350 .L0 
     /tmp/ccAfoz3S.s:574    .text:0000000000000354 .L0 
     /tmp/ccAfoz3S.s:576    .text:0000000000000358 .L0 
     /tmp/ccAfoz3S.s:580    .text:000000000000035c .L0 
     /tmp/ccAfoz3S.s:584    .text:000000000000035c .L0 
     /tmp/ccAfoz3S.s:587    .text:0000000000000364 .L0 
     /tmp/ccAfoz3S.s:590    .text:0000000000000368 .L0 
     /tmp/ccAfoz3S.s:596    .text:0000000000000368 _ZN7_thread10threadStopEv
     /tmp/ccAfoz3S.s:599    .text:0000000000000368 .L0 
     /tmp/ccAfoz3S.s:600    .text:0000000000000368 .L0 
     /tmp/ccAfoz3S.s:601    .text:000000000000036c .L0 
     /tmp/ccAfoz3S.s:603    .text:0000000000000370 .L0 
     /tmp/ccAfoz3S.s:605    .text:0000000000000374 .L0 
     /tmp/ccAfoz3S.s:610    .text:0000000000000374 .L0 
     /tmp/ccAfoz3S.s:611    .text:0000000000000374 .L0 
     /tmp/ccAfoz3S.s:612    .text:0000000000000374 .L0 
     /tmp/ccAfoz3S.s:619    .text:0000000000000384 .L0 
     /tmp/ccAfoz3S.s:620    .text:0000000000000384 .L0 
     /tmp/ccAfoz3S.s:622    .text:000000000000038c .L0 
     /tmp/ccAfoz3S.s:623    .text:000000000000038c .L0 
     /tmp/ccAfoz3S.s:625    .text:0000000000000390 .L0 
     /tmp/ccAfoz3S.s:627    .text:0000000000000394 .L0 
     /tmp/ccAfoz3S.s:633    .text:0000000000000394 _ZN7_thread5dblckEv
     /tmp/ccAfoz3S.s:636    .text:0000000000000394 .L0 
     /tmp/ccAfoz3S.s:638    .text:0000000000000394 .L0 
     /tmp/ccAfoz3S.s:639    .text:0000000000000398 .L0 
     /tmp/ccAfoz3S.s:641    .text:000000000000039c .L0 
     /tmp/ccAfoz3S.s:643    .text:00000000000003a0 .L0 
     /tmp/ccAfoz3S.s:645    .text:00000000000003a0 .L0 
     /tmp/ccAfoz3S.s:646    .text:00000000000003a0 .L0 
     /tmp/ccAfoz3S.s:648    .text:00000000000003a4 .L0 
     /tmp/ccAfoz3S.s:649    .text:00000000000003a4 .L0 
     /tmp/ccAfoz3S.s:651    .text:00000000000003a8 .L0 
     /tmp/ccAfoz3S.s:652    .text:00000000000003ac .L0 
     /tmp/ccAfoz3S.s:653    .text:00000000000003ac .L0 
     /tmp/ccAfoz3S.s:655    .text:00000000000003b0 .L0 
     /tmp/ccAfoz3S.s:657    .text:00000000000003b4 .L0 
     /tmp/ccAfoz3S.s:663    .text:00000000000003b4 _ZN7_thread5sleepEm
     /tmp/ccAfoz3S.s:666    .text:00000000000003b4 .L0 
GAS LISTING /tmp/ccAfoz3S.s 			page 29


     /tmp/ccAfoz3S.s:668    .text:00000000000003b4 .L0 
     /tmp/ccAfoz3S.s:669    .text:00000000000003b8 .L0 
     /tmp/ccAfoz3S.s:674    .text:00000000000003c8 .L0 
     /tmp/ccAfoz3S.s:675    .text:00000000000003c8 .L0 
     /tmp/ccAfoz3S.s:676    .text:00000000000003c8 .L0 
     /tmp/ccAfoz3S.s:677    .text:00000000000003c8 .L0 
     /tmp/ccAfoz3S.s:679    .text:00000000000003cc .L0 
     /tmp/ccAfoz3S.s:682    .text:00000000000003d0 .L0 
     /tmp/ccAfoz3S.s:683    .text:00000000000003d0 .L0 
     /tmp/ccAfoz3S.s:689    .text:00000000000003e4 .L0 
     /tmp/ccAfoz3S.s:690    .text:00000000000003e4 .L0 
     /tmp/ccAfoz3S.s:696    .text:00000000000003ec .L0 
     /tmp/ccAfoz3S.s:702    .text:00000000000003f8 .L0 
     /tmp/ccAfoz3S.s:709    .text:0000000000000404 .L0 
     /tmp/ccAfoz3S.s:712    .text:0000000000000410 .L0 
     /tmp/ccAfoz3S.s:714    .text:0000000000000414 .L0 
     /tmp/ccAfoz3S.s:716    .text:0000000000000418 .L0 
     /tmp/ccAfoz3S.s:720    .text:0000000000000420 .L0 
     /tmp/ccAfoz3S.s:723    .text:000000000000042c .L0 
     /tmp/ccAfoz3S.s:725    .text:0000000000000430 .L0 
     /tmp/ccAfoz3S.s:727    .text:0000000000000434 .L0 
     /tmp/ccAfoz3S.s:731    .text:0000000000000438 .L0 
     /tmp/ccAfoz3S.s:735    .text:000000000000043c .L0 
     /tmp/ccAfoz3S.s:736    .text:000000000000043c .L0 
     /tmp/ccAfoz3S.s:739    .text:0000000000000444 .L0 
     /tmp/ccAfoz3S.s:742    .text:0000000000000448 .L0 
     /tmp/ccAfoz3S.s:745    .text:000000000000044c .L0 
     /tmp/ccAfoz3S.s:748    .text:0000000000000450 .L0 
     /tmp/ccAfoz3S.s:750    .text:0000000000000454 .L0 
     /tmp/ccAfoz3S.s:752    .text:0000000000000458 .L0 
     /tmp/ccAfoz3S.s:755    .text:000000000000045c .L0 
     /tmp/ccAfoz3S.s:760    .text:0000000000000460 .L0 
     /tmp/ccAfoz3S.s:763    .text:0000000000000464 .L0 
     /tmp/ccAfoz3S.s:765    .text:0000000000000468 .L0 
     /tmp/ccAfoz3S.s:767    .text:000000000000046c .L0 
     /tmp/ccAfoz3S.s:770    .text:0000000000000470 .L0 
     /tmp/ccAfoz3S.s:772    .text:0000000000000474 .L0 
     /tmp/ccAfoz3S.s:774    .text:0000000000000478 .L0 
     /tmp/ccAfoz3S.s:778    .text:0000000000000480 .L0 
     /tmp/ccAfoz3S.s:786    .text:0000000000000484 .L0 
     /tmp/ccAfoz3S.s:787    .text:0000000000000484 .L0 
     /tmp/ccAfoz3S.s:790    .text:000000000000048c .L0 
     /tmp/ccAfoz3S.s:791    .text:000000000000048c .L0 
     /tmp/ccAfoz3S.s:793    .text:0000000000000494 .L0 
     /tmp/ccAfoz3S.s:794    .text:0000000000000494 .L0 
     /tmp/ccAfoz3S.s:796    .text:0000000000000498 .L0 
     /tmp/ccAfoz3S.s:797    .text:0000000000000498 .L0 
     /tmp/ccAfoz3S.s:799    .text:000000000000049c .L0 
     /tmp/ccAfoz3S.s:801    .text:00000000000004a0 .L0 
     /tmp/ccAfoz3S.s:803    .text:00000000000004a4 .L0 
     /tmp/ccAfoz3S.s:807    .text:00000000000004a8 .L0 
     /tmp/ccAfoz3S.s:812    .text:00000000000004a8 .L0 
     /tmp/ccAfoz3S.s:815    .text:00000000000004b4 .L0 
     /tmp/ccAfoz3S.s:817    .text:00000000000004b8 .L0 
     /tmp/ccAfoz3S.s:820    .text:00000000000004bc .L0 
     /tmp/ccAfoz3S.s:823    .text:00000000000004c4 .L0 
     /tmp/ccAfoz3S.s:828    .text:00000000000004cc .L0 
GAS LISTING /tmp/ccAfoz3S.s 			page 30


     /tmp/ccAfoz3S.s:834    .text:00000000000004cc _ZN7_thread12consoleWriteEv
     /tmp/ccAfoz3S.s:837    .text:00000000000004cc .L0 
     /tmp/ccAfoz3S.s:838    .text:00000000000004cc .L0 
     /tmp/ccAfoz3S.s:839    .text:00000000000004d0 .L0 
     /tmp/ccAfoz3S.s:842    .text:00000000000004d8 .L0 
     /tmp/ccAfoz3S.s:843    .text:00000000000004d8 .L0 
     /tmp/ccAfoz3S.s:845    .text:00000000000004dc .L0 
     /tmp/ccAfoz3S.s:848    .text:00000000000004dc .L0 
     /tmp/ccAfoz3S.s:850    .text:00000000000004dc .L0 
     /tmp/ccAfoz3S.s:851    .text:00000000000004dc .L0 
     /tmp/ccAfoz3S.s:852    .text:00000000000004dc .L0 
     /tmp/ccAfoz3S.s:856    .text:00000000000004ec .L0 
     /tmp/ccAfoz3S.s:857    .text:00000000000004ec .L0 
     /tmp/ccAfoz3S.s:861    .text:00000000000004fc .L0 
     /tmp/ccAfoz3S.s:868    .text:0000000000000504 .L0 
     /tmp/ccAfoz3S.s:869    .text:0000000000000504 .L0 
     /tmp/ccAfoz3S.s:875    .text:0000000000000510 .L0 
     /tmp/ccAfoz3S.s:877    .text:0000000000000514 .L0 
     /tmp/ccAfoz3S.s:880    .text:0000000000000520 .L0 
     /tmp/ccAfoz3S.s:883    .text:0000000000000528 .L0 
     /tmp/ccAfoz3S.s:897    .bss:0000000000000008 _ZN7_thread16timeSliceCounterE
     /tmp/ccAfoz3S.s:893    .bss:0000000000000000 _ZN7_thread7runningE
     /tmp/ccAfoz3S.s:890    .bss:0000000000000000 .LANCHOR0
     /tmp/ccAfoz3S.s:907    .text:0000000000000528 .L0 
     /tmp/ccAfoz3S.s:101    .text:000000000000007c .L0 
     /tmp/ccAfoz3S.s:237    .text:0000000000000158 .L0 
     /tmp/ccAfoz3S.s:406    .text:0000000000000240 .L0 
     /tmp/ccAfoz3S.s:380    .rodata.str1.8:0000000000000000 .LC0
     /tmp/ccAfoz3S.s:427    .text:0000000000000260 .L0 
     /tmp/ccAfoz3S.s:469    .text:00000000000002a4 .L0 
     /tmp/ccAfoz3S.s:556    .text:000000000000032c .L0 
     /tmp/ccAfoz3S.s:612    .text:0000000000000374 .L0 
     /tmp/ccAfoz3S.s:683    .text:00000000000003d0 .L0 
     /tmp/ccAfoz3S.s:709    .text:0000000000000404 .L0 
     /tmp/ccAfoz3S.s:720    .text:0000000000000420 .L0 
     /tmp/ccAfoz3S.s:812    .text:00000000000004a8 .L0 
     /tmp/ccAfoz3S.s:852    .text:00000000000004dc .L0 
     /tmp/ccAfoz3S.s:857    .text:00000000000004ec .L0 
     /tmp/ccAfoz3S.s:869    .text:0000000000000504 .L0 
     /tmp/ccAfoz3S.s:877    .text:0000000000000514 .L0 
     /tmp/ccAfoz3S.s:39     .text:0000000000000028 .L2
     /tmp/ccAfoz3S.s:30     .text:000000000000001c .L1
     /tmp/ccAfoz3S.s:95     .text:0000000000000074 .L10
     /tmp/ccAfoz3S.s:98     .text:0000000000000078 .L6
     /tmp/ccAfoz3S.s:127    .text:00000000000000c8 .L11
     /tmp/ccAfoz3S.s:145    .text:00000000000000ec .L5
     /tmp/ccAfoz3S.s:108    .text:0000000000000094 .L7
     /tmp/ccAfoz3S.s:265    .text:00000000000001a4 .L26
     /tmp/ccAfoz3S.s:270    .text:00000000000001ac .L21
     /tmp/ccAfoz3S.s:274    .text:00000000000001b4 .L17
     /tmp/ccAfoz3S.s:234    .text:0000000000000154 .L15
     /tmp/ccAfoz3S.s:244    .text:0000000000000170 .L16
     /tmp/ccAfoz3S.s:309    .text:00000000000001e4 .L22
     /tmp/ccAfoz3S.s:284    .text:00000000000001c0 .L24
     /tmp/ccAfoz3S.s:490    .text:00000000000002c4 .L32
     /tmp/ccAfoz3S.s:542    .text:0000000000000318 .L37
     /tmp/ccAfoz3S.s:550    .text:0000000000000324 .L33
GAS LISTING /tmp/ccAfoz3S.s 			page 31


     /tmp/ccAfoz3S.s:579    .text:000000000000035c .L34
     /tmp/ccAfoz3S.s:718    .text:0000000000000420 .L50
     /tmp/ccAfoz3S.s:733    .text:000000000000043c .L43
     /tmp/ccAfoz3S.s:780    .text:0000000000000484 .L44
     /tmp/ccAfoz3S.s:757    .text:0000000000000460 .L45
     /tmp/ccAfoz3S.s:729    .text:0000000000000438 .L48
     /tmp/ccAfoz3S.s:806    .text:00000000000004a8 .L51
     /tmp/ccAfoz3S.s:846    .text:00000000000004dc .L53
     /tmp/ccAfoz3S.s:76     .text:0000000000000050 .LEHB0
     /tmp/ccAfoz3S.s:53     .text:0000000000000030 .LFB50
     /tmp/ccAfoz3S.s:79     .text:0000000000000058 .LEHE0
     /tmp/ccAfoz3S.s:91     .text:0000000000000068 .LEHB1
     /tmp/ccAfoz3S.s:125    .text:00000000000000c4 .LEHE1
     /tmp/ccAfoz3S.s:131    .text:00000000000000d0 .L12
     /tmp/ccAfoz3S.s:141    .text:00000000000000e4 .LEHB2
     /tmp/ccAfoz3S.s:144    .text:00000000000000ec .LEHE2
     /tmp/ccAfoz3S.s:221    .text:0000000000000140 .LEHB3
     /tmp/ccAfoz3S.s:189    .text:0000000000000108 .LFB51
     /tmp/ccAfoz3S.s:224    .text:0000000000000148 .LEHE3
     /tmp/ccAfoz3S.s:259    .text:0000000000000198 .LEHB4
     /tmp/ccAfoz3S.s:262    .text:00000000000001a0 .LEHE4
     /tmp/ccAfoz3S.s:315    .text:00000000000001ec .L23
     /tmp/ccAfoz3S.s:322    .text:0000000000000200 .LEHB5
     /tmp/ccAfoz3S.s:325    .text:0000000000000208 .LEHE5
     /tmp/ccAfoz3S.s:3018   .debug_abbrev:0000000000000000 .Ldebug_abbrev0
     /tmp/ccAfoz3S.s:5131   .debug_str:00000000000009d8 .LASF197
     /tmp/ccAfoz3S.s:4929   .debug_str:0000000000000406 .LASF198
     /tmp/ccAfoz3S.s:4903   .debug_str:00000000000002fe .LASF199
     /tmp/ccAfoz3S.s:5      .text:0000000000000000 .Ltext0
     /tmp/ccAfoz3S.s:900    .text:0000000000000528 .Letext0
     /tmp/ccAfoz3S.s:4805   .debug_line:0000000000000000 .Ldebug_line0
     /tmp/ccAfoz3S.s:4931   .debug_str:0000000000000412 .LASF0
     /tmp/ccAfoz3S.s:4967   .debug_str:0000000000000546 .LASF1
     /tmp/ccAfoz3S.s:5069   .debug_str:0000000000000842 .LASF2
     /tmp/ccAfoz3S.s:5079   .debug_str:0000000000000898 .LASF4
     /tmp/ccAfoz3S.s:4943   .debug_str:0000000000000453 .LASF3
     /tmp/ccAfoz3S.s:4815   .debug_str:0000000000000020 .LASF5
     /tmp/ccAfoz3S.s:5035   .debug_str:000000000000073d .LASF6
     /tmp/ccAfoz3S.s:5025   .debug_str:00000000000006de .LASF7
     /tmp/ccAfoz3S.s:4957   .debug_str:00000000000004f2 .LASF8
     /tmp/ccAfoz3S.s:4901   .debug_str:00000000000002ee .LASF9
     /tmp/ccAfoz3S.s:4909   .debug_str:0000000000000357 .LASF10
     /tmp/ccAfoz3S.s:4837   .debug_str:00000000000000bc .LASF11
     /tmp/ccAfoz3S.s:4887   .debug_str:0000000000000269 .LASF12
     /tmp/ccAfoz3S.s:4847   .debug_str:0000000000000117 .LASF13
     /tmp/ccAfoz3S.s:4835   .debug_str:00000000000000ac .LASF14
     /tmp/ccAfoz3S.s:5109   .debug_str:000000000000096c .LASF15
     /tmp/ccAfoz3S.s:4875   .debug_str:00000000000001f0 .LASF16
     /tmp/ccAfoz3S.s:5095   .debug_str:00000000000008f9 .LASF17
     /tmp/ccAfoz3S.s:5173   .debug_str:0000000000000bf0 .LASF18
     /tmp/ccAfoz3S.s:4823   .debug_str:000000000000005b .LASF42
     /tmp/ccAfoz3S.s:5119   .debug_str:000000000000099c .LASF85
     /tmp/ccAfoz3S.s:5111   .debug_str:0000000000000978 .LASF19
     /tmp/ccAfoz3S.s:4963   .debug_str:0000000000000531 .LASF21
     /tmp/ccAfoz3S.s:5121   .debug_str:00000000000009a4 .LASF23
     /tmp/ccAfoz3S.s:5103   .debug_str:0000000000000930 .LASF25
     /tmp/ccAfoz3S.s:4825   .debug_str:0000000000000063 .LASF20
GAS LISTING /tmp/ccAfoz3S.s 			page 32


     /tmp/ccAfoz3S.s:5167   .debug_str:0000000000000ba1 .LASF22
     /tmp/ccAfoz3S.s:4971   .debug_str:000000000000055f .LASF24
     /tmp/ccAfoz3S.s:4833   .debug_str:000000000000008f .LASF26
     /tmp/ccAfoz3S.s:5163   .debug_str:0000000000000b6c .LASF27
     /tmp/ccAfoz3S.s:5123   .debug_str:00000000000009af .LASF28
     /tmp/ccAfoz3S.s:5051   .debug_str:00000000000007aa .LASF29
     /tmp/ccAfoz3S.s:4871   .debug_str:00000000000001cb .LASF30
     /tmp/ccAfoz3S.s:4881   .debug_str:000000000000024c .LASF31
     /tmp/ccAfoz3S.s:5027   .debug_str:00000000000006f1 .LASF32
     /tmp/ccAfoz3S.s:5107   .debug_str:000000000000095f .LASF33
     /tmp/ccAfoz3S.s:4869   .debug_str:00000000000001ab .LASF34
     /tmp/ccAfoz3S.s:5021   .debug_str:00000000000006cd .LASF200
     /tmp/ccAfoz3S.s:4897   .debug_str:00000000000002b8 .LASF35
     /tmp/ccAfoz3S.s:4969   .debug_str:0000000000000559 .LASF36
     /tmp/ccAfoz3S.s:5003   .debug_str:000000000000063f .LASF38
     /tmp/ccAfoz3S.s:5129   .debug_str:00000000000009d0 .LASF126
     /tmp/ccAfoz3S.s:5041   .debug_str:0000000000000752 .LASF37
     /tmp/ccAfoz3S.s:4915   .debug_str:000000000000037f .LASF39
     /tmp/ccAfoz3S.s:4863   .debug_str:0000000000000197 .LASF40
     /tmp/ccAfoz3S.s:4855   .debug_str:000000000000014f .LASF41
     /tmp/ccAfoz3S.s:4923   .debug_str:00000000000003c7 .LASF43
     /tmp/ccAfoz3S.s:5197   .debug_str:0000000000000c90 .LASF44
     /tmp/ccAfoz3S.s:4811   .debug_str:000000000000000b .LASF45
     /tmp/ccAfoz3S.s:5207   .debug_str:0000000000000cf8 .LASF46
     /tmp/ccAfoz3S.s:5147   .debug_str:0000000000000ae7 .LASF47
     /tmp/ccAfoz3S.s:5139   .debug_str:0000000000000abd .LASF48
     /tmp/ccAfoz3S.s:5093   .debug_str:00000000000008f0 .LASF49
     /tmp/ccAfoz3S.s:5161   .debug_str:0000000000000b67 .LASF50
     /tmp/ccAfoz3S.s:5013   .debug_str:00000000000006a3 .LASF51
     /tmp/ccAfoz3S.s:5117   .debug_str:0000000000000993 .LASF52
     /tmp/ccAfoz3S.s:4987   .debug_str:00000000000005d7 .LASF53
     /tmp/ccAfoz3S.s:4827   .debug_str:000000000000006f .LASF170
     /tmp/ccAfoz3S.s:5053   .debug_str:00000000000007ba .LASF172
     /tmp/ccAfoz3S.s:4853   .debug_str:0000000000000141 .LASF83
     /tmp/ccAfoz3S.s:4945   .debug_str:0000000000000465 .LASF91
     /tmp/ccAfoz3S.s:5115   .debug_str:0000000000000988 .LASF54
     /tmp/ccAfoz3S.s:5183   .debug_str:0000000000000c26 .LASF55
     /tmp/ccAfoz3S.s:4819   .debug_str:0000000000000032 .LASF56
     /tmp/ccAfoz3S.s:4947   .debug_str:0000000000000491 .LASF57
     /tmp/ccAfoz3S.s:5085   .debug_str:00000000000008b9 .LASF81
     /tmp/ccAfoz3S.s:5077   .debug_str:000000000000088d .LASF58
     /tmp/ccAfoz3S.s:5191   .debug_str:0000000000000c73 .LASF59
     /tmp/ccAfoz3S.s:5193   .debug_str:0000000000000c7e .LASF60
     /tmp/ccAfoz3S.s:5125   .debug_str:00000000000009c6 .LASF61
     /tmp/ccAfoz3S.s:5091   .debug_str:00000000000008e6 .LASF62
     /tmp/ccAfoz3S.s:4959   .debug_str:0000000000000505 .LASF63
     /tmp/ccAfoz3S.s:4873   .debug_str:00000000000001ea .LASF64
     /tmp/ccAfoz3S.s:4899   .debug_str:00000000000002e1 .LASF65
     /tmp/ccAfoz3S.s:4865   .debug_str:00000000000001a0 .LASF66
     /tmp/ccAfoz3S.s:4997   .debug_str:0000000000000611 .LASF67
     /tmp/ccAfoz3S.s:5113   .debug_str:0000000000000981 .LASF68
     /tmp/ccAfoz3S.s:5097   .debug_str:000000000000090f .LASF69
     /tmp/ccAfoz3S.s:4921   .debug_str:00000000000003c1 .LASF70
     /tmp/ccAfoz3S.s:5137   .debug_str:0000000000000aac .LASF71
     /tmp/ccAfoz3S.s:5189   .debug_str:0000000000000c67 .LASF72
     /tmp/ccAfoz3S.s:5009   .debug_str:0000000000000672 .LASF73
     /tmp/ccAfoz3S.s:4829   .debug_str:000000000000007d .LASF74
GAS LISTING /tmp/ccAfoz3S.s 			page 33


     /tmp/ccAfoz3S.s:5017   .debug_str:00000000000006c0 .LASF75
     /tmp/ccAfoz3S.s:4883   .debug_str:0000000000000252 .LASF76
     /tmp/ccAfoz3S.s:5203   .debug_str:0000000000000ccc .LASF77
     /tmp/ccAfoz3S.s:5177   .debug_str:0000000000000c03 .LASF78
     /tmp/ccAfoz3S.s:5061   .debug_str:0000000000000812 .LASF79
     /tmp/ccAfoz3S.s:4951   .debug_str:00000000000004c1 .LASF80
     /tmp/ccAfoz3S.s:5089   .debug_str:00000000000008d5 .LASF82
     /tmp/ccAfoz3S.s:5201   .debug_str:0000000000000cb8 .LASF201
     /tmp/ccAfoz3S.s:4949   .debug_str:00000000000004a5 .LASF202
     /tmp/ccAfoz3S.s:5217   .debug_str:0000000000000d4c .LASF84
     /tmp/ccAfoz3S.s:4851   .debug_str:000000000000013c .LASF86
     /tmp/ccAfoz3S.s:4965   .debug_str:0000000000000541 .LASF87
     /tmp/ccAfoz3S.s:4839   .debug_str:00000000000000cb .LASF88
     /tmp/ccAfoz3S.s:5143   .debug_str:0000000000000ad7 .LASF89
     /tmp/ccAfoz3S.s:5205   .debug_str:0000000000000cd4 .LASF90
     /tmp/ccAfoz3S.s:5185   .debug_str:0000000000000c40 .LASF92
     /tmp/ccAfoz3S.s:5101   .debug_str:000000000000092b .LASF93
     /tmp/ccAfoz3S.s:4979   .debug_str:000000000000058c .LASF94
     /tmp/ccAfoz3S.s:4995   .debug_str:000000000000060c .LASF95
     /tmp/ccAfoz3S.s:5169   .debug_str:0000000000000bbc .LASF96
     /tmp/ccAfoz3S.s:5045   .debug_str:0000000000000772 .LASF97
     /tmp/ccAfoz3S.s:5071   .debug_str:0000000000000850 .LASF203
     /tmp/ccAfoz3S.s:4917   .debug_str:000000000000039b .LASF204
     /tmp/ccAfoz3S.s:5063   .debug_str:0000000000000825 .LASF98
     /tmp/ccAfoz3S.s:5209   .debug_str:0000000000000cfe .LASF99
     /tmp/ccAfoz3S.s:4977   .debug_str:0000000000000584 .LASF100
     /tmp/ccAfoz3S.s:5033   .debug_str:000000000000071d .LASF101
     /tmp/ccAfoz3S.s:5023   .debug_str:00000000000006d2 .LASF102
     /tmp/ccAfoz3S.s:4985   .debug_str:00000000000005b5 .LASF103
     /tmp/ccAfoz3S.s:5219   .debug_str:0000000000000d5a .LASF104
     /tmp/ccAfoz3S.s:5059   .debug_str:00000000000007f3 .LASF105
     /tmp/ccAfoz3S.s:5087   .debug_str:00000000000008ca .LASF106
     /tmp/ccAfoz3S.s:4891   .debug_str:000000000000027e .LASF107
     /tmp/ccAfoz3S.s:5049   .debug_str:00000000000007a1 .LASF108
     /tmp/ccAfoz3S.s:4843   .debug_str:00000000000000e3 .LASF109
     /tmp/ccAfoz3S.s:5155   .debug_str:0000000000000b3f .LASF110
     /tmp/ccAfoz3S.s:5151   .debug_str:0000000000000b04 .LASF111
     /tmp/ccAfoz3S.s:4999   .debug_str:0000000000000621 .LASF112
     /tmp/ccAfoz3S.s:5165   .debug_str:0000000000000b75 .LASF113
     /tmp/ccAfoz3S.s:5159   .debug_str:0000000000000b5a .LASF114
     /tmp/ccAfoz3S.s:4821   .debug_str:0000000000000038 .LASF115
     /tmp/ccAfoz3S.s:4981   .debug_str:0000000000000591 .LASF116
     /tmp/ccAfoz3S.s:4933   .debug_str:000000000000041f .LASF117
     /tmp/ccAfoz3S.s:5005   .debug_str:0000000000000653 .LASF118
     /tmp/ccAfoz3S.s:4913   .debug_str:000000000000037a .LASF119
     /tmp/ccAfoz3S.s:5075   .debug_str:0000000000000872 .LASF120
     /tmp/ccAfoz3S.s:4993   .debug_str:0000000000000605 .LASF121
     /tmp/ccAfoz3S.s:5171   .debug_str:0000000000000bd3 .LASF122
     /tmp/ccAfoz3S.s:4989   .debug_str:00000000000005e1 .LASF123
     /tmp/ccAfoz3S.s:5135   .debug_str:0000000000000aa3 .LASF124
     /tmp/ccAfoz3S.s:4983   .debug_str:0000000000000596 .LASF125
     /tmp/ccAfoz3S.s:4953   .debug_str:00000000000004cb .LASF127
     /tmp/ccAfoz3S.s:5133   .debug_str:0000000000000a9c .LASF128
     /tmp/ccAfoz3S.s:4809   .debug_str:0000000000000005 .LASF129
     /tmp/ccAfoz3S.s:5127   .debug_str:00000000000009cb .LASF130
     /tmp/ccAfoz3S.s:5179   .debug_str:0000000000000c16 .LASF131
     /tmp/ccAfoz3S.s:4919   .debug_str:00000000000003b6 .LASF132
GAS LISTING /tmp/ccAfoz3S.s 			page 34


     /tmp/ccAfoz3S.s:4927   .debug_str:00000000000003ee .LASF133
     /tmp/ccAfoz3S.s:5157   .debug_str:0000000000000b51 .LASF134
     /tmp/ccAfoz3S.s:5149   .debug_str:0000000000000aef .LASF138
     /tmp/ccAfoz3S.s:5065   .debug_str:000000000000082e .LASF135
     /tmp/ccAfoz3S.s:5015   .debug_str:00000000000006ab .LASF136
     /tmp/ccAfoz3S.s:5039   .debug_str:000000000000074b .LASF137
     /tmp/ccAfoz3S.s:5043   .debug_str:000000000000075f .LASF139
     /tmp/ccAfoz3S.s:5007   .debug_str:000000000000066b .LASF140
     /tmp/ccAfoz3S.s:4961   .debug_str:000000000000051e .LASF141
     /tmp/ccAfoz3S.s:5187   .debug_str:0000000000000c5f .LASF142
     /tmp/ccAfoz3S.s:5105   .debug_str:000000000000094b .LASF143
     /tmp/ccAfoz3S.s:5001   .debug_str:0000000000000637 .LASF144
     /tmp/ccAfoz3S.s:4893   .debug_str:000000000000029f .LASF145
     /tmp/ccAfoz3S.s:4975   .debug_str:000000000000057c .LASF146
     /tmp/ccAfoz3S.s:5047   .debug_str:000000000000078d .LASF147
     /tmp/ccAfoz3S.s:5215   .debug_str:0000000000000d44 .LASF148
     /tmp/ccAfoz3S.s:4939   .debug_str:0000000000000439 .LASF149
     /tmp/ccAfoz3S.s:4857   .debug_str:0000000000000166 .LASF150
     /tmp/ccAfoz3S.s:5081   .debug_str:000000000000089f .LASF151
     /tmp/ccAfoz3S.s:5083   .debug_str:00000000000008b2 .LASF152
     /tmp/ccAfoz3S.s:4841   .debug_str:00000000000000d0 .LASF153
     /tmp/ccAfoz3S.s:4867   .debug_str:00000000000001a5 .LASF154
     /tmp/ccAfoz3S.s:4925   .debug_str:00000000000003dc .LASF155
     /tmp/ccAfoz3S.s:4937   .debug_str:0000000000000433 .LASF156
     /tmp/ccAfoz3S.s:4861   .debug_str:0000000000000185 .LASF157
     /tmp/ccAfoz3S.s:4817   .debug_str:0000000000000027 .LASF158
     /tmp/ccAfoz3S.s:5073   .debug_str:000000000000085a .LASF159
     /tmp/ccAfoz3S.s:5067   .debug_str:0000000000000837 .LASF160
     /tmp/ccAfoz3S.s:5211   .debug_str:0000000000000d1f .LASF161
     /tmp/ccAfoz3S.s:5181   .debug_str:0000000000000c1c .LASF162
     /tmp/ccAfoz3S.s:4845   .debug_str:0000000000000101 .LASF163
     /tmp/ccAfoz3S.s:5175   .debug_str:0000000000000bf9 .LASF164
     /tmp/ccAfoz3S.s:4991   .debug_str:00000000000005ef .LASF165
     /tmp/ccAfoz3S.s:5153   .debug_str:0000000000000b30 .LASF166
     /tmp/ccAfoz3S.s:4907   .debug_str:000000000000033b .LASF167
     /tmp/ccAfoz3S.s:4889   .debug_str:0000000000000278 .LASF168
     /tmp/ccAfoz3S.s:5145   .debug_str:0000000000000ae1 .LASF169
     /tmp/ccAfoz3S.s:5057   .debug_str:00000000000007de .LASF171
     /tmp/ccAfoz3S.s:4877   .debug_str:0000000000000206 .LASF173
     /tmp/ccAfoz3S.s:4973   .debug_str:000000000000056c .LASF174
     /tmp/ccAfoz3S.s:4911   .debug_str:0000000000000365 .LASF175
     /tmp/ccAfoz3S.s:4905   .debug_str:000000000000031c .LASF176
     /tmp/ccAfoz3S.s:4895   .debug_str:00000000000002b3 .LASF177
     /tmp/ccAfoz3S.s:4955   .debug_str:00000000000004d3 .LASF178
     /tmp/ccAfoz3S.s:4879   .debug_str:0000000000000228 .LASF179
     /tmp/ccAfoz3S.s:5031   .debug_str:0000000000000718 .LASF180
     /tmp/ccAfoz3S.s:4935   .debug_str:000000000000042e .LASF181
     /tmp/ccAfoz3S.s:5099   .debug_str:0000000000000921 .LASF182
     /tmp/ccAfoz3S.s:4807   .debug_str:0000000000000000 .LASF183
     /tmp/ccAfoz3S.s:4831   .debug_str:000000000000008a .LASF184
     /tmp/ccAfoz3S.s:835    .text:00000000000004cc .LFB58
     /tmp/ccAfoz3S.s:884    .text:0000000000000528 .LFE58
     /tmp/ccAfoz3S.s:849    .text:00000000000004dc .LBB66
     /tmp/ccAfoz3S.s:882    .text:0000000000000528 .LBE66
     /tmp/ccAfoz3S.s:864    .text:0000000000000504 .LBB67
     /tmp/ccAfoz3S.s:873    .text:0000000000000510 .LBE67
     /tmp/ccAfoz3S.s:854    .text:00000000000004ec .LVL70
GAS LISTING /tmp/ccAfoz3S.s 			page 35


     /tmp/ccAfoz3S.s:664    .text:00000000000003b4 .LFB57
     /tmp/ccAfoz3S.s:829    .text:00000000000004cc .LFE57
     /tmp/ccAfoz3S.s:4304   .debug_loc:0000000000000000 .LLST24
     /tmp/ccAfoz3S.s:693    .text:00000000000003ec .LBB57
     /tmp/ccAfoz3S.s:4791   .debug_ranges:0000000000000000 .Ldebug_ranges0
     /tmp/ccAfoz3S.s:4322   .debug_loc:000000000000004c .LLST25
     /tmp/ccAfoz3S.s:4340   .debug_loc:0000000000000098 .LLST26
     /tmp/ccAfoz3S.s:4351   .debug_loc:00000000000000ce .LLST27
     /tmp/ccAfoz3S.s:4362   .debug_loc:0000000000000104 .LLST28
     /tmp/ccAfoz3S.s:4377   .debug_loc:000000000000014d .LLST29
     /tmp/ccAfoz3S.s:4400   .debug_loc:00000000000001bc .LLST30
     /tmp/ccAfoz3S.s:699    .text:00000000000003f8 .LBB59
     /tmp/ccAfoz3S.s:707    .text:0000000000000404 .LBE59
     /tmp/ccAfoz3S.s:4419   .debug_loc:0000000000000218 .LLST31
     /tmp/ccAfoz3S.s:4426   .debug_loc:000000000000023b .LLST32
     /tmp/ccAfoz3S.s:761    .text:0000000000000464 .LBB62
     /tmp/ccAfoz3S.s:781    .text:0000000000000484 .LBE62
     /tmp/ccAfoz3S.s:4433   .debug_loc:000000000000025e .LLST33
     /tmp/ccAfoz3S.s:698    .text:00000000000003f8 .LVL55
     /tmp/ccAfoz3S.s:687    .text:00000000000003e4 .LVL53
     /tmp/ccAfoz3S.s:788    .text:000000000000048c .LVL67
     /tmp/ccAfoz3S.s:634    .text:0000000000000394 .LFB56
     /tmp/ccAfoz3S.s:658    .text:00000000000003b4 .LFE56
     /tmp/ccAfoz3S.s:597    .text:0000000000000368 .LFB55
     /tmp/ccAfoz3S.s:628    .text:0000000000000394 .LFE55
     /tmp/ccAfoz3S.s:608    .text:0000000000000374 .LBB48
     /tmp/ccAfoz3S.s:617    .text:0000000000000384 .LBE48
     /tmp/ccAfoz3S.s:4445   .debug_loc:0000000000000295 .LLST22
     /tmp/ccAfoz3S.s:4453   .debug_loc:00000000000002b9 .LLST23
     /tmp/ccAfoz3S.s:387    .text:0000000000000224 .LFB54
     /tmp/ccAfoz3S.s:446    .text:000000000000028c .LFE54
     /tmp/ccAfoz3S.s:416    .text:0000000000000258 .LBB31
     /tmp/ccAfoz3S.s:424    .text:0000000000000260 .LBE31
     /tmp/ccAfoz3S.s:4461   .debug_loc:00000000000002e4 .LLST11
     /tmp/ccAfoz3S.s:4469   .debug_loc:0000000000000308 .LLST12
     /tmp/ccAfoz3S.s:403    .text:0000000000000240 .LVL28
     /tmp/ccAfoz3S.s:429    .text:0000000000000270 .LVL32
     /tmp/ccAfoz3S.s:433    .text:0000000000000278 .LVL33
     /tmp/ccAfoz3S.s:452    .text:000000000000028c .LFB53
     /tmp/ccAfoz3S.s:591    .text:0000000000000368 .LFE53
     /tmp/ccAfoz3S.s:4476   .debug_loc:000000000000032b .LLST13
     /tmp/ccAfoz3S.s:472    .text:00000000000002ac .LBB40
     /tmp/ccAfoz3S.s:479    .text:00000000000002b0 .LBE40
     /tmp/ccAfoz3S.s:4487   .debug_loc:0000000000000361 .LLST14
     /tmp/ccAfoz3S.s:515    .text:00000000000002ec .LBB42
     /tmp/ccAfoz3S.s:4494   .debug_loc:0000000000000384 .LLST15
     /tmp/ccAfoz3S.s:4505   .debug_loc:00000000000003ba .LLST16
     /tmp/ccAfoz3S.s:4520   .debug_loc:0000000000000403 .LLST17
     /tmp/ccAfoz3S.s:523    .text:00000000000002f8 .LBB44
     /tmp/ccAfoz3S.s:531    .text:0000000000000304 .LBE44
     /tmp/ccAfoz3S.s:4531   .debug_loc:0000000000000439 .LLST18
     /tmp/ccAfoz3S.s:4539   .debug_loc:000000000000045d .LLST20
     /tmp/ccAfoz3S.s:4546   .debug_loc:0000000000000480 .LLST21
     /tmp/ccAfoz3S.s:522    .text:00000000000002f8 .LVL40
     /tmp/ccAfoz3S.s:512    .text:00000000000002e8 .LVL37
     /tmp/ccAfoz3S.s:549    .text:0000000000000324 .LVL43
     /tmp/ccAfoz3S.s:554    .text:000000000000032c .LVL44
GAS LISTING /tmp/ccAfoz3S.s 			page 36


     /tmp/ccAfoz3S.s:562    .text:0000000000000344 .LVL45
     /tmp/ccAfoz3S.s:352    .text:0000000000000208 .LFB52
     /tmp/ccAfoz3S.s:376    .text:0000000000000224 .LFE52
     /tmp/ccAfoz3S.s:327    .text:0000000000000208 .LFE51
     /tmp/ccAfoz3S.s:5037   .debug_str:0000000000000744 .LASF185
     /tmp/ccAfoz3S.s:4553   .debug_loc:00000000000004a3 .LLST3
     /tmp/ccAfoz3S.s:4575   .debug_loc:0000000000000502 .LLST4
     /tmp/ccAfoz3S.s:4597   .debug_loc:0000000000000561 .LLST5
     /tmp/ccAfoz3S.s:4619   .debug_loc:00000000000005c0 .LLST6
     /tmp/ccAfoz3S.s:227    .text:000000000000014c .LBB29
     /tmp/ccAfoz3S.s:277    .text:00000000000001b4 .LBE29
     /tmp/ccAfoz3S.s:4648   .debug_loc:0000000000000635 .LLST7
     /tmp/ccAfoz3S.s:4680   .debug_loc:00000000000006ad .LLST8
     /tmp/ccAfoz3S.s:4691   .debug_loc:00000000000006e3 .LLST9
     /tmp/ccAfoz3S.s:4702   .debug_loc:0000000000000719 .LLST10
     /tmp/ccAfoz3S.s:261    .text:00000000000001a0 .LVL17
     /tmp/ccAfoz3S.s:223    .text:0000000000000148 .LVL14
     /tmp/ccAfoz3S.s:320    .text:00000000000001fc .LVL26
     /tmp/ccAfoz3S.s:324    .text:0000000000000208 .LVL27
     /tmp/ccAfoz3S.s:163    .text:0000000000000108 .LFE50
     /tmp/ccAfoz3S.s:4713   .debug_loc:000000000000074f .LLST0
     /tmp/ccAfoz3S.s:82     .text:000000000000005c .LBB24
     /tmp/ccAfoz3S.s:135    .text:00000000000000d4 .LBE24
     /tmp/ccAfoz3S.s:4742   .debug_loc:00000000000007c4 .LLST1
     /tmp/ccAfoz3S.s:4767   .debug_loc:0000000000000826 .LLST2
     /tmp/ccAfoz3S.s:93     .text:0000000000000070 .LVL5
     /tmp/ccAfoz3S.s:124    .text:00000000000000c4 .LVL6
     /tmp/ccAfoz3S.s:78     .text:0000000000000058 .LVL3
     /tmp/ccAfoz3S.s:139    .text:00000000000000e0 .LVL8
     /tmp/ccAfoz3S.s:143    .text:00000000000000ec .LVL9
     /tmp/ccAfoz3S.s:10     .text:0000000000000000 .LFB49
     /tmp/ccAfoz3S.s:47     .text:0000000000000030 .LFE49
     /tmp/ccAfoz3S.s:5055   .debug_str:00000000000007d7 .LASF186
     /tmp/ccAfoz3S.s:5011   .debug_str:000000000000068a .LASF187
     /tmp/ccAfoz3S.s:4849   .debug_str:0000000000000127 .LASF188
     /tmp/ccAfoz3S.s:4885   .debug_str:0000000000000263 .LASF189
     /tmp/ccAfoz3S.s:5213   .debug_str:0000000000000d37 .LASF191
     /tmp/ccAfoz3S.s:5029   .debug_str:0000000000000705 .LASF205
     /tmp/ccAfoz3S.s:5195   .debug_str:0000000000000c84 .LASF206
     /tmp/ccAfoz3S.s:5019   .debug_str:00000000000006c6 .LASF190
     /tmp/ccAfoz3S.s:4813   .debug_str:0000000000000010 .LASF192
     /tmp/ccAfoz3S.s:5199   .debug_str:0000000000000ca9 .LASF193
     /tmp/ccAfoz3S.s:4859   .debug_str:000000000000016d .LASF194
     /tmp/ccAfoz3S.s:4941   .debug_str:000000000000044d .LASF195
     /tmp/ccAfoz3S.s:5141   .debug_str:0000000000000ac7 .LASF196
     /tmp/ccAfoz3S.s:667    .text:00000000000003b4 .LVL51
     /tmp/ccAfoz3S.s:685    .text:00000000000003dc .LVL52
     /tmp/ccAfoz3S.s:692    .text:00000000000003ec .LVL54
     /tmp/ccAfoz3S.s:768    .text:0000000000000470 .LVL64
     /tmp/ccAfoz3S.s:779    .text:0000000000000484 .LVL66
     /tmp/ccAfoz3S.s:805    .text:00000000000004a8 .LVL68
     /tmp/ccAfoz3S.s:705    .text:0000000000000404 .LVL56
     /tmp/ccAfoz3S.s:732    .text:000000000000043c .LVL58
     /tmp/ccAfoz3S.s:740    .text:0000000000000448 .LVL59
     /tmp/ccAfoz3S.s:756    .text:0000000000000460 .LVL63
     /tmp/ccAfoz3S.s:728    .text:0000000000000438 .LVL57
     /tmp/ccAfoz3S.s:746    .text:0000000000000450 .LVL61
GAS LISTING /tmp/ccAfoz3S.s 			page 37


     /tmp/ccAfoz3S.s:743    .text:000000000000044c .LVL60
     /tmp/ccAfoz3S.s:753    .text:000000000000045c .LVL62
     /tmp/ccAfoz3S.s:818    .text:00000000000004bc .LVL69
     /tmp/ccAfoz3S.s:776    .text:0000000000000480 .LVL65
     /tmp/ccAfoz3S.s:607    .text:0000000000000374 .LVL48
     /tmp/ccAfoz3S.s:615    .text:0000000000000384 .LVL49
     /tmp/ccAfoz3S.s:415    .text:0000000000000258 .LVL30
     /tmp/ccAfoz3S.s:422    .text:0000000000000260 .LVL31
     /tmp/ccAfoz3S.s:470    .text:00000000000002ac .LVL34
     /tmp/ccAfoz3S.s:572    .text:0000000000000350 .LVL46
     /tmp/ccAfoz3S.s:578    .text:000000000000035c .LVL47
     /tmp/ccAfoz3S.s:477    .text:00000000000002b0 .LVL35
     /tmp/ccAfoz3S.s:514    .text:00000000000002ec .LVL38
     /tmp/ccAfoz3S.s:541    .text:0000000000000318 .LVL42
     /tmp/ccAfoz3S.s:520    .text:00000000000002f0 .LVL39
     /tmp/ccAfoz3S.s:529    .text:0000000000000304 .LVL41
     /tmp/ccAfoz3S.s:194    .text:0000000000000108 .LVL12
     /tmp/ccAfoz3S.s:220    .text:0000000000000140 .LVL13
     /tmp/ccAfoz3S.s:301    .text:00000000000001d8 .LVL22
     /tmp/ccAfoz3S.s:308    .text:00000000000001e4 .LVL24
     /tmp/ccAfoz3S.s:298    .text:00000000000001d4 .LVL21
     /tmp/ccAfoz3S.s:304    .text:00000000000001dc .LVL23
     /tmp/ccAfoz3S.s:233    .text:0000000000000154 .LVL16
     /tmp/ccAfoz3S.s:264    .text:00000000000001a4 .LVL18
     /tmp/ccAfoz3S.s:268    .text:00000000000001a8 .LVL19
     /tmp/ccAfoz3S.s:226    .text:000000000000014c .LVL15
     /tmp/ccAfoz3S.s:275    .text:00000000000001b4 .LVL20
     /tmp/ccAfoz3S.s:314    .text:00000000000001ec .LVL25
     /tmp/ccAfoz3S.s:58     .text:0000000000000030 .LVL1
     /tmp/ccAfoz3S.s:75     .text:0000000000000050 .LVL2
     /tmp/ccAfoz3S.s:133    .text:00000000000000d4 .LVL7
     /tmp/ccAfoz3S.s:158    .text:0000000000000100 .LVL11
     /tmp/ccAfoz3S.s:81     .text:000000000000005c .LVL4
     /tmp/ccAfoz3S.s:155    .text:00000000000000fc .LVL10
     /tmp/ccAfoz3S.s:908    .debug_info:0000000000000000 .Ldebug_info0
     /tmp/ccAfoz3S.s:544    .text:0000000000000318 .LBE42
     /tmp/ccAfoz3S.s:581    .text:000000000000035c .LBB47
     /tmp/ccAfoz3S.s:589    .text:0000000000000368 .LBE47
     /tmp/ccAfoz3S.s:784    .text:0000000000000484 .LBE57
     /tmp/ccAfoz3S.s:808    .text:00000000000004a8 .LBB65
     /tmp/ccAfoz3S.s:827    .text:00000000000004cc .LBE65
     /tmp/ccAfoz3S.s:166    .gcc_except_table:0000000000000000 .LLSDA50
     /tmp/ccAfoz3S.s:329    .gcc_except_table:000000000000002b .LLSDA51

UNDEFINED SYMBOLS
_Znwm
_Znam
_ZN9Scheduler3putEP7_thread
_ZdlPv
_Unwind_Resume
__gxx_personality_v0
_ZN5Riscv10popSppSpieEv
_Z11printStringPKc
_ZN4_sem11blockedListEv
_ZN9Scheduler3getEv
_ZN7_thread13contextSwitchEPNS_7ContextES1_
_ZN5Riscv15sleepingThreadsE
GAS LISTING /tmp/ccAfoz3S.s 			page 38


_ZN5Riscv5buff1E
_ZN14KeyboardBuffer4takeEv
CONSOLE_STATUS
CONSOLE_TX_DATA
