GAS LISTING /tmp/ccR7gQ8w.s 			page 1


   1              		.file	"tcb.cpp"
   2              		.option pic
   3              		.option norelax
   4              		.text
   5              	.Ltext0:
   6              		.align	2
   7              		.globl	_ZN7_thread8setSleepEv
   9              	_ZN7_thread8setSleepEv:
  10              	.LFB51:
  11              		.file 1 "src/tcb.cpp"
   1:src/tcb.cpp   **** //
   2:src/tcb.cpp   **** // Created by marko on 20.4.22..
   3:src/tcb.cpp   **** //
   4:src/tcb.cpp   **** 
   5:src/tcb.cpp   **** #include "../h/tcb.hpp"
   6:src/tcb.cpp   **** #include "../h/riscv.hpp"
   7:src/tcb.cpp   **** 
   8:src/tcb.cpp   **** 
   9:src/tcb.cpp   **** 
  10:src/tcb.cpp   **** _thread *_thread::running = nullptr;
  11:src/tcb.cpp   **** 
  12:src/tcb.cpp   **** uint64 _thread::timeSliceCounter = 0;
  13:src/tcb.cpp   **** 
  14:src/tcb.cpp   **** void _thread::setSleep(){
  12              		.loc 1 14 25
  13              		.cfi_startproc
  14              	.LVL0:
  15 0000 130101FF 		addi	sp,sp,-16
  16              		.cfi_def_cfa_offset 16
  17 0004 23348100 		sd	s0,8(sp)
  18              		.cfi_offset 8, -8
  19 0008 13040101 		addi	s0,sp,16
  20              		.cfi_def_cfa 8, 0
  15:src/tcb.cpp   ****     if(!_thread::sleeping)
  21              		.loc 1 15 5
  22              		.loc 1 15 18 is_stmt 0
  23 000c 83479503 		lbu	a5,57(a0)
  24              		.loc 1 15 5
  25 0010 639C0700 		bnez	a5,.L2
  16:src/tcb.cpp   ****         _thread::sleeping = true;
  26              		.loc 1 16 9 is_stmt 1
  27              		.loc 1 16 27 is_stmt 0
  28 0014 93071000 		li	a5,1
  29 0018 A30CF502 		sb	a5,57(a0)
  30              	.L1:
  17:src/tcb.cpp   ****     else
  18:src/tcb.cpp   ****         _thread::sleeping = false;
  19:src/tcb.cpp   **** }
  31              		.loc 1 19 1
  32 001c 03348100 		ld	s0,8(sp)
  33              		.cfi_remember_state
  34              		.cfi_restore 8
  35              		.cfi_def_cfa 2, 16
  36 0020 13010101 		addi	sp,sp,16
  37              		.cfi_def_cfa_offset 0
  38 0024 67800000 		jr	ra
  39              	.L2:
GAS LISTING /tmp/ccR7gQ8w.s 			page 2


  40              		.cfi_restore_state
  18:src/tcb.cpp   **** }
  41              		.loc 1 18 9 is_stmt 1
  18:src/tcb.cpp   **** }
  42              		.loc 1 18 27 is_stmt 0
  43 0028 A30C0502 		sb	zero,57(a0)
  44              		.loc 1 19 1
  45 002c 6FF01FFF 		j	.L1
  46              		.cfi_endproc
  47              	.LFE51:
  49              		.align	2
  50              		.globl	_ZN7_thread12createThreadEPFvPvE
  52              	_ZN7_thread12createThreadEPFvPvE:
  53              	.LFB52:
  20:src/tcb.cpp   **** 
  21:src/tcb.cpp   **** //mickov kod za kreiranje niti
  22:src/tcb.cpp   **** _thread *_thread::createThread(Body body)
  23:src/tcb.cpp   **** {
  54              		.loc 1 23 1 is_stmt 1
  55              		.cfi_startproc
  56              		.cfi_personality 0x9b,DW.ref.__gxx_personality_v0
  57              		.cfi_lsda 0x1b,.LLSDA52
  58              	.LVL1:
  59 0030 130101FE 		addi	sp,sp,-32
  60              		.cfi_def_cfa_offset 32
  61 0034 233C1100 		sd	ra,24(sp)
  62 0038 23388100 		sd	s0,16(sp)
  63 003c 23349100 		sd	s1,8(sp)
  64 0040 23302101 		sd	s2,0(sp)
  65              		.cfi_offset 1, -8
  66              		.cfi_offset 8, -16
  67              		.cfi_offset 9, -24
  68              		.cfi_offset 18, -32
  69 0044 13040102 		addi	s0,sp,32
  70              		.cfi_def_cfa 8, 0
  71 0048 13090500 		mv	s2,a0
  24:src/tcb.cpp   ****     return new _thread(body, TIME_SLICE);
  72              		.loc 1 24 5
  73              		.loc 1 24 40 is_stmt 0
  74 004c 13058004 		li	a0,72
  75              	.LVL2:
  76              	.LEHB0:
  77 0050 97000000 		call	_Znwm@plt
  77      E7800000 
  78              	.LVL3:
  79              	.LEHE0:
  80 0058 93040500 		mv	s1,a0
  81              	.LVL4:
  82              	.LBB32:
  83              	.LBB33:
  84              		.file 2 "src/../h/tcb.hpp"
   1:src/../h/tcb.hpp **** //
   2:src/../h/tcb.hpp **** // Created by marko on 20.4.22..
   3:src/../h/tcb.hpp **** //
   4:src/../h/tcb.hpp **** 
   5:src/../h/tcb.hpp **** #ifndef OS1_VEZBE07_RISCV_CONTEXT_SWITCH_2_INTERRUPT_TCB_HPP
   6:src/../h/tcb.hpp **** #define OS1_VEZBE07_RISCV_CONTEXT_SWITCH_2_INTERRUPT_TCB_HPP
GAS LISTING /tmp/ccR7gQ8w.s 			page 3


   7:src/../h/tcb.hpp **** 
   8:src/../h/tcb.hpp **** #include "syscall_c.h"
   9:src/../h/tcb.hpp **** #include "../lib/hw.h"
  10:src/../h/tcb.hpp **** #include "scheduler.hpp"
  11:src/../h/tcb.hpp **** #include "../h/print.hpp"
  12:src/../h/tcb.hpp **** #include "_sem.hpp"
  13:src/../h/tcb.hpp **** 
  14:src/../h/tcb.hpp **** // Thread Control Block
  15:src/../h/tcb.hpp **** 
  16:src/../h/tcb.hpp **** class _thread
  17:src/../h/tcb.hpp **** {
  18:src/../h/tcb.hpp **** public:
  19:src/../h/tcb.hpp ****     ~_thread() { delete[] stack; }
  20:src/../h/tcb.hpp **** 
  21:src/../h/tcb.hpp ****     bool isFinished() const { return finished; }
  22:src/../h/tcb.hpp **** 
  23:src/../h/tcb.hpp ****     void setFinished(bool value) { finished = value; }
  24:src/../h/tcb.hpp **** 
  25:src/../h/tcb.hpp ****     uint64 getTimeSlice() const { return timeSlice; }
  26:src/../h/tcb.hpp **** 
  27:src/../h/tcb.hpp ****     void setSleep();
  28:src/../h/tcb.hpp **** 
  29:src/../h/tcb.hpp ****     void insertScheduler() {
  30:src/../h/tcb.hpp ****         Scheduler::put(this);
  31:src/../h/tcb.hpp ****     }
  32:src/../h/tcb.hpp **** 
  33:src/../h/tcb.hpp ****     void dblck();
  34:src/../h/tcb.hpp **** 
  35:src/../h/tcb.hpp ****     void start() { Scheduler::put(this); }
  36:src/../h/tcb.hpp **** 
  37:src/../h/tcb.hpp ****     using Body = void (*)(void*);
  38:src/../h/tcb.hpp **** 
  39:src/../h/tcb.hpp ****     //mickov poziv, i poziv za projekat
  40:src/../h/tcb.hpp ****     static _thread *createThread(Body body);
  41:src/../h/tcb.hpp ****     static int createThread(thread_t*, Body, void*, void*, bool);
  42:src/../h/tcb.hpp **** 
  43:src/../h/tcb.hpp ****     static void yield();
  44:src/../h/tcb.hpp **** 
  45:src/../h/tcb.hpp ****     static _thread *running;
  46:src/../h/tcb.hpp **** 
  47:src/../h/tcb.hpp ****     static void consoleWrite(void*);
  48:src/../h/tcb.hpp ****     static void idleDeletion();
  49:src/../h/tcb.hpp ****     static void dispatch();
  50:src/../h/tcb.hpp **** 
  51:src/../h/tcb.hpp **** private:
  52:src/../h/tcb.hpp ****     //mickov konstruktor
  53:src/../h/tcb.hpp ****     _thread(Body body, uint64 timeSlice) :
  54:src/../h/tcb.hpp ****             body(body),
  55:src/../h/tcb.hpp ****             stack(body != nullptr ? new uint64[STACK_SIZE] : nullptr),
  56:src/../h/tcb.hpp ****             context({(uint64) &threadWrapper,
  57:src/../h/tcb.hpp ****                      stack != nullptr ? (uint64) &stack[STACK_SIZE] : 0
  58:src/../h/tcb.hpp ****                     }),
  59:src/../h/tcb.hpp ****             timeSlice(timeSlice),
  60:src/../h/tcb.hpp ****             finished(false)
  85              		.loc 2 60 27
  86 005c 23302501 		sd	s2,0(a0)
  55:src/../h/tcb.hpp ****             context({(uint64) &threadWrapper,
GAS LISTING /tmp/ccR7gQ8w.s 			page 4


  87              		.loc 2 55 35
  88 0060 630A0900 		beqz	s2,.L10
  55:src/../h/tcb.hpp ****             context({(uint64) &threadWrapper,
  89              		.loc 2 55 58
  90 0064 37250000 		li	a0,8192
  91              	.LEHB1:
  92 0068 97000000 		call	_Znam@plt
  92      E7800000 
  93              	.LVL5:
  94 0070 6F008000 		j	.L6
  95              	.L10:
  55:src/../h/tcb.hpp ****             context({(uint64) &threadWrapper,
  96              		.loc 2 55 35
  97 0074 13050000 		li	a0,0
  98              	.L6:
  99              		.loc 2 60 27
 100 0078 23B4A400 		sd	a0,8(s1)
 101 007c 97070000 		lla	a5,_ZN7_thread13threadWrapperEv
 101      93870700 
 102 0084 23B8F400 		sd	a5,16(s1)
  57:src/../h/tcb.hpp ****                     }),
 103              		.loc 2 57 39
 104 0088 63000504 		beqz	a0,.L11
  57:src/../h/tcb.hpp ****                     }),
 105              		.loc 2 57 50
 106 008c B7270000 		li	a5,8192
 107 0090 B307F500 		add	a5,a0,a5
 108              	.L7:
 109              		.loc 2 60 27
 110 0094 23BCF400 		sd	a5,24(s1)
 111 0098 93072000 		li	a5,2
 112 009c 23B0F402 		sd	a5,32(s1)
 113 00a0 23840402 		sb	zero,40(s1)
 114 00a4 23B80402 		sd	zero,48(s1)
 115 00a8 238C0402 		sb	zero,56(s1)
 116 00ac A38C0402 		sb	zero,57(s1)
 117 00b0 23B00404 		sd	zero,64(s1)
  61:src/../h/tcb.hpp ****     {
  62:src/../h/tcb.hpp ****         if (body != nullptr) { Scheduler::put(this);}
 118              		.loc 2 62 9 is_stmt 1
 119 00b4 630C0902 		beqz	s2,.L5
 120              		.loc 2 62 32
 121              		.loc 2 62 46 is_stmt 0
 122 00b8 13850400 		mv	a0,s1
 123 00bc 97000000 		call	_ZN9Scheduler3putEP7_thread@plt
 123      E7800000 
 124              	.LVL6:
 125              	.LEHE1:
 126 00c4 6F008002 		j	.L5
 127              	.L11:
  57:src/../h/tcb.hpp ****                     }),
 128              		.loc 2 57 39
 129 00c8 93070000 		li	a5,0
 130 00cc 6FF09FFC 		j	.L7
 131              	.L12:
 132 00d0 13090500 		mv	s2,a0
 133              	.LVL7:
GAS LISTING /tmp/ccR7gQ8w.s 			page 5


 134              	.LBE33:
 135              	.LBE32:
 136              		.loc 1 24 40
 137 00d4 13850400 		mv	a0,s1
 138 00d8 97000000 		call	_ZdlPv@plt
 138      E7800000 
 139              	.LVL8:
 140 00e0 13050900 		mv	a0,s2
 141              	.LEHB2:
 142 00e4 97000000 		call	_Unwind_Resume@plt
 142      E7800000 
 143              	.LVL9:
 144              	.LEHE2:
 145              	.L5:
  25:src/tcb.cpp   **** }
 146              		.loc 1 25 1
 147 00ec 13850400 		mv	a0,s1
 148 00f0 83308101 		ld	ra,24(sp)
 149              		.cfi_restore 1
 150 00f4 03340101 		ld	s0,16(sp)
 151              		.cfi_restore 8
 152              		.cfi_def_cfa 2, 32
 153 00f8 83348100 		ld	s1,8(sp)
 154              		.cfi_restore 9
 155              	.LVL10:
 156 00fc 03390100 		ld	s2,0(sp)
 157              		.cfi_restore 18
 158              	.LVL11:
 159 0100 13010102 		addi	sp,sp,32
 160              		.cfi_def_cfa_offset 0
 161 0104 67800000 		jr	ra
 162              		.cfi_endproc
 163              	.LFE52:
 164              		.globl	__gxx_personality_v0
 165              		.section	.gcc_except_table,"a",@progbits
 166              	.LLSDA52:
 167 0000 FF       		.byte	0xff
 168 0001 FF       		.byte	0xff
 169 0002 03       		.byte	0x3
 170 0003 27       		.byte	0x27
 171 0004 00000000 		.4byte	.LEHB0-.LFB52
 172 0008 00000000 		.4byte	.LEHE0-.LEHB0
 173 000c 00000000 		.4byte	0
 174 0010 00       		.byte	0
 175 0011 00000000 		.4byte	.LEHB1-.LFB52
 176 0015 00000000 		.4byte	.LEHE1-.LEHB1
 177 0019 00000000 		.4byte	.L12-.LFB52
 178 001d 00       		.byte	0
 179 001e 00000000 		.4byte	.LEHB2-.LFB52
 180 0022 00000000 		.4byte	.LEHE2-.LEHB2
 181 0026 00000000 		.4byte	0
 182 002a 00       		.byte	0
 183              		.text
 185              		.align	2
 186              		.globl	_ZN7_thread12createThreadEPPS_PFvPvES2_S2_b
 188              	_ZN7_thread12createThreadEPPS_PFvPvES2_S2_b:
 189              	.LFB53:
GAS LISTING /tmp/ccR7gQ8w.s 			page 6


  26:src/tcb.cpp   **** //poziv za projekat
  27:src/tcb.cpp   **** int _thread::createThread(thread_t* handle, Body body, void *args, void *stack, bool t)
  28:src/tcb.cpp   **** {
 190              		.loc 1 28 1 is_stmt 1
 191              		.cfi_startproc
 192              		.cfi_personality 0x9b,DW.ref.__gxx_personality_v0
 193              		.cfi_lsda 0x1b,.LLSDA53
 194              	.LVL12:
 195 0108 130101FC 		addi	sp,sp,-64
 196              		.cfi_def_cfa_offset 64
 197 010c 233C1102 		sd	ra,56(sp)
 198 0110 23388102 		sd	s0,48(sp)
 199 0114 23349102 		sd	s1,40(sp)
 200 0118 23302103 		sd	s2,32(sp)
 201 011c 233C3101 		sd	s3,24(sp)
 202 0120 23384101 		sd	s4,16(sp)
 203 0124 23345101 		sd	s5,8(sp)
 204 0128 23306101 		sd	s6,0(sp)
 205              		.cfi_offset 1, -8
 206              		.cfi_offset 8, -16
 207              		.cfi_offset 9, -24
 208              		.cfi_offset 18, -32
 209              		.cfi_offset 19, -40
 210              		.cfi_offset 20, -48
 211              		.cfi_offset 21, -56
 212              		.cfi_offset 22, -64
 213 012c 13040104 		addi	s0,sp,64
 214              		.cfi_def_cfa 8, 0
 215 0130 130A0500 		mv	s4,a0
 216 0134 93890500 		mv	s3,a1
 217 0138 930A0600 		mv	s5,a2
 218 013c 13890600 		mv	s2,a3
 219 0140 130B0700 		mv	s6,a4
  29:src/tcb.cpp   ****     *handle = new _thread(body, args, stack, t);
 220              		.loc 1 29 5
 221              		.loc 1 29 47 is_stmt 0
 222 0144 13058004 		li	a0,72
 223              	.LVL13:
 224              	.LEHB3:
 225 0148 97000000 		call	_Znwm@plt
 225      E7800000 
 226              	.LVL14:
 227              	.LEHE3:
 228 0150 93040500 		mv	s1,a0
 229              	.LVL15:
 230              	.LBB37:
 231              	.LBB38:
  63:src/../h/tcb.hpp ****     }
  64:src/../h/tcb.hpp **** 
  65:src/../h/tcb.hpp **** 
  66:src/../h/tcb.hpp **** 
  67:src/../h/tcb.hpp ****     _thread(Body body, void *args, void *stackk, bool t) :
  68:src/../h/tcb.hpp ****             body(body),
  69:src/../h/tcb.hpp ****             stack(body != nullptr ? (uint64*)stackk : nullptr),
  70:src/../h/tcb.hpp ****             context({(uint64) &threadWrapper,
  71:src/../h/tcb.hpp ****                      stack != nullptr ?  (uint64) &stack[DEFAULT_STACK_SIZE] : 0
  72:src/../h/tcb.hpp ****                     }),
GAS LISTING /tmp/ccR7gQ8w.s 			page 7


  73:src/../h/tcb.hpp ****             timeSlice(DEFAULT_TIME_SLICE),
  74:src/../h/tcb.hpp ****             finished(false),
  75:src/../h/tcb.hpp ****             args(args)
 232              		.loc 2 75 22
 233 0154 23303501 		sd	s3,0(a0)
  69:src/../h/tcb.hpp ****             context({(uint64) &threadWrapper,
 234              		.loc 2 69 35
 235 0158 638E0906 		beqz	s3,.L26
 236              	.LVL16:
 237              	.L15:
 238              		.loc 2 75 22
 239 015c 23B42401 		sd	s2,8(s1)
 240 0160 97070000 		lla	a5,_ZN7_thread13threadWrapperEv
 240      93870700 
 241 0168 23B8F400 		sd	a5,16(s1)
  71:src/../h/tcb.hpp ****                     }),
 242              		.loc 2 71 39
 243 016c 63080906 		beqz	s2,.L21
  71:src/../h/tcb.hpp ****                     }),
 244              		.loc 2 71 51
 245 0170 B7860000 		li	a3,32768
 246 0174 3309D900 		add	s2,s2,a3
 247              	.L16:
 248              		.loc 2 75 22
 249 0178 23BC2401 		sd	s2,24(s1)
 250 017c 93072000 		li	a5,2
 251 0180 23B0F402 		sd	a5,32(s1)
 252 0184 23840402 		sb	zero,40(s1)
 253 0188 23B85403 		sd	s5,48(s1)
 254 018c 238C0402 		sb	zero,56(s1)
 255 0190 A38C0402 		sb	zero,57(s1)
 256 0194 23B00404 		sd	zero,64(s1)
  76:src/../h/tcb.hpp ****     {
  77:src/../h/tcb.hpp ****         if (body != nullptr) {
 257              		.loc 2 77 9 is_stmt 1
 258 0198 63840900 		beqz	s3,.L17
  78:src/../h/tcb.hpp ****             if(t)
 259              		.loc 2 78 13
 260 019c 63140B04 		bnez	s6,.L27
 261              	.L17:
 262              	.LVL17:
 263              	.LBE38:
 264              	.LBE37:
 265              		.loc 1 29 13 is_stmt 0
 266 01a0 23309A00 		sd	s1,0(s4)
  30:src/tcb.cpp   ****     if(*handle != nullptr)
 267              		.loc 1 30 5 is_stmt 1
 268 01a4 63880404 		beqz	s1,.L22
  31:src/tcb.cpp   ****         return 0;
 269              		.loc 1 31 16 is_stmt 0
 270 01a8 13050000 		li	a0,0
 271              	.L24:
  32:src/tcb.cpp   ****     else
  33:src/tcb.cpp   ****         return -2;
  34:src/tcb.cpp   **** }
 272              		.loc 1 34 1
 273 01ac 83308103 		ld	ra,56(sp)
GAS LISTING /tmp/ccR7gQ8w.s 			page 8


 274              		.cfi_remember_state
 275              		.cfi_restore 1
 276 01b0 03340103 		ld	s0,48(sp)
 277              		.cfi_restore 8
 278              		.cfi_def_cfa 2, 64
 279 01b4 83348102 		ld	s1,40(sp)
 280              		.cfi_restore 9
 281 01b8 03390102 		ld	s2,32(sp)
 282              		.cfi_restore 18
 283 01bc 83398101 		ld	s3,24(sp)
 284              		.cfi_restore 19
 285              	.LVL18:
 286 01c0 033A0101 		ld	s4,16(sp)
 287              		.cfi_restore 20
 288              	.LVL19:
 289 01c4 833A8100 		ld	s5,8(sp)
 290              		.cfi_restore 21
 291              	.LVL20:
 292 01c8 033B0100 		ld	s6,0(sp)
 293              		.cfi_restore 22
 294 01cc 13010104 		addi	sp,sp,64
 295              		.cfi_def_cfa_offset 0
 296 01d0 67800000 		jr	ra
 297              	.LVL21:
 298              	.L26:
 299              		.cfi_restore_state
 300              	.LBB40:
 301              	.LBB39:
  69:src/../h/tcb.hpp ****             context({(uint64) &threadWrapper,
 302              		.loc 2 69 35
 303 01d4 13090000 		li	s2,0
 304              	.LVL22:
 305 01d8 6FF05FF8 		j	.L15
 306              	.L21:
  71:src/../h/tcb.hpp ****                     }),
 307              		.loc 2 71 39
 308 01dc 13090000 		li	s2,0
 309 01e0 6FF09FF9 		j	.L16
 310              	.L27:
  79:src/../h/tcb.hpp ****                 Scheduler::put(this);
 311              		.loc 2 79 17 is_stmt 1
 312              		.loc 2 79 31 is_stmt 0
 313 01e4 13850400 		mv	a0,s1
 314              	.LEHB4:
 315 01e8 97000000 		call	_ZN9Scheduler3putEP7_thread@plt
 315      E7800000 
 316              	.LVL23:
 317              	.LEHE4:
 318 01f0 6FF01FFB 		j	.L17
 319              	.LVL24:
 320              	.L22:
 321              	.LBE39:
 322              	.LBE40:
  33:src/tcb.cpp   **** }
 323              		.loc 1 33 17
 324 01f4 1305E0FF 		li	a0,-2
 325 01f8 6FF05FFB 		j	.L24
GAS LISTING /tmp/ccR7gQ8w.s 			page 9


 326              	.LVL25:
 327              	.L23:
 328 01fc 13090500 		mv	s2,a0
  29:src/tcb.cpp   ****     if(*handle != nullptr)
 329              		.loc 1 29 47
 330 0200 13850400 		mv	a0,s1
 331 0204 97000000 		call	_ZdlPv@plt
 331      E7800000 
 332              	.LVL26:
 333 020c 13050900 		mv	a0,s2
 334              	.LEHB5:
 335 0210 97000000 		call	_Unwind_Resume@plt
 335      E7800000 
 336              	.LVL27:
 337              	.LEHE5:
 338              		.cfi_endproc
 339              	.LFE53:
 340              		.section	.gcc_except_table
 341              	.LLSDA53:
 342 002b FF       		.byte	0xff
 343 002c FF       		.byte	0xff
 344 002d 03       		.byte	0x3
 345 002e 27       		.byte	0x27
 346 002f 00000000 		.4byte	.LEHB3-.LFB53
 347 0033 00000000 		.4byte	.LEHE3-.LEHB3
 348 0037 00000000 		.4byte	0
 349 003b 00       		.byte	0
 350 003c 00000000 		.4byte	.LEHB4-.LFB53
 351 0040 00000000 		.4byte	.LEHE4-.LEHB4
 352 0044 00000000 		.4byte	.L23-.LFB53
 353 0048 00       		.byte	0
 354 0049 00000000 		.4byte	.LEHB5-.LFB53
 355 004d 00000000 		.4byte	.LEHE5-.LEHB5
 356 0051 00000000 		.4byte	0
 357 0055 00       		.byte	0
 358              		.text
 360              		.align	2
 361              		.globl	_ZN7_thread5yieldEv
 363              	_ZN7_thread5yieldEv:
 364              	.LFB54:
  35:src/tcb.cpp   **** 
  36:src/tcb.cpp   **** void _thread::yield()
  37:src/tcb.cpp   **** {
 365              		.loc 1 37 1 is_stmt 1
 366              		.cfi_startproc
 367 0218 130101FF 		addi	sp,sp,-16
 368              		.cfi_def_cfa_offset 16
 369 021c 23348100 		sd	s0,8(sp)
 370              		.cfi_offset 8, -8
 371 0220 13040101 		addi	s0,sp,16
 372              		.cfi_def_cfa 8, 0
  38:src/tcb.cpp   ****     __asm__ volatile ("ecall");
 373              		.loc 1 38 5
 374              		.loc 1 38 31 is_stmt 0
 375              	#APP
 376              	# 38 "src/tcb.cpp" 1
  39              	}
GAS LISTING /tmp/ccR7gQ8w.s 			page 10


 377              		ecall
 378              	# 0 "" 2
 379              		.loc 1 39 1
 380              	#NO_APP
 381 0228 03348100 		ld	s0,8(sp)
 382              		.cfi_restore 8
 383              		.cfi_def_cfa 2, 16
 384 022c 13010101 		addi	sp,sp,16
 385              		.cfi_def_cfa_offset 0
 386 0230 67800000 		jr	ra
 387              		.cfi_endproc
 388              	.LFE54:
 390              		.section	.rodata.str1.8,"aMS",@progbits,1
 391              		.align	3
 392              	.LC0:
 393 0000 676F746F 		.string	"gotova nit"
 393      7661206E 
 393      697400
 394              		.text
 395              		.align	2
 396              		.globl	_ZN7_thread13threadWrapperEv
 398              	_ZN7_thread13threadWrapperEv:
 399              	.LFB56:
  40:src/tcb.cpp   **** 
  41:src/tcb.cpp   **** void _thread::dispatch()
  42:src/tcb.cpp   **** {
  43:src/tcb.cpp   ****     _thread *old = running;
  44:src/tcb.cpp   ****     if (!old->isFinished() && !old->blocked && !old->sleeping) {
  45:src/tcb.cpp   ****         Scheduler::put(old);
  46:src/tcb.cpp   ****     }
  47:src/tcb.cpp   ****     else if(!old->isFinished() && old->blocked && !old->sleeping){
  48:src/tcb.cpp   ****         if(old->blockedBy != nullptr){
  49:src/tcb.cpp   ****             old->blockedBy->blockedList().addLast(old);
  50:src/tcb.cpp   ****         }
  51:src/tcb.cpp   ****     }
  52:src/tcb.cpp   ****     running = Scheduler::get();
  53:src/tcb.cpp   **** 
  54:src/tcb.cpp   ****     _thread::contextSwitch(&old->context, &running->context);
  55:src/tcb.cpp   **** }
  56:src/tcb.cpp   **** 
  57:src/tcb.cpp   **** void _thread::threadWrapper()
  58:src/tcb.cpp   **** {
 400              		.loc 1 58 1 is_stmt 1
 401              		.cfi_startproc
 402 0234 130101FE 		addi	sp,sp,-32
 403              		.cfi_def_cfa_offset 32
 404 0238 233C1100 		sd	ra,24(sp)
 405 023c 23388100 		sd	s0,16(sp)
 406 0240 23349100 		sd	s1,8(sp)
 407              		.cfi_offset 1, -8
 408              		.cfi_offset 8, -16
 409              		.cfi_offset 9, -24
 410 0244 13040102 		addi	s0,sp,32
 411              		.cfi_def_cfa 8, 0
  59:src/tcb.cpp   ****     Riscv::popSppSpie();
 412              		.loc 1 59 5
 413              		.loc 1 59 22 is_stmt 0
GAS LISTING /tmp/ccR7gQ8w.s 			page 11


 414 0248 97000000 		call	_ZN5Riscv10popSppSpieEv@plt
 414      E7800000 
 415              	.LVL28:
  60:src/tcb.cpp   ****     running->body(_thread::running->args);
 416              		.loc 1 60 5 is_stmt 1
 417              		.loc 1 60 14 is_stmt 0
 418 0250 97040000 		lla	s1,.LANCHOR0
 418      93840400 
 419 0258 83B70400 		ld	a5,0(s1)
 420 025c 03B70700 		ld	a4,0(a5)
 421              		.loc 1 60 18
 422 0260 03B50703 		ld	a0,48(a5)
 423 0264 E7000700 		jalr	a4
 424              	.LVL29:
  61:src/tcb.cpp   ****     running->setFinished(true);
 425              		.loc 1 61 5 is_stmt 1
 426              		.loc 1 61 25 is_stmt 0
 427 0268 83B70400 		ld	a5,0(s1)
 428              	.LVL30:
 429              	.LBB41:
 430              	.LBB42:
  23:src/../h/tcb.hpp **** 
 431              		.loc 2 23 36 is_stmt 1
  23:src/../h/tcb.hpp **** 
 432              		.loc 2 23 45 is_stmt 0
 433 026c 13071000 		li	a4,1
 434 0270 2384E702 		sb	a4,40(a5)
 435              	.LVL31:
 436              	.LBE42:
 437              	.LBE41:
  62:src/tcb.cpp   ****     printStringO("gotova nit");
 438              		.loc 1 62 5 is_stmt 1
 439              		.loc 1 62 17 is_stmt 0
 440 0274 17050000 		lla	a0,.LC0
 440      13050500 
 441 027c 97000000 		call	_Z12printStringOPKc@plt
 441      E7800000 
 442              	.LVL32:
  63:src/tcb.cpp   ****     _thread::yield();
 443              		.loc 1 63 5 is_stmt 1
 444              		.loc 1 63 19 is_stmt 0
 445 0284 97000000 		call	_ZN7_thread5yieldEv
 445      E7800000 
 446              	.LVL33:
  64:src/tcb.cpp   **** }
 447              		.loc 1 64 1
 448 028c 83308101 		ld	ra,24(sp)
 449              		.cfi_restore 1
 450 0290 03340101 		ld	s0,16(sp)
 451              		.cfi_restore 8
 452              		.cfi_def_cfa 2, 32
 453 0294 83348100 		ld	s1,8(sp)
 454              		.cfi_restore 9
 455 0298 13010102 		addi	sp,sp,32
 456              		.cfi_def_cfa_offset 0
 457 029c 67800000 		jr	ra
 458              		.cfi_endproc
GAS LISTING /tmp/ccR7gQ8w.s 			page 12


 459              	.LFE56:
 461              		.align	2
 462              		.globl	_ZN7_thread8dispatchEv
 464              	_ZN7_thread8dispatchEv:
 465              	.LFB55:
  42:src/tcb.cpp   ****     _thread *old = running;
 466              		.loc 1 42 1 is_stmt 1
 467              		.cfi_startproc
 468 02a0 130101FE 		addi	sp,sp,-32
 469              		.cfi_def_cfa_offset 32
 470 02a4 233C1100 		sd	ra,24(sp)
 471 02a8 23388100 		sd	s0,16(sp)
 472 02ac 23349100 		sd	s1,8(sp)
 473 02b0 23302101 		sd	s2,0(sp)
 474              		.cfi_offset 1, -8
 475              		.cfi_offset 8, -16
 476              		.cfi_offset 9, -24
 477              		.cfi_offset 18, -32
 478 02b4 13040102 		addi	s0,sp,32
 479              		.cfi_def_cfa 8, 0
  43:src/tcb.cpp   ****     if (!old->isFinished() && !old->blocked && !old->sleeping) {
 480              		.loc 1 43 5
  43:src/tcb.cpp   ****     if (!old->isFinished() && !old->blocked && !old->sleeping) {
 481              		.loc 1 43 14 is_stmt 0
 482 02b8 97040000 		ld	s1,.LANCHOR0
 482      83B40400 
 483              	.LVL34:
  44:src/tcb.cpp   ****         Scheduler::put(old);
 484              		.loc 1 44 5 is_stmt 1
 485              	.LBB50:
 486              	.LBB51:
  21:src/../h/tcb.hpp **** 
 487              		.loc 2 21 31
  21:src/../h/tcb.hpp **** 
 488              		.loc 2 21 38 is_stmt 0
 489 02c0 83C78402 		lbu	a5,40(s1)
 490              	.LVL35:
 491              	.LBE51:
 492              	.LBE50:
  44:src/tcb.cpp   ****         Scheduler::put(old);
 493              		.loc 1 44 45
 494 02c4 639A0700 		bnez	a5,.L33
  44:src/tcb.cpp   ****         Scheduler::put(old);
 495              		.loc 1 44 37 discriminator 1
 496 02c8 03C78403 		lbu	a4,56(s1)
  44:src/tcb.cpp   ****         Scheduler::put(old);
 497              		.loc 1 44 28 discriminator 1
 498 02cc 63160700 		bnez	a4,.L33
  44:src/tcb.cpp   ****         Scheduler::put(old);
 499              		.loc 1 44 54 discriminator 3
 500 02d0 03C79403 		lbu	a4,57(s1)
  44:src/tcb.cpp   ****         Scheduler::put(old);
 501              		.loc 1 44 45 discriminator 3
 502 02d4 630C0704 		beqz	a4,.L38
 503              	.L33:
  47:src/tcb.cpp   ****         if(old->blockedBy != nullptr){
 504              		.loc 1 47 10 is_stmt 1
GAS LISTING /tmp/ccR7gQ8w.s 			page 13


 505              	.LVL36:
  21:src/../h/tcb.hpp **** 
 506              		.loc 2 21 31
  47:src/tcb.cpp   ****         if(old->blockedBy != nullptr){
 507              		.loc 1 47 48 is_stmt 0
 508 02d8 63900706 		bnez	a5,.L34
  47:src/tcb.cpp   ****         if(old->blockedBy != nullptr){
 509              		.loc 1 47 40 discriminator 1
 510 02dc 83C78403 		lbu	a5,56(s1)
  47:src/tcb.cpp   ****         if(old->blockedBy != nullptr){
 511              		.loc 1 47 32 discriminator 1
 512 02e0 638C0704 		beqz	a5,.L34
  47:src/tcb.cpp   ****         if(old->blockedBy != nullptr){
 513              		.loc 1 47 57 discriminator 3
 514 02e4 83C79403 		lbu	a5,57(s1)
  47:src/tcb.cpp   ****         if(old->blockedBy != nullptr){
 515              		.loc 1 47 48 discriminator 3
 516 02e8 63980704 		bnez	a5,.L34
  48:src/tcb.cpp   ****             old->blockedBy->blockedList().addLast(old);
 517              		.loc 1 48 9 is_stmt 1
  48:src/tcb.cpp   ****             old->blockedBy->blockedList().addLast(old);
 518              		.loc 1 48 17 is_stmt 0
 519 02ec 03B50404 		ld	a0,64(s1)
  48:src/tcb.cpp   ****             old->blockedBy->blockedList().addLast(old);
 520              		.loc 1 48 9
 521 02f0 63040504 		beqz	a0,.L34
  49:src/tcb.cpp   ****         }
 522              		.loc 1 49 13 is_stmt 1
  49:src/tcb.cpp   ****         }
 523              		.loc 1 49 41 is_stmt 0
 524 02f4 97000000 		call	_ZN4_sem11blockedListEv@plt
 524      E7800000 
 525              	.LVL37:
 526 02fc 13090500 		mv	s2,a0
 527              	.LVL38:
 528              	.LBB52:
 529              	.LBB53:
 530              		.file 3 "src/../h/list.hpp"
   1:src/../h/list.hpp **** //
   2:src/../h/list.hpp **** // Created by marko on 20.4.22..
   3:src/../h/list.hpp **** //
   4:src/../h/list.hpp **** 
   5:src/../h/list.hpp **** #ifndef OS1_VEZBE07_RISCV_CONTEXT_SWITCH_2_INTERRUPT_LIST_HPP
   6:src/../h/list.hpp **** #define OS1_VEZBE07_RISCV_CONTEXT_SWITCH_2_INTERRUPT_LIST_HPP
   7:src/../h/list.hpp **** 
   8:src/../h/list.hpp **** //#include "riscv.hpp"
   9:src/../h/list.hpp **** 
  10:src/../h/list.hpp **** //class Scheduler;
  11:src/../h/list.hpp **** template<typename T>
  12:src/../h/list.hpp **** class List
  13:src/../h/list.hpp **** {
  14:src/../h/list.hpp **** private:
  15:src/../h/list.hpp ****     struct Elem
  16:src/../h/list.hpp ****     {
  17:src/../h/list.hpp ****         T *data;
  18:src/../h/list.hpp ****         Elem *next;
  19:src/../h/list.hpp ****         int sleepTime;
GAS LISTING /tmp/ccR7gQ8w.s 			page 14


  20:src/../h/list.hpp ****         Elem(T *data, Elem *next, int sleepTime = 0) : data(data), next(next), sleepTime(sleepTime)
  21:src/../h/list.hpp ****         Elem(T *data) : data(data), next(nullptr), sleepTime(0) {}
  22:src/../h/list.hpp ****     };
  23:src/../h/list.hpp **** 
  24:src/../h/list.hpp ****     Elem *head, *tail, *pom = nullptr;
  25:src/../h/list.hpp **** 
  26:src/../h/list.hpp **** public:
  27:src/../h/list.hpp ****     List() : head(0), tail(0) {}
  28:src/../h/list.hpp **** 
  29:src/../h/list.hpp ****     List(const List<T> &) = delete;
  30:src/../h/list.hpp **** 
  31:src/../h/list.hpp ****     List<T> &operator=(const List<T> &) = delete;
  32:src/../h/list.hpp **** 
  33:src/../h/list.hpp ****     T* traverseList(){
  34:src/../h/list.hpp ****         if(pom == nullptr){
  35:src/../h/list.hpp ****             pom = head;
  36:src/../h/list.hpp ****         }
  37:src/../h/list.hpp ****         Elem *t = pom;
  38:src/../h/list.hpp ****         pom = pom->next;
  39:src/../h/list.hpp **** 
  40:src/../h/list.hpp ****         return t->data;
  41:src/../h/list.hpp ****     }
  42:src/../h/list.hpp **** 
  43:src/../h/list.hpp ****     void addFirst(T *data)
  44:src/../h/list.hpp ****     {
  45:src/../h/list.hpp ****         Elem *elem = new Elem(data, head);
  46:src/../h/list.hpp ****         head = elem;
  47:src/../h/list.hpp ****         if (!tail) { tail = head; }
  48:src/../h/list.hpp ****     }
  49:src/../h/list.hpp **** 
  50:src/../h/list.hpp ****     void addLast(T *data)
  51:src/../h/list.hpp ****     {
  52:src/../h/list.hpp ****         Elem *elem = new Elem(data, 0);
 531              		.loc 3 52 22
 532 0300 13058001 		li	a0,24
 533              	.LVL39:
 534 0304 97000000 		call	_Znwm@plt
 534      E7800000 
 535              	.LVL40:
 536              	.LBB54:
 537              	.LBB55:
  20:src/../h/list.hpp ****         Elem(T *data) : data(data), next(nullptr), sleepTime(0) {}
 538              		.loc 3 20 99
 539 030c 23309500 		sd	s1,0(a0)
 540 0310 23340500 		sd	zero,8(a0)
 541 0314 23280500 		sw	zero,16(a0)
 542              	.LVL41:
 543              	.LBE55:
 544              	.LBE54:
  53:src/../h/list.hpp ****         if (tail)
 545              		.loc 3 53 13
 546 0318 83378900 		ld	a5,8(s2)
 547              		.loc 3 53 9
 548 031c 638A0704 		beqz	a5,.L35
  54:src/../h/list.hpp ****         {
  55:src/../h/list.hpp ****             tail->next = elem;
 549              		.loc 3 55 13
GAS LISTING /tmp/ccR7gQ8w.s 			page 15


 550 0320 23B4A700 		sd	a0,8(a5)
  56:src/../h/list.hpp ****             tail = elem;
 551              		.loc 3 56 13
 552 0324 2334A900 		sd	a0,8(s2)
 553 0328 6F000001 		j	.L34
 554              	.LVL42:
 555              	.L38:
 556              	.LBE53:
 557              	.LBE52:
  45:src/tcb.cpp   ****     }
 558              		.loc 1 45 9 is_stmt 1
  45:src/tcb.cpp   ****     }
 559              		.loc 1 45 23 is_stmt 0
 560 032c 13850400 		mv	a0,s1
 561 0330 97000000 		call	_ZN9Scheduler3putEP7_thread@plt
 561      E7800000 
 562              	.LVL43:
 563              	.L34:
  52:src/tcb.cpp   **** 
 564              		.loc 1 52 5 is_stmt 1
  52:src/tcb.cpp   **** 
 565              		.loc 1 52 29 is_stmt 0
 566 0338 97000000 		call	_ZN9Scheduler3getEv@plt
 566      E7800000 
 567              	.LVL44:
  52:src/tcb.cpp   **** 
 568              		.loc 1 52 13
 569 0340 97070000 		sd	a0,.LANCHOR0,a5
 569      23B0A700 
  54:src/tcb.cpp   **** }
 570              		.loc 1 54 5 is_stmt 1
  54:src/tcb.cpp   **** }
 571              		.loc 1 54 27 is_stmt 0
 572 0348 93050501 		addi	a1,a0,16
 573 034c 13850401 		addi	a0,s1,16
 574 0350 97000000 		call	_ZN7_thread13contextSwitchEPNS_7ContextES1_@plt
 574      E7800000 
 575              	.LVL45:
  55:src/tcb.cpp   **** 
 576              		.loc 1 55 1
 577 0358 83308101 		ld	ra,24(sp)
 578              		.cfi_remember_state
 579              		.cfi_restore 1
 580 035c 03340101 		ld	s0,16(sp)
 581              		.cfi_restore 8
 582              		.cfi_def_cfa 2, 32
 583 0360 83348100 		ld	s1,8(sp)
 584              		.cfi_restore 9
 585              	.LVL46:
 586 0364 03390100 		ld	s2,0(sp)
 587              		.cfi_restore 18
 588 0368 13010102 		addi	sp,sp,32
 589              		.cfi_def_cfa_offset 0
 590 036c 67800000 		jr	ra
 591              	.LVL47:
 592              	.L35:
 593              		.cfi_restore_state
GAS LISTING /tmp/ccR7gQ8w.s 			page 16


 594              	.LBB57:
 595              	.LBB56:
  57:src/../h/list.hpp ****         } else
  58:src/../h/list.hpp ****         {
  59:src/../h/list.hpp ****             head = tail = elem;
 596              		.loc 3 59 13
 597 0370 2334A900 		sd	a0,8(s2)
 598 0374 2330A900 		sd	a0,0(s2)
  60:src/../h/list.hpp ****         }
  61:src/../h/list.hpp ****     }
 599              		.loc 3 61 5
 600 0378 6FF01FFC 		j	.L34
 601              	.LBE56:
 602              	.LBE57:
 603              		.cfi_endproc
 604              	.LFE55:
 606              		.align	2
 607              		.globl	_ZN7_thread10threadStopEv
 609              	_ZN7_thread10threadStopEv:
 610              	.LFB57:
  65:src/tcb.cpp   **** 
  66:src/tcb.cpp   **** int _thread::threadStop(){
 611              		.loc 1 66 26 is_stmt 1
 612              		.cfi_startproc
 613 037c 130101FF 		addi	sp,sp,-16
 614              		.cfi_def_cfa_offset 16
 615 0380 23341100 		sd	ra,8(sp)
 616 0384 23308100 		sd	s0,0(sp)
 617              		.cfi_offset 1, -8
 618              		.cfi_offset 8, -16
 619 0388 13040101 		addi	s0,sp,16
 620              		.cfi_def_cfa 8, 0
  67:src/tcb.cpp   ****     running->setFinished(true);
 621              		.loc 1 67 5
 622              	.LVL48:
 623              	.LBB58:
 624              	.LBB59:
  23:src/../h/tcb.hpp **** 
 625              		.loc 2 23 36
  23:src/../h/tcb.hpp **** 
 626              		.loc 2 23 45 is_stmt 0
 627 038c 97070000 		ld	a5,.LANCHOR0
 627      83B70700 
 628 0394 13071000 		li	a4,1
 629 0398 2384E702 		sb	a4,40(a5)
 630              	.LVL49:
 631              	.LBE59:
 632              	.LBE58:
  68:src/tcb.cpp   ****     dispatch();
 633              		.loc 1 68 5 is_stmt 1
 634              		.loc 1 68 13 is_stmt 0
 635 039c 97000000 		call	_ZN7_thread8dispatchEv
 635      E7800000 
 636              	.LVL50:
  69:src/tcb.cpp   **** //    if(mem_free(running->stack) != 0)
  70:src/tcb.cpp   **** //        return -3;
  71:src/tcb.cpp   **** //    else{
GAS LISTING /tmp/ccR7gQ8w.s 			page 17


  72:src/tcb.cpp   **** //        _thread::yield();
  73:src/tcb.cpp   **** //        return 0;
  74:src/tcb.cpp   **** //    }
  75:src/tcb.cpp   **** //    delete []running->stack;
  76:src/tcb.cpp   **** //    nzm da se brise nit ili se samo zaustavlja
  77:src/tcb.cpp   **** return 0;
 637              		.loc 1 77 1 is_stmt 1
  78:src/tcb.cpp   **** }
 638              		.loc 1 78 1 is_stmt 0
 639 03a4 13050000 		li	a0,0
 640 03a8 83308100 		ld	ra,8(sp)
 641              		.cfi_restore 1
 642 03ac 03340100 		ld	s0,0(sp)
 643              		.cfi_restore 8
 644              		.cfi_def_cfa 2, 16
 645 03b0 13010101 		addi	sp,sp,16
 646              		.cfi_def_cfa_offset 0
 647 03b4 67800000 		jr	ra
 648              		.cfi_endproc
 649              	.LFE57:
 651              		.align	2
 652              		.globl	_ZN7_thread5dblckEv
 654              	_ZN7_thread5dblckEv:
 655              	.LFB58:
  79:src/tcb.cpp   **** 
  80:src/tcb.cpp   **** void _thread::dblck(){
 656              		.loc 1 80 22 is_stmt 1
 657              		.cfi_startproc
 658              	.LVL51:
 659 03b8 130101FF 		addi	sp,sp,-16
 660              		.cfi_def_cfa_offset 16
 661 03bc 23348100 		sd	s0,8(sp)
 662              		.cfi_offset 8, -8
 663 03c0 13040101 		addi	s0,sp,16
 664              		.cfi_def_cfa 8, 0
  81:src/tcb.cpp   ****     _thread::blocked = false;
 665              		.loc 1 81 5
 666              		.loc 1 81 22 is_stmt 0
 667 03c4 230C0502 		sb	zero,56(a0)
  82:src/tcb.cpp   ****     _thread::blockedBy = nullptr;
 668              		.loc 1 82 5 is_stmt 1
 669              		.loc 1 82 24 is_stmt 0
 670 03c8 23300504 		sd	zero,64(a0)
  83:src/tcb.cpp   **** }
 671              		.loc 1 83 1
 672 03cc 03348100 		ld	s0,8(sp)
 673              		.cfi_restore 8
 674              		.cfi_def_cfa 2, 16
 675 03d0 13010101 		addi	sp,sp,16
 676              		.cfi_def_cfa_offset 0
 677 03d4 67800000 		jr	ra
 678              		.cfi_endproc
 679              	.LFE58:
 681              		.align	2
 682              		.globl	_ZN7_thread5sleepEm
 684              	_ZN7_thread5sleepEm:
 685              	.LFB59:
GAS LISTING /tmp/ccR7gQ8w.s 			page 18


  84:src/tcb.cpp   **** 
  85:src/tcb.cpp   **** 
  86:src/tcb.cpp   **** int _thread::sleep(time_t time) {
 686              		.loc 1 86 33 is_stmt 1
 687              		.cfi_startproc
 688              	.LVL52:
 689 03d8 130101FE 		addi	sp,sp,-32
 690              		.cfi_def_cfa_offset 32
 691 03dc 233C1100 		sd	ra,24(sp)
 692 03e0 23388100 		sd	s0,16(sp)
 693 03e4 23349100 		sd	s1,8(sp)
 694 03e8 23302101 		sd	s2,0(sp)
 695              		.cfi_offset 1, -8
 696              		.cfi_offset 8, -16
 697              		.cfi_offset 9, -24
 698              		.cfi_offset 18, -32
 699 03ec 13040102 		addi	s0,sp,32
 700              		.cfi_def_cfa 8, 0
 701 03f0 93040500 		mv	s1,a0
  87:src/tcb.cpp   ****     running->setSleep();
 702              		.loc 1 87 5
 703              		.loc 1 87 22 is_stmt 0
 704 03f4 17090000 		lla	s2,.LANCHOR0
 704      13090900 
 705 03fc 03350900 		ld	a0,0(s2)
 706              	.LVL53:
 707 0400 97000000 		call	_ZN7_thread8setSleepEv
 707      E7800000 
 708              	.LVL54:
  88:src/tcb.cpp   ****     Riscv::sleepingThreads.addSleepingThread(running, time);
 709              		.loc 1 88 5 is_stmt 1
 710              		.loc 1 88 45 is_stmt 0
 711 0408 03390900 		ld	s2,0(s2)
 712 040c 9B840400 		sext.w	s1,s1
 713              	.LVL55:
 714              	.LBB67:
 715              	.LBB68:
  62:src/../h/list.hpp **** 
  63:src/../h/list.hpp ****     T *removeFirst()
  64:src/../h/list.hpp ****     {
  65:src/../h/list.hpp ****         if (!head) { return 0; }
  66:src/../h/list.hpp **** 
  67:src/../h/list.hpp ****         Elem *elem = head;
  68:src/../h/list.hpp ****         head = head->next;
  69:src/../h/list.hpp ****         if (!head) { tail = 0; }
  70:src/../h/list.hpp **** 
  71:src/../h/list.hpp ****         T *ret = elem->data;
  72:src/../h/list.hpp ****         delete elem;
  73:src/../h/list.hpp ****         return ret;
  74:src/../h/list.hpp ****     }
  75:src/../h/list.hpp **** 
  76:src/../h/list.hpp ****     T *peekFirst()
  77:src/../h/list.hpp ****     {
  78:src/../h/list.hpp ****         if (!head) { return 0; }
  79:src/../h/list.hpp ****         return head->data;
  80:src/../h/list.hpp ****     }
  81:src/../h/list.hpp **** 
GAS LISTING /tmp/ccR7gQ8w.s 			page 19


  82:src/../h/list.hpp ****     T *removeLast()
  83:src/../h/list.hpp ****     {
  84:src/../h/list.hpp ****         if (!head) { return 0; }
  85:src/../h/list.hpp **** 
  86:src/../h/list.hpp ****         Elem *prev = 0;
  87:src/../h/list.hpp ****         for (Elem *curr = head; curr && curr != tail; curr = curr->next)
  88:src/../h/list.hpp ****         {
  89:src/../h/list.hpp ****             prev = curr;
  90:src/../h/list.hpp ****         }
  91:src/../h/list.hpp **** 
  92:src/../h/list.hpp ****         Elem *elem = tail;
  93:src/../h/list.hpp ****         if (prev) { prev->next = 0; }
  94:src/../h/list.hpp ****         else { head = 0; }
  95:src/../h/list.hpp ****         tail = prev;
  96:src/../h/list.hpp **** 
  97:src/../h/list.hpp ****         T *ret = elem->data;
  98:src/../h/list.hpp ****         delete elem;
  99:src/../h/list.hpp ****         return ret;
 100:src/../h/list.hpp ****     }
 101:src/../h/list.hpp **** 
 102:src/../h/list.hpp ****     T *peekLast()
 103:src/../h/list.hpp ****     {
 104:src/../h/list.hpp ****         if (!tail) { return 0; }
 105:src/../h/list.hpp ****         return tail->data;
 106:src/../h/list.hpp ****     }
 107:src/../h/list.hpp **** void addSleepingThread(T *data, int time){
 108:src/../h/list.hpp ****         Elem *elem = new Elem(data);
 716              		.loc 3 108 22
 717 0410 13058001 		li	a0,24
 718 0414 97000000 		call	_Znwm@plt
 718      E7800000 
 719              	.LVL56:
 720              	.LBB69:
 721              	.LBB70:
  21:src/../h/list.hpp ****     };
 722              		.loc 3 21 63
 723 041c 23302501 		sd	s2,0(a0)
 724 0420 23340500 		sd	zero,8(a0)
 725 0424 23280500 		sw	zero,16(a0)
 726              	.LVL57:
 727              	.LBE70:
 728              	.LBE69:
 109:src/../h/list.hpp ****         if(!head){
 729              		.loc 3 109 13
 730 0428 97070000 		la	a5,_ZN5Riscv15sleepingThreadsE
 730      83B70700 
 731 0430 83B70700 		ld	a5,0(a5)
 732              		.loc 3 109 9
 733 0434 63880700 		beqz	a5,.L51
 110:src/../h/list.hpp ****             head = elem;
 111:src/../h/list.hpp ****             elem->next = nullptr;
 112:src/../h/list.hpp ****             elem->sleepTime = time;
 113:src/../h/list.hpp ****             tail = head;
 114:src/../h/list.hpp ****             return;
 115:src/../h/list.hpp ****         }
 116:src/../h/list.hpp ****         int timeCount = 0;
 117:src/../h/list.hpp ****         Elem *next = head, *prev = nullptr;
GAS LISTING /tmp/ccR7gQ8w.s 			page 20


 734              		.loc 3 117 29
 735 0438 93060000 		li	a3,0
 116:src/../h/list.hpp ****         Elem *next = head, *prev = nullptr;
 736              		.loc 3 116 13
 737 043c 13070000 		li	a4,0
 738 0440 6F000002 		j	.L44
 739              	.L51:
 110:src/../h/list.hpp ****             head = elem;
 740              		.loc 3 110 13
 741 0444 97070000 		la	a5,_ZN5Riscv15sleepingThreadsE
 741      83B70700 
 742 044c 23B0A700 		sd	a0,0(a5)
 112:src/../h/list.hpp ****             tail = head;
 743              		.loc 3 112 13
 744 0450 23289500 		sw	s1,16(a0)
 113:src/../h/list.hpp ****             return;
 745              		.loc 3 113 13
 746 0454 23B4A700 		sd	a0,8(a5)
 114:src/../h/list.hpp ****         }
 747              		.loc 3 114 13
 748 0458 6F000005 		j	.L45
 749              	.LVL58:
 750              	.L49:
 118:src/../h/list.hpp **** 
 119:src/../h/list.hpp ****         while(time >= timeCount + next->sleepTime){
 120:src/../h/list.hpp ****              timeCount += next->sleepTime;
 121:src/../h/list.hpp ****              prev= next;
 122:src/../h/list.hpp ****              next = next->next;
 751              		.loc 3 122 14
 752 045c 93070600 		mv	a5,a2
 753              	.LVL59:
 754              	.L44:
 119:src/../h/list.hpp ****              timeCount += next->sleepTime;
 755              		.loc 3 119 20 is_stmt 1
 119:src/../h/list.hpp ****              timeCount += next->sleepTime;
 756              		.loc 3 119 41 is_stmt 0
 757 0460 03A60701 		lw	a2,16(a5)
 758 0464 93050700 		mv	a1,a4
 119:src/../h/list.hpp ****              timeCount += next->sleepTime;
 759              		.loc 3 119 33
 760 0468 3B07E600 		addw	a4,a2,a4
 761              	.LVL60:
 119:src/../h/list.hpp ****              timeCount += next->sleepTime;
 762              		.loc 3 119 20
 763 046c 63CCE400 		blt	s1,a4,.L46
 764              	.LVL61:
 765              		.loc 3 122 14
 766 0470 03B68700 		ld	a2,8(a5)
 767              	.LVL62:
 121:src/../h/list.hpp ****              next = next->next;
 768              		.loc 3 121 14
 769 0474 93860700 		mv	a3,a5
 123:src/../h/list.hpp ****              if(next == nullptr)
 770              		.loc 3 123 14
 771 0478 E31206FE 		bnez	a2,.L49
 122:src/../h/list.hpp ****              if(next == nullptr)
 772              		.loc 3 122 14
GAS LISTING /tmp/ccR7gQ8w.s 			page 21


 773 047c 93070600 		mv	a5,a2
 774              	.LVL63:
 120:src/../h/list.hpp ****              prev= next;
 775              		.loc 3 120 14
 776 0480 93050700 		mv	a1,a4
 777              	.LVL64:
 778              	.L46:
 779              	.LBB71:
 124:src/../h/list.hpp ****                  break;
 125:src/../h/list.hpp ****         }
 126:src/../h/list.hpp ****         if(!prev){
 780              		.loc 3 126 9
 781 0484 63840604 		beqz	a3,.L52
 782              	.LBB72:
 127:src/../h/list.hpp ****             head = elem;
 128:src/../h/list.hpp ****             head->next = next;
 129:src/../h/list.hpp ****             head->sleepTime = time;
 130:src/../h/list.hpp ****             head->next->sleepTime -=  head->sleepTime;
 131:src/../h/list.hpp ****         }
 132:src/../h/list.hpp ****         else {
 133:src/../h/list.hpp ****             prev->next = elem;
 783              		.loc 3 133 13
 784 0488 23B4A600 		sd	a0,8(a3)
 134:src/../h/list.hpp ****             elem->next = next;
 785              		.loc 3 134 13
 786 048c 2334F500 		sd	a5,8(a0)
 135:src/../h/list.hpp ****             int diff = time - timeCount;
 787              		.loc 3 135 17
 788 0490 BB84B440 		subw	s1,s1,a1
 789              	.LVL65:
 136:src/../h/list.hpp ****             elem->sleepTime = diff;
 790              		.loc 3 136 13
 791 0494 23289500 		sw	s1,16(a0)
 137:src/../h/list.hpp ****             if(next != nullptr)
 792              		.loc 3 137 13
 793 0498 63880700 		beqz	a5,.L45
 138:src/../h/list.hpp ****                 next->sleepTime -= diff;
 794              		.loc 3 138 33
 795 049c 03A70701 		lw	a4,16(a5)
 796 04a0 BB049740 		subw	s1,a4,s1
 797              	.LVL66:
 798              		.loc 3 138 17
 799 04a4 23A89700 		sw	s1,16(a5)
 800              	.LVL67:
 801              	.L45:
 802              	.LBE72:
 803              	.LBE71:
 804              	.LBE68:
 805              	.LBE67:
  89:src/tcb.cpp   ****     dispatch();
 806              		.loc 1 89 5 is_stmt 1
 807              		.loc 1 89 13 is_stmt 0
 808 04a8 97000000 		call	_ZN7_thread8dispatchEv
 808      E7800000 
 809              	.LVL68:
  90:src/tcb.cpp   ****     return 0; //TODO povratna vrednost!!!
 810              		.loc 1 90 5 is_stmt 1
GAS LISTING /tmp/ccR7gQ8w.s 			page 22


  91:src/tcb.cpp   **** }
 811              		.loc 1 91 1 is_stmt 0
 812 04b0 13050000 		li	a0,0
 813 04b4 83308101 		ld	ra,24(sp)
 814              		.cfi_remember_state
 815              		.cfi_restore 1
 816 04b8 03340101 		ld	s0,16(sp)
 817              		.cfi_restore 8
 818              		.cfi_def_cfa 2, 32
 819 04bc 83348100 		ld	s1,8(sp)
 820              		.cfi_restore 9
 821 04c0 03390100 		ld	s2,0(sp)
 822              		.cfi_restore 18
 823 04c4 13010102 		addi	sp,sp,32
 824              		.cfi_def_cfa_offset 0
 825 04c8 67800000 		jr	ra
 826              	.LVL69:
 827              	.L52:
 828              		.cfi_restore_state
 829              	.LBB75:
 830              	.LBB74:
 831              	.LBB73:
 127:src/../h/list.hpp ****             head->next = next;
 832              		.loc 3 127 13
 833 04cc 17070000 		la	a4,_ZN5Riscv15sleepingThreadsE
 833      03370700 
 834 04d4 2330A700 		sd	a0,0(a4)
 128:src/../h/list.hpp ****             head->sleepTime = time;
 835              		.loc 3 128 13
 836 04d8 2334F500 		sd	a5,8(a0)
 129:src/../h/list.hpp ****             head->next->sleepTime -=  head->sleepTime;
 837              		.loc 3 129 13
 838 04dc 23289500 		sw	s1,16(a0)
 130:src/../h/list.hpp ****         }
 839              		.loc 3 130 35
 840 04e0 03A70701 		lw	a4,16(a5)
 841 04e4 BB049740 		subw	s1,a4,s1
 842              	.LVL70:
 130:src/../h/list.hpp ****         }
 843              		.loc 3 130 13
 844 04e8 23A89700 		sw	s1,16(a5)
 845              	.LVL71:
 846 04ec 6FF0DFFB 		j	.L45
 847              	.LBE73:
 848              	.LBE74:
 849              	.LBE75:
 850              		.cfi_endproc
 851              	.LFE59:
 853              		.align	2
 854              		.globl	_ZN7_thread12consoleWriteEPv
 856              	_ZN7_thread12consoleWriteEPv:
 857              	.LFB60:
  92:src/tcb.cpp   **** 
  93:src/tcb.cpp   **** void _thread::consoleWrite(void* t) {
 858              		.loc 1 93 37 is_stmt 1
 859              		.cfi_startproc
 860              	.LVL72:
GAS LISTING /tmp/ccR7gQ8w.s 			page 23


 861 04f0 130101FF 		addi	sp,sp,-16
 862              		.cfi_def_cfa_offset 16
 863 04f4 23341100 		sd	ra,8(sp)
 864 04f8 23308100 		sd	s0,0(sp)
 865              		.cfi_offset 1, -8
 866              		.cfi_offset 8, -16
 867 04fc 13040101 		addi	s0,sp,16
 868              		.cfi_def_cfa 8, 0
 869              	.LVL73:
 870              	.L54:
  94:src/tcb.cpp   ****     {
 871              		.loc 1 94 5
  95:src/tcb.cpp   ****         while(true){
 872              		.loc 1 95 9
 873              	.LBB76:
  96:src/tcb.cpp   ****             char c = Riscv::buff1.take();
 874              		.loc 1 96 13
 875              		.loc 1 96 39 is_stmt 0
 876 0500 17050000 		la	a0,_ZN5Riscv5buff1E
 876      03350500 
 877 0508 97000000 		call	_ZN14KeyboardBuffer4takeEv@plt
 877      E7800000 
 878              	.LVL74:
  97:src/tcb.cpp   ****             if((*((char*)CONSOLE_STATUS) & CONSOLE_TX_STATUS_BIT) && (Riscv::buff1.getCount() > 0))
 879              		.loc 1 97 13 is_stmt 1
 880              		.loc 1 97 17 is_stmt 0
 881 0510 97070000 		la	a5,CONSOLE_STATUS
 881      83B70700 
 882 0518 83B70700 		ld	a5,0(a5)
 883 051c 83C70700 		lbu	a5,0(a5)
 884              		.loc 1 97 67
 885 0520 93F70702 		andi	a5,a5,32
 886 0524 E38E07FC 		beqz	a5,.L54
 887              	.LVL75:
 888              	.LBB77:
 889              	.LBB78:
 890              		.file 4 "src/../h/_buffer.hpp"
   1:src/../h/_buffer.hpp **** //
   2:src/../h/_buffer.hpp **** // Created by os on 9/10/22.
   3:src/../h/_buffer.hpp **** //
   4:src/../h/_buffer.hpp **** 
   5:src/../h/_buffer.hpp **** #ifndef PROJECT_BASE__BUFFER_HPP
   6:src/../h/_buffer.hpp **** #define PROJECT_BASE__BUFFER_HPP
   7:src/../h/_buffer.hpp **** 
   8:src/../h/_buffer.hpp **** #include "_sem.hpp"
   9:src/../h/_buffer.hpp **** 
  10:src/../h/_buffer.hpp **** class KeyboardBuffer {
  11:src/../h/_buffer.hpp **** public:
  12:src/../h/_buffer.hpp ****     KeyboardBuffer() : head(0),tail(0),count(0) { _sem::createSem(&itemAvailable, 0);}
  13:src/../h/_buffer.hpp ****     char take ();
  14:src/../h/_buffer.hpp ****     void append (char c);
  15:src/../h/_buffer.hpp ****     _sem *itemAvailable;
  16:src/../h/_buffer.hpp ****     uint64 getCount() { return count; }
 891              		.loc 4 16 25 is_stmt 1
 892              		.loc 4 16 32 is_stmt 0
 893 0528 97070000 		la	a5,_ZN5Riscv5buff1E
 893      83B70700 
GAS LISTING /tmp/ccR7gQ8w.s 			page 24


 894 0530 83B78711 		ld	a5,280(a5)
 895              	.LVL76:
 896              	.LBE78:
 897              	.LBE77:
 898              		.loc 1 97 67
 899 0534 E38607FC 		beqz	a5,.L54
  98:src/tcb.cpp   ****                 *((char*)CONSOLE_TX_DATA) = c;
 900              		.loc 1 98 17 is_stmt 1
 901 0538 97070000 		la	a5,CONSOLE_TX_DATA
 901      83B70700 
 902 0540 83B70700 		ld	a5,0(a5)
 903              		.loc 1 98 43 is_stmt 0
 904 0544 2380A700 		sb	a0,0(a5)
 905 0548 6FF09FFB 		j	.L54
 906              	.LBE76:
 907              		.cfi_endproc
 908              	.LFE60:
 910              		.align	2
 911              		.globl	_ZN7_thread12idleDeletionEv
 913              	_ZN7_thread12idleDeletionEv:
 914              	.LFB61:
  99:src/tcb.cpp   ****             }
 100:src/tcb.cpp   ****         }
 101:src/tcb.cpp   **** 
 102:src/tcb.cpp   ****     }
 103:src/tcb.cpp   **** }
 104:src/tcb.cpp   **** 
 105:src/tcb.cpp   **** void _thread::idleDeletion() {
 915              		.loc 1 105 30 is_stmt 1
 916              		.cfi_startproc
 917 054c 130101FE 		addi	sp,sp,-32
 918              		.cfi_def_cfa_offset 32
 919 0550 233C1100 		sd	ra,24(sp)
 920 0554 23388100 		sd	s0,16(sp)
 921 0558 23349100 		sd	s1,8(sp)
 922              		.cfi_offset 1, -8
 923              		.cfi_offset 8, -16
 924              		.cfi_offset 9, -24
 925 055c 13040102 		addi	s0,sp,32
 926              		.cfi_def_cfa 8, 0
 927 0560 6F004003 		j	.L61
 928              	.LVL77:
 929              	.L63:
 930              	.LBB79:
 931              	.LBB80:
 932              	.LBB81:
  35:src/../h/list.hpp ****         }
 933              		.loc 3 35 19 is_stmt 0
 934 0564 97070000 		la	a5,_ZN9Scheduler16readyThreadQueueE
 934      83B70700 
 935 056c 03B70700 		ld	a4,0(a5)
  35:src/../h/list.hpp ****         }
 936              		.loc 3 35 13
 937 0570 23B8E700 		sd	a4,16(a5)
 938 0574 6F000003 		j	.L58
 939              	.LVL78:
 940              	.L64:
GAS LISTING /tmp/ccR7gQ8w.s 			page 25


 941              	.LBE81:
 942              	.LBE80:
 943              	.LBB83:
 944              	.LBB84:
  19:src/../h/tcb.hpp **** 
 945              		.loc 2 19 27
 946 0578 97000000 		call	_ZdaPv@plt
 946      E7800000 
 947              	.LVL79:
 948              	.L60:
 949              	.LBE84:
 950              	.LBE83:
 106:src/tcb.cpp   ****     while(true){
 107:src/tcb.cpp   ****         _thread *t = Scheduler::readyThreadQueue.traverseList();
 108:src/tcb.cpp   ****         if(t->isFinished())
 109:src/tcb.cpp   ****             delete t;
 951              		.loc 1 109 20
 952 0580 13850400 		mv	a0,s1
 953 0584 97000000 		call	_ZdlPv@plt
 953      E7800000 
 954              	.LVL80:
 955              	.L59:
 110:src/tcb.cpp   ****         dispatch();
 956              		.loc 1 110 9 is_stmt 1
 957              		.loc 1 110 17 is_stmt 0
 958 058c 97000000 		call	_ZN7_thread8dispatchEv
 958      E7800000 
 959              	.LVL81:
 960              	.LBE79:
 106:src/tcb.cpp   ****     while(true){
 961              		.loc 1 106 5 is_stmt 1
 962              	.L61:
 106:src/tcb.cpp   ****     while(true){
 963              		.loc 1 106 5
 964              	.LBB90:
 107:src/tcb.cpp   ****         if(t->isFinished())
 965              		.loc 1 107 9
 966              	.LBB86:
 967              	.LBB82:
  34:src/../h/list.hpp ****             pom = head;
 968              		.loc 3 34 12 is_stmt 0
 969 0594 97070000 		la	a5,_ZN9Scheduler16readyThreadQueueE
 969      83B70700 
 970 059c 83B70701 		ld	a5,16(a5)
  34:src/../h/list.hpp ****             pom = head;
 971              		.loc 3 34 9
 972 05a0 E38207FC 		beqz	a5,.L63
 973              	.L58:
  37:src/../h/list.hpp ****         pom = pom->next;
 974              		.loc 3 37 15
 975 05a4 17070000 		la	a4,_ZN9Scheduler16readyThreadQueueE
 975      03370700 
 976 05ac 83370701 		ld	a5,16(a4)
 977              	.LVL82:
  38:src/../h/list.hpp **** 
 978              		.loc 3 38 20
 979 05b0 83B68700 		ld	a3,8(a5)
GAS LISTING /tmp/ccR7gQ8w.s 			page 26


  38:src/../h/list.hpp **** 
 980              		.loc 3 38 9
 981 05b4 2338D700 		sd	a3,16(a4)
  40:src/../h/list.hpp ****     }
 982              		.loc 3 40 19
 983 05b8 83B40700 		ld	s1,0(a5)
 984              	.LVL83:
 985              	.LBE82:
 986              	.LBE86:
 108:src/tcb.cpp   ****             delete t;
 987              		.loc 1 108 9 is_stmt 1
 988              	.LBB87:
 989              	.LBB88:
  21:src/../h/tcb.hpp **** 
 990              		.loc 2 21 31
  21:src/../h/tcb.hpp **** 
 991              		.loc 2 21 38 is_stmt 0
 992 05bc 83C78402 		lbu	a5,40(s1)
 993              	.LVL84:
 994              	.LBE88:
 995              	.LBE87:
 108:src/tcb.cpp   ****             delete t;
 996              		.loc 1 108 9
 997 05c0 E38607FC 		beqz	a5,.L59
 109:src/tcb.cpp   ****         dispatch();
 998              		.loc 1 109 13 is_stmt 1
 109:src/tcb.cpp   ****         dispatch();
 999              		.loc 1 109 21 is_stmt 0
 1000 05c4 E38404FC 		beqz	s1,.L59
 1001              	.LVL85:
 1002              	.LBB89:
 1003              	.LBB85:
  19:src/../h/tcb.hpp **** 
 1004              		.loc 2 19 18 is_stmt 1
  19:src/../h/tcb.hpp **** 
 1005              		.loc 2 19 27 is_stmt 0
 1006 05c8 03B58400 		ld	a0,8(s1)
  19:src/../h/tcb.hpp **** 
 1007              		.loc 2 19 32
 1008 05cc E31605FA 		bnez	a0,.L64
 1009 05d0 6FF01FFB 		j	.L60
 1010              	.LBE85:
 1011              	.LBE89:
 1012              	.LBE90:
 1013              		.cfi_endproc
 1014              	.LFE61:
 1016              		.globl	_ZN7_thread16timeSliceCounterE
 1017              		.globl	_ZN7_thread7runningE
 1018              		.bss
 1019              		.align	3
 1020              		.set	.LANCHOR0,. + 0
 1023              	_ZN7_thread7runningE:
 1024 0000 00000000 		.zero	8
 1024      00000000 
 1027              	_ZN7_thread16timeSliceCounterE:
 1028 0008 00000000 		.zero	8
 1028      00000000 
GAS LISTING /tmp/ccR7gQ8w.s 			page 27


 1029              		.text
 1030              	.Letext0:
 1031              		.file 5 "src/../h/../lib/hw.h"
 1032              		.file 6 "src/../h/syscall_c.h"
 1033              		.file 7 "src/../h/_sem.hpp"
 1034              		.file 8 "src/../h/scheduler.hpp"
 1035              		.file 9 "src/../h/riscv.hpp"
 1036              		.file 10 "src/../h/../h/print.hpp"
 5725              		.align	3
 5728              	DW.ref.__gxx_personality_v0:
 5729 0000 00000000 		.dword	__gxx_personality_v0
 5729      00000000 
 5730              		.ident	"GCC: (Ubuntu 9.4.0-1ubuntu1~20.04) 9.4.0"
 5731              		.section	.note.GNU-stack,"",@progbits
GAS LISTING /tmp/ccR7gQ8w.s 			page 28

