GAS LISTING /tmp/ccr0IOyB.s 			page 1


   1              		.file	"tcb.cpp"
   2              		.option pic
   3              		.option norelax
   4              		.text
   5              	.Ltext0:
   6              		.section	.rodata.str1.8,"aMS",@progbits,1
   7              		.align	3
   8              	.LC0:
   9 0000 706F7A76 		.string	"pozvan konstukror"
   9      616E206B 
   9      6F6E7374 
   9      756B726F 
   9      7200
  10              		.text
  11              		.align	2
  12              		.globl	_ZN7_thread12createThreadEPFvvE
  14              	_ZN7_thread12createThreadEPFvvE:
  15              	.LFB36:
  16              		.file 1 "src/tcb.cpp"
   1:src/tcb.cpp   **** //
   2:src/tcb.cpp   **** // Created by marko on 20.4.22..
   3:src/tcb.cpp   **** //
   4:src/tcb.cpp   **** 
   5:src/tcb.cpp   **** #include "../h/tcb.hpp"
   6:src/tcb.cpp   **** #include "../h/riscv.hpp"
   7:src/tcb.cpp   **** 
   8:src/tcb.cpp   **** 
   9:src/tcb.cpp   **** _thread *_thread::running = nullptr;
  10:src/tcb.cpp   **** 
  11:src/tcb.cpp   **** uint64 _thread::timeSliceCounter = 0;
  12:src/tcb.cpp   **** 
  13:src/tcb.cpp   **** //mickov kod za kreiranje niti
  14:src/tcb.cpp   **** _thread *_thread::createThread(Body body)
  15:src/tcb.cpp   **** {
  17              		.loc 1 15 1
  18              		.cfi_startproc
  19              		.cfi_personality 0x9b,DW.ref.__gxx_personality_v0
  20              		.cfi_lsda 0x1b,.LLSDA36
  21              	.LVL0:
  22 0000 130101FE 		addi	sp,sp,-32
  23              		.cfi_def_cfa_offset 32
  24 0004 233C1100 		sd	ra,24(sp)
  25 0008 23388100 		sd	s0,16(sp)
  26 000c 23349100 		sd	s1,8(sp)
  27 0010 23302101 		sd	s2,0(sp)
  28              		.cfi_offset 1, -8
  29              		.cfi_offset 8, -16
  30              		.cfi_offset 9, -24
  31              		.cfi_offset 18, -32
  32 0014 13040102 		addi	s0,sp,32
  33              		.cfi_def_cfa 8, 0
  34 0018 13090500 		mv	s2,a0
  16:src/tcb.cpp   ****     return new _thread(body, TIME_SLICE);
  35              		.loc 1 16 5
  36              		.loc 1 16 40 is_stmt 0
  37 001c 13058003 		li	a0,56
  38              	.LVL1:
GAS LISTING /tmp/ccr0IOyB.s 			page 2


  39              	.LEHB0:
  40 0020 97000000 		call	_Znwm@plt
  40      E7800000 
  41              	.LVL2:
  42              	.LEHE0:
  43 0028 93040500 		mv	s1,a0
  44              	.LVL3:
  45              	.LBB11:
  46              	.LBB12:
  47              		.file 2 "src/../h/tcb.hpp"
   1:src/../h/tcb.hpp **** //
   2:src/../h/tcb.hpp **** // Created by marko on 20.4.22..
   3:src/../h/tcb.hpp **** //
   4:src/../h/tcb.hpp **** 
   5:src/../h/tcb.hpp **** #ifndef OS1_VEZBE07_RISCV_CONTEXT_SWITCH_2_INTERRUPT_TCB_HPP
   6:src/../h/tcb.hpp **** #define OS1_VEZBE07_RISCV_CONTEXT_SWITCH_2_INTERRUPT_TCB_HPP
   7:src/../h/tcb.hpp **** 
   8:src/../h/tcb.hpp **** #include "syscall_c.h"
   9:src/../h/tcb.hpp **** #include "../lib/hw.h"
  10:src/../h/tcb.hpp **** #include "scheduler.hpp"
  11:src/../h/tcb.hpp **** #include "../h/print.hpp"
  12:src/../h/tcb.hpp **** 
  13:src/../h/tcb.hpp **** // Thread Control Block
  14:src/../h/tcb.hpp **** class _thread
  15:src/../h/tcb.hpp **** {
  16:src/../h/tcb.hpp **** public:
  17:src/../h/tcb.hpp ****     ~_thread() { delete[] stack; }
  18:src/../h/tcb.hpp **** 
  19:src/../h/tcb.hpp ****     bool isFinished() const { return finished; }
  20:src/../h/tcb.hpp **** 
  21:src/../h/tcb.hpp ****     void setFinished(bool value) { finished = value; }
  22:src/../h/tcb.hpp **** 
  23:src/../h/tcb.hpp ****     uint64 getTimeSlice() const { return timeSlice; }
  24:src/../h/tcb.hpp **** 
  25:src/../h/tcb.hpp ****     using Body = void (*)();
  26:src/../h/tcb.hpp **** 
  27:src/../h/tcb.hpp ****     //mickov poziv, i poziv za projekat
  28:src/../h/tcb.hpp ****     static _thread *createThread(Body body);
  29:src/../h/tcb.hpp ****     static int createThread(thread_t*, Body, void*, void*);
  30:src/../h/tcb.hpp **** 
  31:src/../h/tcb.hpp ****     static void yield();
  32:src/../h/tcb.hpp **** 
  33:src/../h/tcb.hpp ****     static _thread *running;
  34:src/../h/tcb.hpp **** 
  35:src/../h/tcb.hpp **** private:
  36:src/../h/tcb.hpp ****     //mickov konstruktor
  37:src/../h/tcb.hpp ****     _thread(Body body, uint64 timeSlice) :
  38:src/../h/tcb.hpp ****             body(body),
  39:src/../h/tcb.hpp ****             stack(body != nullptr ? new uint64[STACK_SIZE] : nullptr),
  40:src/../h/tcb.hpp ****             context({(uint64) &threadWrapper,
  41:src/../h/tcb.hpp ****                      stack != nullptr ? (uint64) &stack[STACK_SIZE] : 0
  42:src/../h/tcb.hpp ****                     }),
  43:src/../h/tcb.hpp ****             timeSlice(timeSlice),
  44:src/../h/tcb.hpp ****             finished(false)
  48              		.loc 2 44 27
  49 002c 23302501 		sd	s2,0(a0)
  39:src/../h/tcb.hpp ****             context({(uint64) &threadWrapper,
GAS LISTING /tmp/ccr0IOyB.s 			page 3


  50              		.loc 2 39 35
  51 0030 630A0900 		beqz	s2,.L6
  39:src/../h/tcb.hpp ****             context({(uint64) &threadWrapper,
  52              		.loc 2 39 58
  53 0034 37250000 		li	a0,8192
  54              	.LEHB1:
  55 0038 97000000 		call	_Znam@plt
  55      E7800000 
  56              	.LVL4:
  57 0040 6F008000 		j	.L2
  58              	.L6:
  39:src/../h/tcb.hpp ****             context({(uint64) &threadWrapper,
  59              		.loc 2 39 35
  60 0044 13050000 		li	a0,0
  61              	.L2:
  62              		.loc 2 44 27
  63 0048 23B4A400 		sd	a0,8(s1)
  64 004c 97070000 		lla	a5,_ZN7_thread13threadWrapperEv
  64      93870700 
  65 0054 23B8F400 		sd	a5,16(s1)
  41:src/../h/tcb.hpp ****                     }),
  66              		.loc 2 41 39
  67 0058 630A0502 		beqz	a0,.L7
  41:src/../h/tcb.hpp ****                     }),
  68              		.loc 2 41 50
  69 005c B7270000 		li	a5,8192
  70 0060 B307F500 		add	a5,a0,a5
  71              	.L3:
  72              		.loc 2 44 27
  73 0064 23BCF400 		sd	a5,24(s1)
  74 0068 93072000 		li	a5,2
  75 006c 23B0F402 		sd	a5,32(s1)
  76 0070 23840402 		sb	zero,40(s1)
  77 0074 23B80402 		sd	zero,48(s1)
  45:src/../h/tcb.hpp ****     {
  46:src/../h/tcb.hpp ****         if (body != nullptr) { Scheduler::put(this); printString("pozvan konstukror");}
  78              		.loc 2 46 9 is_stmt 1
  79 0078 63060904 		beqz	s2,.L1
  80              		.loc 2 46 32
  81              		.loc 2 46 46 is_stmt 0
  82 007c 13850400 		mv	a0,s1
  83 0080 97000000 		call	_ZN9Scheduler3putEP7_thread@plt
  83      E7800000 
  84              	.LVL5:
  85 0088 6F00C000 		j	.L10
  86              	.L7:
  41:src/../h/tcb.hpp ****                     }),
  87              		.loc 2 41 39
  88 008c 93070000 		li	a5,0
  89 0090 6FF05FFD 		j	.L3
  90              	.L10:
  91              		.loc 2 46 54 is_stmt 1
  92              		.loc 2 46 65 is_stmt 0
  93 0094 17050000 		lla	a0,.LC0
  93      13050500 
  94 009c 97000000 		call	_Z11printStringPKc@plt
  94      E7800000 
GAS LISTING /tmp/ccr0IOyB.s 			page 4


  95              	.LVL6:
  96              	.LEHE1:
  97 00a4 6F000002 		j	.L1
  98              	.L8:
  99 00a8 13090500 		mv	s2,a0
 100              	.LVL7:
 101              	.LBE12:
 102              	.LBE11:
 103              		.loc 1 16 40
 104 00ac 13850400 		mv	a0,s1
 105 00b0 97000000 		call	_ZdlPv@plt
 105      E7800000 
 106              	.LVL8:
 107 00b8 13050900 		mv	a0,s2
 108              	.LEHB2:
 109 00bc 97000000 		call	_Unwind_Resume@plt
 109      E7800000 
 110              	.LVL9:
 111              	.LEHE2:
 112              	.L1:
  17:src/tcb.cpp   **** }
 113              		.loc 1 17 1
 114 00c4 13850400 		mv	a0,s1
 115 00c8 83308101 		ld	ra,24(sp)
 116              		.cfi_restore 1
 117 00cc 03340101 		ld	s0,16(sp)
 118              		.cfi_restore 8
 119              		.cfi_def_cfa 2, 32
 120 00d0 83348100 		ld	s1,8(sp)
 121              		.cfi_restore 9
 122              	.LVL10:
 123 00d4 03390100 		ld	s2,0(sp)
 124              		.cfi_restore 18
 125              	.LVL11:
 126 00d8 13010102 		addi	sp,sp,32
 127              		.cfi_def_cfa_offset 0
 128 00dc 67800000 		jr	ra
 129              		.cfi_endproc
 130              	.LFE36:
 131              		.globl	__gxx_personality_v0
 132              		.section	.gcc_except_table,"a",@progbits
 133              	.LLSDA36:
 134 0000 FF       		.byte	0xff
 135 0001 FF       		.byte	0xff
 136 0002 03       		.byte	0x3
 137 0003 27       		.byte	0x27
 138 0004 00000000 		.4byte	.LEHB0-.LFB36
 139 0008 00000000 		.4byte	.LEHE0-.LEHB0
 140 000c 00000000 		.4byte	0
 141 0010 00       		.byte	0
 142 0011 00000000 		.4byte	.LEHB1-.LFB36
 143 0015 00000000 		.4byte	.LEHE1-.LEHB1
 144 0019 00000000 		.4byte	.L8-.LFB36
 145 001d 00       		.byte	0
 146 001e 00000000 		.4byte	.LEHB2-.LFB36
 147 0022 00000000 		.4byte	.LEHE2-.LEHB2
 148 0026 00000000 		.4byte	0
GAS LISTING /tmp/ccr0IOyB.s 			page 5


 149 002a 00       		.byte	0
 150              		.text
 152              		.align	2
 153              		.globl	_ZN7_thread12createThreadEPPS_PFvvEPvS4_
 155              	_ZN7_thread12createThreadEPPS_PFvvEPvS4_:
 156              	.LFB37:
  18:src/tcb.cpp   **** //poziv za projekat
  19:src/tcb.cpp   **** int _thread::createThread(thread_t* handle, Body body, void *args, void *stack)
  20:src/tcb.cpp   **** {
 157              		.loc 1 20 1 is_stmt 1
 158              		.cfi_startproc
 159              		.cfi_personality 0x9b,DW.ref.__gxx_personality_v0
 160              		.cfi_lsda 0x1b,.LLSDA37
 161              	.LVL12:
 162 00e0 130101FC 		addi	sp,sp,-64
 163              		.cfi_def_cfa_offset 64
 164 00e4 233C1102 		sd	ra,56(sp)
 165 00e8 23388102 		sd	s0,48(sp)
 166 00ec 23349102 		sd	s1,40(sp)
 167 00f0 23302103 		sd	s2,32(sp)
 168 00f4 233C3101 		sd	s3,24(sp)
 169 00f8 23384101 		sd	s4,16(sp)
 170 00fc 23345101 		sd	s5,8(sp)
 171              		.cfi_offset 1, -8
 172              		.cfi_offset 8, -16
 173              		.cfi_offset 9, -24
 174              		.cfi_offset 18, -32
 175              		.cfi_offset 19, -40
 176              		.cfi_offset 20, -48
 177              		.cfi_offset 21, -56
 178 0100 13040104 		addi	s0,sp,64
 179              		.cfi_def_cfa 8, 0
 180 0104 130A0500 		mv	s4,a0
 181 0108 93890500 		mv	s3,a1
 182 010c 930A0600 		mv	s5,a2
 183 0110 13890600 		mv	s2,a3
  21:src/tcb.cpp   ****     *handle = new _thread(body, args, stack);
 184              		.loc 1 21 5
 185              		.loc 1 21 44 is_stmt 0
 186 0114 13058003 		li	a0,56
 187              	.LVL13:
 188              	.LEHB3:
 189 0118 97000000 		call	_Znwm@plt
 189      E7800000 
 190              	.LVL14:
 191              	.LEHE3:
 192 0120 93040500 		mv	s1,a0
 193              	.LVL15:
 194              	.LBB16:
 195              	.LBB17:
  47:src/../h/tcb.hpp ****     }
  48:src/../h/tcb.hpp **** 
  49:src/../h/tcb.hpp **** 
  50:src/../h/tcb.hpp **** 
  51:src/../h/tcb.hpp ****     _thread(Body body, void *args, void *stackk) :
  52:src/../h/tcb.hpp ****             body(body),
  53:src/../h/tcb.hpp ****             stack(body != nullptr ? (uint64*)stackk : nullptr),
GAS LISTING /tmp/ccr0IOyB.s 			page 6


  54:src/../h/tcb.hpp ****             context({(uint64) &threadWrapper,
  55:src/../h/tcb.hpp ****                      stack != nullptr ?  (uint64) &stack[1024] : 0
  56:src/../h/tcb.hpp ****                     }),
  57:src/../h/tcb.hpp ****             timeSlice(DEFAULT_TIME_SLICE),
  58:src/../h/tcb.hpp ****             finished(false),
  59:src/../h/tcb.hpp ****             args(args)
 196              		.loc 2 59 22
 197 0124 23303501 		sd	s3,0(a0)
  53:src/../h/tcb.hpp ****             context({(uint64) &threadWrapper,
 198              		.loc 2 53 35
 199 0128 63840904 		beqz	s3,.L23
 200              	.LVL16:
 201              	.L12:
 202              		.loc 2 59 22
 203 012c 23B42401 		sd	s2,8(s1)
 204 0130 97070000 		lla	a5,_ZN7_thread13threadWrapperEv
 204      93870700 
 205 0138 23B8F400 		sd	a5,16(s1)
  55:src/../h/tcb.hpp ****                     }),
 206              		.loc 2 55 39
 207 013c 630E0902 		beqz	s2,.L18
  55:src/../h/tcb.hpp ****                     }),
 208              		.loc 2 55 51
 209 0140 B7260000 		li	a3,8192
 210 0144 3309D900 		add	s2,s2,a3
 211              	.L13:
 212              		.loc 2 59 22
 213 0148 23BC2401 		sd	s2,24(s1)
 214 014c 93072000 		li	a5,2
 215 0150 23B0F402 		sd	a5,32(s1)
 216 0154 23840402 		sb	zero,40(s1)
 217 0158 23B85403 		sd	s5,48(s1)
  60:src/../h/tcb.hpp ****     {
  61:src/../h/tcb.hpp ****         if (body != nullptr) {
 218              		.loc 2 61 9 is_stmt 1
 219 015c 63820902 		beqz	s3,.L14
  62:src/../h/tcb.hpp ****             Scheduler::put(this);
 220              		.loc 2 62 13
 221              		.loc 2 62 27 is_stmt 0
 222 0160 13850400 		mv	a0,s1
 223              	.LEHB4:
 224 0164 97000000 		call	_ZN9Scheduler3putEP7_thread@plt
 224      E7800000 
 225              	.LVL17:
 226              	.LEHE4:
 227 016c 6F004001 		j	.L14
 228              	.LVL18:
 229              	.L23:
  53:src/../h/tcb.hpp ****             context({(uint64) &threadWrapper,
 230              		.loc 2 53 35
 231 0170 13090000 		li	s2,0
 232              	.LVL19:
 233 0174 6FF09FFB 		j	.L12
 234              	.L18:
  55:src/../h/tcb.hpp ****                     }),
 235              		.loc 2 55 39
 236 0178 13090000 		li	s2,0
GAS LISTING /tmp/ccr0IOyB.s 			page 7


 237 017c 6FF0DFFC 		j	.L13
 238              	.L14:
 239              	.LVL20:
 240              	.LBE17:
 241              	.LBE16:
 242              		.loc 1 21 13
 243 0180 23309A00 		sd	s1,0(s4)
  22:src/tcb.cpp   ****     if(*handle != nullptr)
 244              		.loc 1 22 5 is_stmt 1
 245 0184 63860402 		beqz	s1,.L19
  23:src/tcb.cpp   ****         return 0;
 246              		.loc 1 23 16 is_stmt 0
 247 0188 13050000 		li	a0,0
 248              	.L21:
  24:src/tcb.cpp   ****     else
  25:src/tcb.cpp   ****         return -2;
  26:src/tcb.cpp   **** }
 249              		.loc 1 26 1
 250 018c 83308103 		ld	ra,56(sp)
 251              		.cfi_remember_state
 252              		.cfi_restore 1
 253 0190 03340103 		ld	s0,48(sp)
 254              		.cfi_restore 8
 255              		.cfi_def_cfa 2, 64
 256 0194 83348102 		ld	s1,40(sp)
 257              		.cfi_restore 9
 258 0198 03390102 		ld	s2,32(sp)
 259              		.cfi_restore 18
 260 019c 83398101 		ld	s3,24(sp)
 261              		.cfi_restore 19
 262              	.LVL21:
 263 01a0 033A0101 		ld	s4,16(sp)
 264              		.cfi_restore 20
 265              	.LVL22:
 266 01a4 833A8100 		ld	s5,8(sp)
 267              		.cfi_restore 21
 268              	.LVL23:
 269 01a8 13010104 		addi	sp,sp,64
 270              		.cfi_def_cfa_offset 0
 271 01ac 67800000 		jr	ra
 272              	.LVL24:
 273              	.L19:
 274              		.cfi_restore_state
  25:src/tcb.cpp   **** }
 275              		.loc 1 25 17
 276 01b0 1305E0FF 		li	a0,-2
 277 01b4 6FF09FFD 		j	.L21
 278              	.LVL25:
 279              	.L20:
 280 01b8 13090500 		mv	s2,a0
  21:src/tcb.cpp   ****     if(*handle != nullptr)
 281              		.loc 1 21 44
 282 01bc 13850400 		mv	a0,s1
 283 01c0 97000000 		call	_ZdlPv@plt
 283      E7800000 
 284              	.LVL26:
 285 01c8 13050900 		mv	a0,s2
GAS LISTING /tmp/ccr0IOyB.s 			page 8


 286              	.LEHB5:
 287 01cc 97000000 		call	_Unwind_Resume@plt
 287      E7800000 
 288              	.LVL27:
 289              	.LEHE5:
 290              		.cfi_endproc
 291              	.LFE37:
 292              		.section	.gcc_except_table
 293              	.LLSDA37:
 294 002b FF       		.byte	0xff
 295 002c FF       		.byte	0xff
 296 002d 03       		.byte	0x3
 297 002e 27       		.byte	0x27
 298 002f 00000000 		.4byte	.LEHB3-.LFB37
 299 0033 00000000 		.4byte	.LEHE3-.LEHB3
 300 0037 00000000 		.4byte	0
 301 003b 00       		.byte	0
 302 003c 00000000 		.4byte	.LEHB4-.LFB37
 303 0040 00000000 		.4byte	.LEHE4-.LEHB4
 304 0044 00000000 		.4byte	.L20-.LFB37
 305 0048 00       		.byte	0
 306 0049 00000000 		.4byte	.LEHB5-.LFB37
 307 004d 00000000 		.4byte	.LEHE5-.LEHB5
 308 0051 00000000 		.4byte	0
 309 0055 00       		.byte	0
 310              		.text
 312              		.align	2
 313              		.globl	_ZN7_thread5yieldEv
 315              	_ZN7_thread5yieldEv:
 316              	.LFB38:
  27:src/tcb.cpp   **** 
  28:src/tcb.cpp   **** void _thread::yield()
  29:src/tcb.cpp   **** {
 317              		.loc 1 29 1 is_stmt 1
 318              		.cfi_startproc
 319 01d4 130101FF 		addi	sp,sp,-16
 320              		.cfi_def_cfa_offset 16
 321 01d8 23348100 		sd	s0,8(sp)
 322              		.cfi_offset 8, -8
 323 01dc 13040101 		addi	s0,sp,16
 324              		.cfi_def_cfa 8, 0
  30:src/tcb.cpp   ****     __asm__ volatile ("ecall");
 325              		.loc 1 30 5
 326              		.loc 1 30 31 is_stmt 0
 327              	#APP
 328              	# 30 "src/tcb.cpp" 1
  31              	}
 329              		ecall
 330              	# 0 "" 2
 331              		.loc 1 31 1
 332              	#NO_APP
 333 01e4 03348100 		ld	s0,8(sp)
 334              		.cfi_restore 8
 335              		.cfi_def_cfa 2, 16
 336 01e8 13010101 		addi	sp,sp,16
 337              		.cfi_def_cfa_offset 0
 338 01ec 67800000 		jr	ra
GAS LISTING /tmp/ccr0IOyB.s 			page 9


 339              		.cfi_endproc
 340              	.LFE38:
 342              		.section	.rodata.str1.8
 343 0012 00000000 		.align	3
 343      0000
 344              	.LC1:
 345 0018 676F746F 		.string	"gotova nit"
 345      7661206E 
 345      697400
 346              		.text
 347              		.align	2
 348              		.globl	_ZN7_thread13threadWrapperEv
 350              	_ZN7_thread13threadWrapperEv:
 351              	.LFB40:
  32:src/tcb.cpp   **** 
  33:src/tcb.cpp   **** void _thread::dispatch()
  34:src/tcb.cpp   **** {
  35:src/tcb.cpp   ****     _thread *old = running;
  36:src/tcb.cpp   ****     if (!old->isFinished()) { Scheduler::put(old); }
  37:src/tcb.cpp   ****     running = Scheduler::get();
  38:src/tcb.cpp   **** 
  39:src/tcb.cpp   ****     _thread::contextSwitch(&old->context, &running->context);
  40:src/tcb.cpp   **** }
  41:src/tcb.cpp   **** 
  42:src/tcb.cpp   **** void _thread::threadWrapper()
  43:src/tcb.cpp   **** {
 352              		.loc 1 43 1 is_stmt 1
 353              		.cfi_startproc
 354 01f0 130101FE 		addi	sp,sp,-32
 355              		.cfi_def_cfa_offset 32
 356 01f4 233C1100 		sd	ra,24(sp)
 357 01f8 23388100 		sd	s0,16(sp)
 358 01fc 23349100 		sd	s1,8(sp)
 359              		.cfi_offset 1, -8
 360              		.cfi_offset 8, -16
 361              		.cfi_offset 9, -24
 362 0200 13040102 		addi	s0,sp,32
 363              		.cfi_def_cfa 8, 0
  44:src/tcb.cpp   ****     Riscv::popSppSpie();
 364              		.loc 1 44 5
 365              		.loc 1 44 22 is_stmt 0
 366 0204 97000000 		call	_ZN5Riscv10popSppSpieEv@plt
 366      E7800000 
 367              	.LVL28:
  45:src/tcb.cpp   ****     running->body();
 368              		.loc 1 45 5 is_stmt 1
 369              		.loc 1 45 14 is_stmt 0
 370 020c 97040000 		lla	s1,.LANCHOR0
 370      93840400 
 371 0214 83B70400 		ld	a5,0(s1)
 372 0218 83B70700 		ld	a5,0(a5)
 373              		.loc 1 45 18
 374 021c E7800700 		jalr	a5
 375              	.LVL29:
  46:src/tcb.cpp   ****     running->setFinished(true);
 376              		.loc 1 46 5 is_stmt 1
 377              		.loc 1 46 25 is_stmt 0
GAS LISTING /tmp/ccr0IOyB.s 			page 10


 378 0220 83B70400 		ld	a5,0(s1)
 379              	.LVL30:
 380              	.LBB18:
 381              	.LBB19:
  21:src/../h/tcb.hpp **** 
 382              		.loc 2 21 36 is_stmt 1
  21:src/../h/tcb.hpp **** 
 383              		.loc 2 21 45 is_stmt 0
 384 0224 13071000 		li	a4,1
 385 0228 2384E702 		sb	a4,40(a5)
 386              	.LVL31:
 387              	.LBE19:
 388              	.LBE18:
  47:src/tcb.cpp   ****     printString("gotova nit");
 389              		.loc 1 47 5 is_stmt 1
 390              		.loc 1 47 16 is_stmt 0
 391 022c 17050000 		lla	a0,.LC1
 391      13050500 
 392 0234 97000000 		call	_Z11printStringPKc@plt
 392      E7800000 
 393              	.LVL32:
  48:src/tcb.cpp   ****     _thread::yield();
 394              		.loc 1 48 5 is_stmt 1
 395              		.loc 1 48 19 is_stmt 0
 396 023c 97000000 		call	_ZN7_thread5yieldEv
 396      E7800000 
 397              	.LVL33:
  49:src/tcb.cpp   **** }
 398              		.loc 1 49 1
 399 0244 83308101 		ld	ra,24(sp)
 400              		.cfi_restore 1
 401 0248 03340101 		ld	s0,16(sp)
 402              		.cfi_restore 8
 403              		.cfi_def_cfa 2, 32
 404 024c 83348100 		ld	s1,8(sp)
 405              		.cfi_restore 9
 406 0250 13010102 		addi	sp,sp,32
 407              		.cfi_def_cfa_offset 0
 408 0254 67800000 		jr	ra
 409              		.cfi_endproc
 410              	.LFE40:
 412              		.align	2
 413              		.globl	_ZN7_thread8dispatchEv
 415              	_ZN7_thread8dispatchEv:
 416              	.LFB39:
  34:src/tcb.cpp   ****     _thread *old = running;
 417              		.loc 1 34 1 is_stmt 1
 418              		.cfi_startproc
 419 0258 130101FE 		addi	sp,sp,-32
 420              		.cfi_def_cfa_offset 32
 421 025c 233C1100 		sd	ra,24(sp)
 422 0260 23388100 		sd	s0,16(sp)
 423 0264 23349100 		sd	s1,8(sp)
 424              		.cfi_offset 1, -8
 425              		.cfi_offset 8, -16
 426              		.cfi_offset 9, -24
 427 0268 13040102 		addi	s0,sp,32
GAS LISTING /tmp/ccr0IOyB.s 			page 11


 428              		.cfi_def_cfa 8, 0
  35:src/tcb.cpp   ****     if (!old->isFinished()) { Scheduler::put(old); }
 429              		.loc 1 35 5
  35:src/tcb.cpp   ****     if (!old->isFinished()) { Scheduler::put(old); }
 430              		.loc 1 35 14 is_stmt 0
 431 026c 97040000 		ld	s1,.LANCHOR0
 431      83B40400 
 432              	.LVL34:
  36:src/tcb.cpp   ****     running = Scheduler::get();
 433              		.loc 1 36 5 is_stmt 1
 434              	.LBB20:
 435              	.LBB21:
  19:src/../h/tcb.hpp **** 
 436              		.loc 2 19 31
  19:src/../h/tcb.hpp **** 
 437              		.loc 2 19 38 is_stmt 0
 438 0274 83C78402 		lbu	a5,40(s1)
 439              	.LVL35:
 440              	.LBE21:
 441              	.LBE20:
  36:src/tcb.cpp   ****     running = Scheduler::get();
 442              		.loc 1 36 5
 443 0278 638C0702 		beqz	a5,.L31
 444              	.L29:
  37:src/tcb.cpp   **** 
 445              		.loc 1 37 5 is_stmt 1
  37:src/tcb.cpp   **** 
 446              		.loc 1 37 29 is_stmt 0
 447 027c 97000000 		call	_ZN9Scheduler3getEv@plt
 447      E7800000 
 448              	.LVL36:
  37:src/tcb.cpp   **** 
 449              		.loc 1 37 13
 450 0284 97070000 		sd	a0,.LANCHOR0,a5
 450      23B0A700 
  39:src/tcb.cpp   **** }
 451              		.loc 1 39 5 is_stmt 1
  39:src/tcb.cpp   **** }
 452              		.loc 1 39 27 is_stmt 0
 453 028c 93050501 		addi	a1,a0,16
 454 0290 13850401 		addi	a0,s1,16
 455 0294 97000000 		call	_ZN7_thread13contextSwitchEPNS_7ContextES1_@plt
 455      E7800000 
 456              	.LVL37:
  40:src/tcb.cpp   **** 
 457              		.loc 1 40 1
 458 029c 83308101 		ld	ra,24(sp)
 459              		.cfi_remember_state
 460              		.cfi_restore 1
 461 02a0 03340101 		ld	s0,16(sp)
 462              		.cfi_restore 8
 463              		.cfi_def_cfa 2, 32
 464 02a4 83348100 		ld	s1,8(sp)
 465              		.cfi_restore 9
 466              	.LVL38:
 467 02a8 13010102 		addi	sp,sp,32
 468              		.cfi_def_cfa_offset 0
GAS LISTING /tmp/ccr0IOyB.s 			page 12


 469 02ac 67800000 		jr	ra
 470              	.LVL39:
 471              	.L31:
 472              		.cfi_restore_state
  36:src/tcb.cpp   ****     running = Scheduler::get();
 473              		.loc 1 36 31 is_stmt 1 discriminator 1
  36:src/tcb.cpp   ****     running = Scheduler::get();
 474              		.loc 1 36 45 is_stmt 0 discriminator 1
 475 02b0 13850400 		mv	a0,s1
 476 02b4 97000000 		call	_ZN9Scheduler3putEP7_thread@plt
 476      E7800000 
 477              	.LVL40:
 478 02bc 6FF01FFC 		j	.L29
 479              		.cfi_endproc
 480              	.LFE39:
 482              		.align	2
 483              		.globl	_ZN7_thread10threadStopEv
 485              	_ZN7_thread10threadStopEv:
 486              	.LFB41:
  50:src/tcb.cpp   **** 
  51:src/tcb.cpp   **** int _thread::threadStop(){
 487              		.loc 1 51 26 is_stmt 1
 488              		.cfi_startproc
 489 02c0 130101FF 		addi	sp,sp,-16
 490              		.cfi_def_cfa_offset 16
 491 02c4 23348100 		sd	s0,8(sp)
 492              		.cfi_offset 8, -8
 493 02c8 13040101 		addi	s0,sp,16
 494              		.cfi_def_cfa 8, 0
  52:src/tcb.cpp   ****     running->setFinished(true);
 495              		.loc 1 52 5
 496              	.LVL41:
 497              	.LBB22:
 498              	.LBB23:
  21:src/../h/tcb.hpp **** 
 499              		.loc 2 21 36
  21:src/../h/tcb.hpp **** 
 500              		.loc 2 21 45 is_stmt 0
 501 02cc 97070000 		ld	a5,.LANCHOR0
 501      83B70700 
 502 02d4 13071000 		li	a4,1
 503 02d8 2384E702 		sb	a4,40(a5)
 504              	.LVL42:
 505              	.LBE23:
 506              	.LBE22:
  53:src/tcb.cpp   **** //    if(mem_free(running->stack) != 0)
  54:src/tcb.cpp   **** //        return -3;
  55:src/tcb.cpp   **** //    else{
  56:src/tcb.cpp   **** //        _thread::yield();
  57:src/tcb.cpp   **** //        return 0;
  58:src/tcb.cpp   **** //    }
  59:src/tcb.cpp   **** 
  60:src/tcb.cpp   **** //    delete []running->stack;
  61:src/tcb.cpp   **** //    nzm da se brise nit ili se samo zaustavlja
  62:src/tcb.cpp   **** return 0;
 507              		.loc 1 62 1 is_stmt 1
  63:src/tcb.cpp   **** }...
GAS LISTING /tmp/ccr0IOyB.s 			page 13


 508              		.loc 1 63 1 is_stmt 0
 509 02dc 13050000 		li	a0,0
 510 02e0 03348100 		ld	s0,8(sp)
 511              		.cfi_restore 8
 512              		.cfi_def_cfa 2, 16
 513 02e4 13010101 		addi	sp,sp,16
 514              		.cfi_def_cfa_offset 0
 515 02e8 67800000 		jr	ra
 516              		.cfi_endproc
 517              	.LFE41:
 519              		.globl	_ZN7_thread16timeSliceCounterE
 520              		.globl	_ZN7_thread7runningE
 521              		.bss
 522              		.align	3
 523              		.set	.LANCHOR0,. + 0
 526              	_ZN7_thread7runningE:
 527 0000 00000000 		.zero	8
 527      00000000 
 530              	_ZN7_thread16timeSliceCounterE:
 531 0008 00000000 		.zero	8
 531      00000000 
 532              		.text
 533              	.Letext0:
 534              		.file 3 "src/../h/../lib/hw.h"
 535              		.file 4 "src/../h/syscall_c.h"
 536              		.file 5 "src/../h/scheduler.hpp"
 537              		.file 6 "src/../h/riscv.hpp"
 538              		.file 7 "src/../h/../h/print.hpp"
 3124              		.align	3
 3127              	DW.ref.__gxx_personality_v0:
 3128 0000 00000000 		.dword	__gxx_personality_v0
 3128      00000000 
 3129              		.ident	"GCC: (Ubuntu 9.4.0-1ubuntu1~20.04) 9.4.0"
 3130              		.section	.note.GNU-stack,"",@progbits
GAS LISTING /tmp/ccr0IOyB.s 			page 14


DEFINED SYMBOLS
                            *ABS*:0000000000000000 tcb.cpp
     /tmp/ccr0IOyB.s:14     .text:0000000000000000 _ZN7_thread12createThreadEPFvvE
     /tmp/ccr0IOyB.s:18     .text:0000000000000000 .L0 
     /tmp/ccr0IOyB.s:3127   .data.rel.local.DW.ref.__gxx_personality_v0:0000000000000000 DW.ref.__gxx_personality_v0
     /tmp/ccr0IOyB.s:22     .text:0000000000000000 .L0 
     /tmp/ccr0IOyB.s:23     .text:0000000000000004 .L0 
     /tmp/ccr0IOyB.s:28     .text:0000000000000014 .L0 
     /tmp/ccr0IOyB.s:29     .text:0000000000000014 .L0 
     /tmp/ccr0IOyB.s:30     .text:0000000000000014 .L0 
     /tmp/ccr0IOyB.s:31     .text:0000000000000014 .L0 
     /tmp/ccr0IOyB.s:33     .text:0000000000000018 .L0 
     /tmp/ccr0IOyB.s:36     .text:000000000000001c .L0 
     /tmp/ccr0IOyB.s:37     .text:000000000000001c .L0 
     /tmp/ccr0IOyB.s:49     .text:000000000000002c .L0 
     /tmp/ccr0IOyB.s:51     .text:0000000000000030 .L0 
     /tmp/ccr0IOyB.s:53     .text:0000000000000034 .L0 
     /tmp/ccr0IOyB.s:60     .text:0000000000000044 .L0 
     /tmp/ccr0IOyB.s:63     .text:0000000000000048 .L0 
     /tmp/ccr0IOyB.s:350    .text:00000000000001f0 _ZN7_thread13threadWrapperEv
     /tmp/ccr0IOyB.s:67     .text:0000000000000058 .L0 
     /tmp/ccr0IOyB.s:69     .text:000000000000005c .L0 
     /tmp/ccr0IOyB.s:73     .text:0000000000000064 .L0 
     /tmp/ccr0IOyB.s:79     .text:0000000000000078 .L0 
     /tmp/ccr0IOyB.s:81     .text:000000000000007c .L0 
     /tmp/ccr0IOyB.s:82     .text:000000000000007c .L0 
     /tmp/ccr0IOyB.s:88     .text:000000000000008c .L0 
     /tmp/ccr0IOyB.s:92     .text:0000000000000094 .L0 
     /tmp/ccr0IOyB.s:93     .text:0000000000000094 .L0 
     /tmp/ccr0IOyB.s:104    .text:00000000000000ac .L0 
     /tmp/ccr0IOyB.s:114    .text:00000000000000c4 .L0 
     /tmp/ccr0IOyB.s:116    .text:00000000000000cc .L0 
     /tmp/ccr0IOyB.s:118    .text:00000000000000d0 .L0 
     /tmp/ccr0IOyB.s:119    .text:00000000000000d0 .L0 
     /tmp/ccr0IOyB.s:121    .text:00000000000000d4 .L0 
     /tmp/ccr0IOyB.s:124    .text:00000000000000d8 .L0 
     /tmp/ccr0IOyB.s:127    .text:00000000000000dc .L0 
     /tmp/ccr0IOyB.s:129    .text:00000000000000e0 .L0 
     /tmp/ccr0IOyB.s:155    .text:00000000000000e0 _ZN7_thread12createThreadEPPS_PFvvEPvS4_
     /tmp/ccr0IOyB.s:158    .text:00000000000000e0 .L0 
     /tmp/ccr0IOyB.s:162    .text:00000000000000e0 .L0 
     /tmp/ccr0IOyB.s:163    .text:00000000000000e4 .L0 
     /tmp/ccr0IOyB.s:171    .text:0000000000000100 .L0 
     /tmp/ccr0IOyB.s:172    .text:0000000000000100 .L0 
     /tmp/ccr0IOyB.s:173    .text:0000000000000100 .L0 
     /tmp/ccr0IOyB.s:174    .text:0000000000000100 .L0 
     /tmp/ccr0IOyB.s:175    .text:0000000000000100 .L0 
     /tmp/ccr0IOyB.s:176    .text:0000000000000100 .L0 
     /tmp/ccr0IOyB.s:177    .text:0000000000000100 .L0 
     /tmp/ccr0IOyB.s:179    .text:0000000000000104 .L0 
     /tmp/ccr0IOyB.s:185    .text:0000000000000114 .L0 
     /tmp/ccr0IOyB.s:186    .text:0000000000000114 .L0 
     /tmp/ccr0IOyB.s:197    .text:0000000000000124 .L0 
     /tmp/ccr0IOyB.s:199    .text:0000000000000128 .L0 
     /tmp/ccr0IOyB.s:203    .text:000000000000012c .L0 
     /tmp/ccr0IOyB.s:207    .text:000000000000013c .L0 
     /tmp/ccr0IOyB.s:209    .text:0000000000000140 .L0 
GAS LISTING /tmp/ccr0IOyB.s 			page 15


     /tmp/ccr0IOyB.s:213    .text:0000000000000148 .L0 
     /tmp/ccr0IOyB.s:219    .text:000000000000015c .L0 
     /tmp/ccr0IOyB.s:221    .text:0000000000000160 .L0 
     /tmp/ccr0IOyB.s:222    .text:0000000000000160 .L0 
     /tmp/ccr0IOyB.s:231    .text:0000000000000170 .L0 
     /tmp/ccr0IOyB.s:236    .text:0000000000000178 .L0 
     /tmp/ccr0IOyB.s:243    .text:0000000000000180 .L0 
     /tmp/ccr0IOyB.s:245    .text:0000000000000184 .L0 
     /tmp/ccr0IOyB.s:247    .text:0000000000000188 .L0 
     /tmp/ccr0IOyB.s:250    .text:000000000000018c .L0 
     /tmp/ccr0IOyB.s:251    .text:0000000000000190 .L0 
     /tmp/ccr0IOyB.s:252    .text:0000000000000190 .L0 
     /tmp/ccr0IOyB.s:254    .text:0000000000000194 .L0 
     /tmp/ccr0IOyB.s:255    .text:0000000000000194 .L0 
     /tmp/ccr0IOyB.s:257    .text:0000000000000198 .L0 
     /tmp/ccr0IOyB.s:259    .text:000000000000019c .L0 
     /tmp/ccr0IOyB.s:261    .text:00000000000001a0 .L0 
     /tmp/ccr0IOyB.s:264    .text:00000000000001a4 .L0 
     /tmp/ccr0IOyB.s:267    .text:00000000000001a8 .L0 
     /tmp/ccr0IOyB.s:270    .text:00000000000001ac .L0 
     /tmp/ccr0IOyB.s:274    .text:00000000000001b0 .L0 
     /tmp/ccr0IOyB.s:276    .text:00000000000001b0 .L0 
     /tmp/ccr0IOyB.s:282    .text:00000000000001bc .L0 
     /tmp/ccr0IOyB.s:290    .text:00000000000001d4 .L0 
     /tmp/ccr0IOyB.s:315    .text:00000000000001d4 _ZN7_thread5yieldEv
     /tmp/ccr0IOyB.s:318    .text:00000000000001d4 .L0 
     /tmp/ccr0IOyB.s:319    .text:00000000000001d4 .L0 
     /tmp/ccr0IOyB.s:320    .text:00000000000001d8 .L0 
     /tmp/ccr0IOyB.s:322    .text:00000000000001dc .L0 
     /tmp/ccr0IOyB.s:324    .text:00000000000001e0 .L0 
     /tmp/ccr0IOyB.s:326    .text:00000000000001e0 .L0 
         src/tcb.cpp:30     .text:00000000000001e0 .L0 
     /tmp/ccr0IOyB.s:333    .text:00000000000001e4 .L0 
     /tmp/ccr0IOyB.s:334    .text:00000000000001e8 .L0 
     /tmp/ccr0IOyB.s:335    .text:00000000000001e8 .L0 
     /tmp/ccr0IOyB.s:337    .text:00000000000001ec .L0 
     /tmp/ccr0IOyB.s:339    .text:00000000000001f0 .L0 
     /tmp/ccr0IOyB.s:353    .text:00000000000001f0 .L0 
     /tmp/ccr0IOyB.s:354    .text:00000000000001f0 .L0 
     /tmp/ccr0IOyB.s:355    .text:00000000000001f4 .L0 
     /tmp/ccr0IOyB.s:359    .text:0000000000000200 .L0 
     /tmp/ccr0IOyB.s:360    .text:0000000000000200 .L0 
     /tmp/ccr0IOyB.s:361    .text:0000000000000200 .L0 
     /tmp/ccr0IOyB.s:363    .text:0000000000000204 .L0 
     /tmp/ccr0IOyB.s:365    .text:0000000000000204 .L0 
     /tmp/ccr0IOyB.s:366    .text:0000000000000204 .L0 
     /tmp/ccr0IOyB.s:369    .text:000000000000020c .L0 
     /tmp/ccr0IOyB.s:370    .text:000000000000020c .L0 
     /tmp/ccr0IOyB.s:374    .text:000000000000021c .L0 
     /tmp/ccr0IOyB.s:377    .text:0000000000000220 .L0 
     /tmp/ccr0IOyB.s:378    .text:0000000000000220 .L0 
     /tmp/ccr0IOyB.s:383    .text:0000000000000224 .L0 
     /tmp/ccr0IOyB.s:384    .text:0000000000000224 .L0 
     /tmp/ccr0IOyB.s:390    .text:000000000000022c .L0 
     /tmp/ccr0IOyB.s:391    .text:000000000000022c .L0 
     /tmp/ccr0IOyB.s:395    .text:000000000000023c .L0 
     /tmp/ccr0IOyB.s:396    .text:000000000000023c .L0 
GAS LISTING /tmp/ccr0IOyB.s 			page 16


     /tmp/ccr0IOyB.s:399    .text:0000000000000244 .L0 
     /tmp/ccr0IOyB.s:400    .text:0000000000000248 .L0 
     /tmp/ccr0IOyB.s:402    .text:000000000000024c .L0 
     /tmp/ccr0IOyB.s:403    .text:000000000000024c .L0 
     /tmp/ccr0IOyB.s:405    .text:0000000000000250 .L0 
     /tmp/ccr0IOyB.s:407    .text:0000000000000254 .L0 
     /tmp/ccr0IOyB.s:409    .text:0000000000000258 .L0 
     /tmp/ccr0IOyB.s:415    .text:0000000000000258 _ZN7_thread8dispatchEv
     /tmp/ccr0IOyB.s:418    .text:0000000000000258 .L0 
     /tmp/ccr0IOyB.s:419    .text:0000000000000258 .L0 
     /tmp/ccr0IOyB.s:420    .text:000000000000025c .L0 
     /tmp/ccr0IOyB.s:424    .text:0000000000000268 .L0 
     /tmp/ccr0IOyB.s:425    .text:0000000000000268 .L0 
     /tmp/ccr0IOyB.s:426    .text:0000000000000268 .L0 
     /tmp/ccr0IOyB.s:428    .text:000000000000026c .L0 
     /tmp/ccr0IOyB.s:430    .text:000000000000026c .L0 
     /tmp/ccr0IOyB.s:431    .text:000000000000026c .L0 
     /tmp/ccr0IOyB.s:436    .text:0000000000000274 .L0 
     /tmp/ccr0IOyB.s:437    .text:0000000000000274 .L0 
     /tmp/ccr0IOyB.s:438    .text:0000000000000274 .L0 
     /tmp/ccr0IOyB.s:443    .text:0000000000000278 .L0 
     /tmp/ccr0IOyB.s:446    .text:000000000000027c .L0 
     /tmp/ccr0IOyB.s:447    .text:000000000000027c .L0 
     /tmp/ccr0IOyB.s:450    .text:0000000000000284 .L0 
     /tmp/ccr0IOyB.s:452    .text:000000000000028c .L0 
     /tmp/ccr0IOyB.s:453    .text:000000000000028c .L0 
     /tmp/ccr0IOyB.s:458    .text:000000000000029c .L0 
     /tmp/ccr0IOyB.s:459    .text:00000000000002a0 .L0 
     /tmp/ccr0IOyB.s:460    .text:00000000000002a0 .L0 
     /tmp/ccr0IOyB.s:462    .text:00000000000002a4 .L0 
     /tmp/ccr0IOyB.s:463    .text:00000000000002a4 .L0 
     /tmp/ccr0IOyB.s:465    .text:00000000000002a8 .L0 
     /tmp/ccr0IOyB.s:468    .text:00000000000002ac .L0 
     /tmp/ccr0IOyB.s:472    .text:00000000000002b0 .L0 
     /tmp/ccr0IOyB.s:474    .text:00000000000002b0 .L0 
     /tmp/ccr0IOyB.s:475    .text:00000000000002b0 .L0 
     /tmp/ccr0IOyB.s:479    .text:00000000000002c0 .L0 
     /tmp/ccr0IOyB.s:485    .text:00000000000002c0 _ZN7_thread10threadStopEv
     /tmp/ccr0IOyB.s:488    .text:00000000000002c0 .L0 
     /tmp/ccr0IOyB.s:489    .text:00000000000002c0 .L0 
     /tmp/ccr0IOyB.s:490    .text:00000000000002c4 .L0 
     /tmp/ccr0IOyB.s:492    .text:00000000000002c8 .L0 
     /tmp/ccr0IOyB.s:494    .text:00000000000002cc .L0 
     /tmp/ccr0IOyB.s:499    .text:00000000000002cc .L0 
     /tmp/ccr0IOyB.s:500    .text:00000000000002cc .L0 
     /tmp/ccr0IOyB.s:501    .text:00000000000002cc .L0 
     /tmp/ccr0IOyB.s:508    .text:00000000000002dc .L0 
     /tmp/ccr0IOyB.s:509    .text:00000000000002dc .L0 
     /tmp/ccr0IOyB.s:511    .text:00000000000002e4 .L0 
     /tmp/ccr0IOyB.s:512    .text:00000000000002e4 .L0 
     /tmp/ccr0IOyB.s:514    .text:00000000000002e8 .L0 
     /tmp/ccr0IOyB.s:516    .text:00000000000002ec .L0 
     /tmp/ccr0IOyB.s:530    .bss:0000000000000008 _ZN7_thread16timeSliceCounterE
     /tmp/ccr0IOyB.s:526    .bss:0000000000000000 _ZN7_thread7runningE
     /tmp/ccr0IOyB.s:523    .bss:0000000000000000 .LANCHOR0
     /tmp/ccr0IOyB.s:539    .text:00000000000002ec .L0 
     /tmp/ccr0IOyB.s:64     .text:000000000000004c .L0 
GAS LISTING /tmp/ccr0IOyB.s 			page 17


     /tmp/ccr0IOyB.s:8      .rodata.str1.8:0000000000000000 .LC0
     /tmp/ccr0IOyB.s:93     .text:0000000000000094 .L0 
     /tmp/ccr0IOyB.s:204    .text:0000000000000130 .L0 
     /tmp/ccr0IOyB.s:370    .text:000000000000020c .L0 
     /tmp/ccr0IOyB.s:344    .rodata.str1.8:0000000000000018 .LC1
     /tmp/ccr0IOyB.s:391    .text:000000000000022c .L0 
     /tmp/ccr0IOyB.s:431    .text:000000000000026c .L0 
     /tmp/ccr0IOyB.s:450    .text:0000000000000284 .L0 
     /tmp/ccr0IOyB.s:501    .text:00000000000002cc .L0 
     /tmp/ccr0IOyB.s:58     .text:0000000000000044 .L6
     /tmp/ccr0IOyB.s:61     .text:0000000000000048 .L2
     /tmp/ccr0IOyB.s:86     .text:000000000000008c .L7
     /tmp/ccr0IOyB.s:112    .text:00000000000000c4 .L1
     /tmp/ccr0IOyB.s:90     .text:0000000000000094 .L10
     /tmp/ccr0IOyB.s:71     .text:0000000000000064 .L3
     /tmp/ccr0IOyB.s:229    .text:0000000000000170 .L23
     /tmp/ccr0IOyB.s:234    .text:0000000000000178 .L18
     /tmp/ccr0IOyB.s:238    .text:0000000000000180 .L14
     /tmp/ccr0IOyB.s:201    .text:000000000000012c .L12
     /tmp/ccr0IOyB.s:211    .text:0000000000000148 .L13
     /tmp/ccr0IOyB.s:273    .text:00000000000001b0 .L19
     /tmp/ccr0IOyB.s:248    .text:000000000000018c .L21
     /tmp/ccr0IOyB.s:471    .text:00000000000002b0 .L31
     /tmp/ccr0IOyB.s:444    .text:000000000000027c .L29
     /tmp/ccr0IOyB.s:39     .text:0000000000000020 .LEHB0
     /tmp/ccr0IOyB.s:15     .text:0000000000000000 .LFB36
     /tmp/ccr0IOyB.s:42     .text:0000000000000028 .LEHE0
     /tmp/ccr0IOyB.s:54     .text:0000000000000038 .LEHB1
     /tmp/ccr0IOyB.s:96     .text:00000000000000a4 .LEHE1
     /tmp/ccr0IOyB.s:98     .text:00000000000000a8 .L8
     /tmp/ccr0IOyB.s:108    .text:00000000000000bc .LEHB2
     /tmp/ccr0IOyB.s:111    .text:00000000000000c4 .LEHE2
     /tmp/ccr0IOyB.s:188    .text:0000000000000118 .LEHB3
     /tmp/ccr0IOyB.s:156    .text:00000000000000e0 .LFB37
     /tmp/ccr0IOyB.s:191    .text:0000000000000120 .LEHE3
     /tmp/ccr0IOyB.s:223    .text:0000000000000164 .LEHB4
     /tmp/ccr0IOyB.s:226    .text:000000000000016c .LEHE4
     /tmp/ccr0IOyB.s:279    .text:00000000000001b8 .L20
     /tmp/ccr0IOyB.s:286    .text:00000000000001cc .LEHB5
     /tmp/ccr0IOyB.s:289    .text:00000000000001d4 .LEHE5
     /tmp/ccr0IOyB.s:1660   .debug_abbrev:0000000000000000 .Ldebug_abbrev0
     /tmp/ccr0IOyB.s:3087   .debug_str:0000000000000621 .LASF108
     /tmp/ccr0IOyB.s:2981   .debug_str:00000000000002f4 .LASF109
     /tmp/ccr0IOyB.s:2935   .debug_str:00000000000001a9 .LASF110
     /tmp/ccr0IOyB.s:5      .text:0000000000000000 .Ltext0
     /tmp/ccr0IOyB.s:533    .text:00000000000002ec .Letext0
     /tmp/ccr0IOyB.s:2879   .debug_line:0000000000000000 .Ldebug_line0
     /tmp/ccr0IOyB.s:2999   .debug_str:0000000000000387 .LASF0
     /tmp/ccr0IOyB.s:3017   .debug_str:00000000000003df .LASF1
     /tmp/ccr0IOyB.s:2987   .debug_str:0000000000000330 .LASF2
     /tmp/ccr0IOyB.s:2961   .debug_str:0000000000000284 .LASF4
     /tmp/ccr0IOyB.s:3055   .debug_str:0000000000000515 .LASF3
     /tmp/ccr0IOyB.s:2899   .debug_str:000000000000007e .LASF5
     /tmp/ccr0IOyB.s:3021   .debug_str:00000000000003fd .LASF6
     /tmp/ccr0IOyB.s:2997   .debug_str:0000000000000374 .LASF7
     /tmp/ccr0IOyB.s:3097   .debug_str:0000000000000745 .LASF8
     /tmp/ccr0IOyB.s:2945   .debug_str:00000000000001f9 .LASF9
GAS LISTING /tmp/ccr0IOyB.s 			page 18


     /tmp/ccr0IOyB.s:3031   .debug_str:000000000000044b .LASF10
     /tmp/ccr0IOyB.s:3089   .debug_str:00000000000006e5 .LASF11
     /tmp/ccr0IOyB.s:2901   .debug_str:0000000000000085 .LASF12
     /tmp/ccr0IOyB.s:2885   .debug_str:0000000000000024 .LASF13
     /tmp/ccr0IOyB.s:2909   .debug_str:00000000000000cf .LASF14
     /tmp/ccr0IOyB.s:3045   .debug_str:00000000000004c9 .LASF15
     /tmp/ccr0IOyB.s:2915   .debug_str:0000000000000103 .LASF16
     /tmp/ccr0IOyB.s:2881   .debug_str:0000000000000000 .LASF17
     /tmp/ccr0IOyB.s:2959   .debug_str:000000000000027c .LASF29
     /tmp/ccr0IOyB.s:2891   .debug_str:0000000000000049 .LASF111
     /tmp/ccr0IOyB.s:3093   .debug_str:0000000000000720 .LASF18
     /tmp/ccr0IOyB.s:3025   .debug_str:000000000000041b .LASF20
     /tmp/ccr0IOyB.s:3023   .debug_str:0000000000000410 .LASF22
     /tmp/ccr0IOyB.s:2983   .debug_str:0000000000000300 .LASF24
     /tmp/ccr0IOyB.s:2989   .debug_str:000000000000033e .LASF19
     /tmp/ccr0IOyB.s:2883   .debug_str:0000000000000009 .LASF21
     /tmp/ccr0IOyB.s:2979   .debug_str:00000000000002e7 .LASF23
     /tmp/ccr0IOyB.s:3035   .debug_str:0000000000000460 .LASF25
     /tmp/ccr0IOyB.s:2971   .debug_str:00000000000002bb .LASF26
     /tmp/ccr0IOyB.s:2893   .debug_str:0000000000000051 .LASF27
     /tmp/ccr0IOyB.s:3041   .debug_str:00000000000004b9 .LASF112
     /tmp/ccr0IOyB.s:3039   .debug_str:0000000000000490 .LASF28
     /tmp/ccr0IOyB.s:3047   .debug_str:00000000000004df .LASF42
     /tmp/ccr0IOyB.s:3081   .debug_str:00000000000005f4 .LASF44
     /tmp/ccr0IOyB.s:2927   .debug_str:0000000000000180 .LASF113
     /tmp/ccr0IOyB.s:3065   .debug_str:000000000000056d .LASF30
     /tmp/ccr0IOyB.s:2991   .debug_str:000000000000034a .LASF31
     /tmp/ccr0IOyB.s:2965   .debug_str:0000000000000294 .LASF32
     /tmp/ccr0IOyB.s:3005   .debug_str:00000000000003a4 .LASF33
     /tmp/ccr0IOyB.s:2969   .debug_str:00000000000002b3 .LASF34
     /tmp/ccr0IOyB.s:3011   .debug_str:00000000000003c4 .LASF35
     /tmp/ccr0IOyB.s:2963   .debug_str:000000000000028b .LASF36
     /tmp/ccr0IOyB.s:3007   .debug_str:00000000000003aa .LASF37
     /tmp/ccr0IOyB.s:2975   .debug_str:00000000000002d3 .LASF38
     /tmp/ccr0IOyB.s:2949   .debug_str:000000000000021d .LASF40
     /tmp/ccr0IOyB.s:3103   .debug_str:0000000000000771 .LASF51
     /tmp/ccr0IOyB.s:3091   .debug_str:00000000000006f4 .LASF114
     /tmp/ccr0IOyB.s:3003   .debug_str:000000000000039b .LASF39
     /tmp/ccr0IOyB.s:3079   .debug_str:00000000000005dd .LASF41
     /tmp/ccr0IOyB.s:3019   .debug_str:00000000000003f2 .LASF43
     /tmp/ccr0IOyB.s:2967   .debug_str:0000000000000299 .LASF45
     /tmp/ccr0IOyB.s:3057   .debug_str:0000000000000527 .LASF49
     /tmp/ccr0IOyB.s:2973   .debug_str:00000000000002c8 .LASF46
     /tmp/ccr0IOyB.s:2953   .debug_str:000000000000024e .LASF47
     /tmp/ccr0IOyB.s:3029   .debug_str:0000000000000441 .LASF48
     /tmp/ccr0IOyB.s:2937   .debug_str:00000000000001c7 .LASF50
     /tmp/ccr0IOyB.s:2957   .debug_str:0000000000000268 .LASF115
     /tmp/ccr0IOyB.s:3095   .debug_str:0000000000000729 .LASF116
     /tmp/ccr0IOyB.s:3077   .debug_str:00000000000005cf .LASF117
     /tmp/ccr0IOyB.s:2933   .debug_str:00000000000001a4 .LASF52
     /tmp/ccr0IOyB.s:3013   .debug_str:00000000000003ce .LASF53
     /tmp/ccr0IOyB.s:3043   .debug_str:00000000000004be .LASF54
     /tmp/ccr0IOyB.s:3113   .debug_str:00000000000007bd .LASF55
     /tmp/ccr0IOyB.s:2887   .debug_str:0000000000000034 .LASF56
     /tmp/ccr0IOyB.s:3069   .debug_str:0000000000000588 .LASF60
     /tmp/ccr0IOyB.s:2925   .debug_str:0000000000000177 .LASF57
     /tmp/ccr0IOyB.s:2923   .debug_str:0000000000000162 .LASF58
GAS LISTING /tmp/ccr0IOyB.s 			page 19


     /tmp/ccr0IOyB.s:3059   .debug_str:0000000000000538 .LASF59
     /tmp/ccr0IOyB.s:3037   .debug_str:000000000000047d .LASF61
     /tmp/ccr0IOyB.s:3085   .debug_str:000000000000061a .LASF62
     /tmp/ccr0IOyB.s:3075   .debug_str:00000000000005bc .LASF63
     /tmp/ccr0IOyB.s:2941   .debug_str:00000000000001eb .LASF64
     /tmp/ccr0IOyB.s:2917   .debug_str:0000000000000119 .LASF65
     /tmp/ccr0IOyB.s:3051   .debug_str:00000000000004f5 .LASF66
     /tmp/ccr0IOyB.s:2951   .debug_str:000000000000023a .LASF67
     /tmp/ccr0IOyB.s:2929   .debug_str:0000000000000188 .LASF68
     /tmp/ccr0IOyB.s:2903   .debug_str:0000000000000095 .LASF69
     /tmp/ccr0IOyB.s:3117   .debug_str:00000000000007e0 .LASF70
     /tmp/ccr0IOyB.s:2931   .debug_str:0000000000000190 .LASF71
     /tmp/ccr0IOyB.s:3001   .debug_str:0000000000000394 .LASF72
     /tmp/ccr0IOyB.s:3109   .debug_str:00000000000007a5 .LASF73
     /tmp/ccr0IOyB.s:2897   .debug_str:0000000000000077 .LASF74
     /tmp/ccr0IOyB.s:2939   .debug_str:00000000000001d8 .LASF75
     /tmp/ccr0IOyB.s:2943   .debug_str:00000000000001f3 .LASF76
     /tmp/ccr0IOyB.s:3083   .debug_str:0000000000000608 .LASF77
     /tmp/ccr0IOyB.s:2895   .debug_str:0000000000000071 .LASF78
     /tmp/ccr0IOyB.s:3119   .debug_str:00000000000007e8 .LASF79
     /tmp/ccr0IOyB.s:3115   .debug_str:00000000000007d5 .LASF80
     /tmp/ccr0IOyB.s:3053   .debug_str:00000000000004fd .LASF81
     /tmp/ccr0IOyB.s:3015   .debug_str:00000000000003d4 .LASF82
     /tmp/ccr0IOyB.s:3071   .debug_str:000000000000059d .LASF83
     /tmp/ccr0IOyB.s:2907   .debug_str:00000000000000c5 .LASF84
     /tmp/ccr0IOyB.s:3027   .debug_str:000000000000042b .LASF85
     /tmp/ccr0IOyB.s:2993   .debug_str:0000000000000363 .LASF86
     /tmp/ccr0IOyB.s:2947   .debug_str:0000000000000207 .LASF87
     /tmp/ccr0IOyB.s:3063   .debug_str:000000000000055e .LASF88
     /tmp/ccr0IOyB.s:2905   .debug_str:00000000000000a9 .LASF89
     /tmp/ccr0IOyB.s:3101   .debug_str:000000000000075c .LASF90
     /tmp/ccr0IOyB.s:2919   .debug_str:000000000000012d .LASF91
     /tmp/ccr0IOyB.s:2985   .debug_str:000000000000031b .LASF92
     /tmp/ccr0IOyB.s:3061   .debug_str:000000000000053f .LASF93
     /tmp/ccr0IOyB.s:486    .text:00000000000002c0 .LFB41
     /tmp/ccr0IOyB.s:517    .text:00000000000002ec .LFE41
     /tmp/ccr0IOyB.s:497    .text:00000000000002cc .LBB22
     /tmp/ccr0IOyB.s:506    .text:00000000000002dc .LBE22
     /tmp/ccr0IOyB.s:2592   .debug_loc:0000000000000000 .LLST15
     /tmp/ccr0IOyB.s:2600   .debug_loc:0000000000000024 .LLST16
     /tmp/ccr0IOyB.s:351    .text:00000000000001f0 .LFB40
     /tmp/ccr0IOyB.s:410    .text:0000000000000258 .LFE40
     /tmp/ccr0IOyB.s:380    .text:0000000000000224 .LBB18
     /tmp/ccr0IOyB.s:388    .text:000000000000022c .LBE18
     /tmp/ccr0IOyB.s:2608   .debug_loc:000000000000004f .LLST11
     /tmp/ccr0IOyB.s:2616   .debug_loc:0000000000000073 .LLST12
     /tmp/ccr0IOyB.s:367    .text:000000000000020c .LVL28
     /tmp/ccr0IOyB.s:393    .text:000000000000023c .LVL32
     /tmp/ccr0IOyB.s:397    .text:0000000000000244 .LVL33
     /tmp/ccr0IOyB.s:416    .text:0000000000000258 .LFB39
     /tmp/ccr0IOyB.s:480    .text:00000000000002c0 .LFE39
     /tmp/ccr0IOyB.s:2623   .debug_loc:0000000000000096 .LLST13
     /tmp/ccr0IOyB.s:434    .text:0000000000000274 .LBB20
     /tmp/ccr0IOyB.s:441    .text:0000000000000278 .LBE20
     /tmp/ccr0IOyB.s:2634   .debug_loc:00000000000000cc .LLST14
     /tmp/ccr0IOyB.s:448    .text:0000000000000284 .LVL36
     /tmp/ccr0IOyB.s:456    .text:000000000000029c .LVL37
GAS LISTING /tmp/ccr0IOyB.s 			page 20


     /tmp/ccr0IOyB.s:477    .text:00000000000002bc .LVL40
     /tmp/ccr0IOyB.s:316    .text:00000000000001d4 .LFB38
     /tmp/ccr0IOyB.s:340    .text:00000000000001f0 .LFE38
     /tmp/ccr0IOyB.s:291    .text:00000000000001d4 .LFE37
     /tmp/ccr0IOyB.s:3073   .debug_str:00000000000005b5 .LASF94
     /tmp/ccr0IOyB.s:2641   .debug_loc:00000000000000ef .LLST3
     /tmp/ccr0IOyB.s:2663   .debug_loc:000000000000014e .LLST4
     /tmp/ccr0IOyB.s:2685   .debug_loc:00000000000001ad .LLST5
     /tmp/ccr0IOyB.s:2707   .debug_loc:000000000000020c .LLST6
     /tmp/ccr0IOyB.s:194    .text:0000000000000124 .LBB16
     /tmp/ccr0IOyB.s:241    .text:0000000000000180 .LBE16
     /tmp/ccr0IOyB.s:2736   .debug_loc:0000000000000281 .LLST7
     /tmp/ccr0IOyB.s:2768   .debug_loc:00000000000002f9 .LLST8
     /tmp/ccr0IOyB.s:2779   .debug_loc:000000000000032f .LLST9
     /tmp/ccr0IOyB.s:2790   .debug_loc:0000000000000365 .LLST10
     /tmp/ccr0IOyB.s:225    .text:000000000000016c .LVL17
     /tmp/ccr0IOyB.s:190    .text:0000000000000120 .LVL14
     /tmp/ccr0IOyB.s:284    .text:00000000000001c8 .LVL26
     /tmp/ccr0IOyB.s:288    .text:00000000000001d4 .LVL27
     /tmp/ccr0IOyB.s:130    .text:00000000000000e0 .LFE36
     /tmp/ccr0IOyB.s:2801   .debug_loc:000000000000039b .LLST0
     /tmp/ccr0IOyB.s:45     .text:000000000000002c .LBB11
     /tmp/ccr0IOyB.s:102    .text:00000000000000ac .LBE11
     /tmp/ccr0IOyB.s:2830   .debug_loc:0000000000000410 .LLST1
     /tmp/ccr0IOyB.s:2855   .debug_loc:0000000000000472 .LLST2
     /tmp/ccr0IOyB.s:56     .text:0000000000000040 .LVL4
     /tmp/ccr0IOyB.s:84     .text:0000000000000088 .LVL5
     /tmp/ccr0IOyB.s:95     .text:00000000000000a4 .LVL6
     /tmp/ccr0IOyB.s:41     .text:0000000000000028 .LVL2
     /tmp/ccr0IOyB.s:106    .text:00000000000000b8 .LVL8
     /tmp/ccr0IOyB.s:110    .text:00000000000000c4 .LVL9
     /tmp/ccr0IOyB.s:3111   .debug_str:00000000000007b8 .LASF96
     /tmp/ccr0IOyB.s:3099   .debug_str:0000000000000755 .LASF95
     /tmp/ccr0IOyB.s:3107   .debug_str:000000000000078c .LASF97
     /tmp/ccr0IOyB.s:3009   .debug_str:00000000000003af .LASF98
     /tmp/ccr0IOyB.s:3033   .debug_str:000000000000045a .LASF99
     /tmp/ccr0IOyB.s:2921   .debug_str:000000000000014f .LASF118
     /tmp/ccr0IOyB.s:2889   .debug_str:000000000000003d .LASF119
     /tmp/ccr0IOyB.s:2977   .debug_str:00000000000002e1 .LASF100
     /tmp/ccr0IOyB.s:3105   .debug_str:000000000000077f .LASF102
     /tmp/ccr0IOyB.s:2995   .debug_str:000000000000036d .LASF101
     /tmp/ccr0IOyB.s:2911   .debug_str:00000000000000db .LASF103
     /tmp/ccr0IOyB.s:2955   .debug_str:0000000000000259 .LASF104
     /tmp/ccr0IOyB.s:2913   .debug_str:00000000000000eb .LASF105
     /tmp/ccr0IOyB.s:3067   .debug_str:0000000000000582 .LASF106
     /tmp/ccr0IOyB.s:3049   .debug_str:00000000000004e5 .LASF107
     /tmp/ccr0IOyB.s:496    .text:00000000000002cc .LVL41
     /tmp/ccr0IOyB.s:504    .text:00000000000002dc .LVL42
     /tmp/ccr0IOyB.s:379    .text:0000000000000224 .LVL30
     /tmp/ccr0IOyB.s:386    .text:000000000000022c .LVL31
     /tmp/ccr0IOyB.s:432    .text:0000000000000274 .LVL34
     /tmp/ccr0IOyB.s:466    .text:00000000000002a8 .LVL38
     /tmp/ccr0IOyB.s:470    .text:00000000000002b0 .LVL39
     /tmp/ccr0IOyB.s:439    .text:0000000000000278 .LVL35
     /tmp/ccr0IOyB.s:161    .text:00000000000000e0 .LVL12
     /tmp/ccr0IOyB.s:187    .text:0000000000000118 .LVL13
     /tmp/ccr0IOyB.s:265    .text:00000000000001a4 .LVL22
GAS LISTING /tmp/ccr0IOyB.s 			page 21


     /tmp/ccr0IOyB.s:272    .text:00000000000001b0 .LVL24
     /tmp/ccr0IOyB.s:262    .text:00000000000001a0 .LVL21
     /tmp/ccr0IOyB.s:268    .text:00000000000001a8 .LVL23
     /tmp/ccr0IOyB.s:200    .text:000000000000012c .LVL16
     /tmp/ccr0IOyB.s:228    .text:0000000000000170 .LVL18
     /tmp/ccr0IOyB.s:232    .text:0000000000000174 .LVL19
     /tmp/ccr0IOyB.s:193    .text:0000000000000124 .LVL15
     /tmp/ccr0IOyB.s:239    .text:0000000000000180 .LVL20
     /tmp/ccr0IOyB.s:278    .text:00000000000001b8 .LVL25
     /tmp/ccr0IOyB.s:21     .text:0000000000000000 .LVL0
     /tmp/ccr0IOyB.s:38     .text:0000000000000020 .LVL1
     /tmp/ccr0IOyB.s:100    .text:00000000000000ac .LVL7
     /tmp/ccr0IOyB.s:125    .text:00000000000000d8 .LVL11
     /tmp/ccr0IOyB.s:44     .text:000000000000002c .LVL3
     /tmp/ccr0IOyB.s:122    .text:00000000000000d4 .LVL10
     /tmp/ccr0IOyB.s:540    .debug_info:0000000000000000 .Ldebug_info0
     /tmp/ccr0IOyB.s:133    .gcc_except_table:0000000000000000 .LLSDA36
     /tmp/ccr0IOyB.s:293    .gcc_except_table:000000000000002b .LLSDA37

UNDEFINED SYMBOLS
_Znwm
_Znam
_ZN9Scheduler3putEP7_thread
_Z11printStringPKc
_ZdlPv
_Unwind_Resume
__gxx_personality_v0
_ZN5Riscv10popSppSpieEv
_ZN9Scheduler3getEv
_ZN7_thread13contextSwitchEPNS_7ContextES1_
