GAS LISTING /tmp/ccyEjN6J.s 			page 1


   1              		.file	"Thread.cpp"
   2              		.option pic
   3              		.option norelax
   4              		.text
   5              	.Ltext0:
   6              		.section	.text._ZN6Thread3runEv,"axG",@progbits,_ZN6Thread3runEv,comdat
   7              		.align	2
   8              		.weak	_ZN6Thread3runEv
  10              	_ZN6Thread3runEv:
  11              	.LFB0:
  12              		.file 1 "src/../h/syscall_cpp.hpp"
   1:src/../h/syscall_cpp.hpp **** //
   2:src/../h/syscall_cpp.hpp **** // Created by os on 9/14/22.
   3:src/../h/syscall_cpp.hpp **** //
   4:src/../h/syscall_cpp.hpp **** 
   5:src/../h/syscall_cpp.hpp **** #ifndef PROJECT_BASE_SYSCALL_CPP_HPP
   6:src/../h/syscall_cpp.hpp **** #define PROJECT_BASE_SYSCALL_CPP_HPP
   7:src/../h/syscall_cpp.hpp **** #include "syscall_c.h"
   8:src/../h/syscall_cpp.hpp **** //void* ::operator new (size_t);
   9:src/../h/syscall_cpp.hpp **** //void ::operator delete (void*);
  10:src/../h/syscall_cpp.hpp **** class Thread {
  11:src/../h/syscall_cpp.hpp **** public:
  12:src/../h/syscall_cpp.hpp ****     Thread (void (*body)(void*), void* arg);
  13:src/../h/syscall_cpp.hpp ****     virtual ~Thread ();
  14:src/../h/syscall_cpp.hpp ****     int start ();
  15:src/../h/syscall_cpp.hpp ****     static void dispatch ();
  16:src/../h/syscall_cpp.hpp ****     static int sleep (time_t);
  17:src/../h/syscall_cpp.hpp ****     static void wrapper(void*);
  18:src/../h/syscall_cpp.hpp **** protected:
  19:src/../h/syscall_cpp.hpp ****     Thread ();
  20:src/../h/syscall_cpp.hpp ****     virtual void run () {}
  13              		.loc 1 20 18
  14              		.cfi_startproc
  15              	.LVL0:
  16 0000 130101FF 		addi	sp,sp,-16
  17              		.cfi_def_cfa_offset 16
  18 0004 23348100 		sd	s0,8(sp)
  19              		.cfi_offset 8, -8
  20 0008 13040101 		addi	s0,sp,16
  21              		.cfi_def_cfa 8, 0
  22              		.loc 1 20 26 is_stmt 0
  23 000c 03348100 		ld	s0,8(sp)
  24              		.cfi_restore 8
  25              		.cfi_def_cfa 2, 16
  26 0010 13010101 		addi	sp,sp,16
  27              		.cfi_def_cfa_offset 0
  28 0014 67800000 		jr	ra
  29              		.cfi_endproc
  30              	.LFE0:
  32              		.text
  33              		.align	2
  34              		.globl	_ZN6Thread7wrapperEPv
  36              	_ZN6Thread7wrapperEPv:
  37              	.LFB15:
  38              		.file 2 "src/Thread.cpp"
   1:src/Thread.cpp **** //
   2:src/Thread.cpp **** // Created by os on 9/14/22.
GAS LISTING /tmp/ccyEjN6J.s 			page 2


   3:src/Thread.cpp **** //
   4:src/Thread.cpp **** #include "../h/syscall_cpp.hpp"
   5:src/Thread.cpp **** 
   6:src/Thread.cpp **** Thread::Thread(void (*body)(void *), void *arg) {
   7:src/Thread.cpp **** 
   8:src/Thread.cpp **** //    thread_create(&myHandle, body, arg);
   9:src/Thread.cpp **** // ipak ne sme da se startuje nit, a thread_create je startuje
  10:src/Thread.cpp **** //zato sam dodao sis poziv koji radi sve isto, ali ne ubacuje nit u scheduler
  11:src/Thread.cpp ****     thread_initialization(&myHandle, body, arg);
  12:src/Thread.cpp **** }
  13:src/Thread.cpp **** 
  14:src/Thread.cpp **** Thread::Thread() {
  15:src/Thread.cpp ****     thread_initialization(&myHandle, wrapper, this);
  16:src/Thread.cpp **** }
  17:src/Thread.cpp **** 
  18:src/Thread.cpp **** Thread::~Thread(){
  19:src/Thread.cpp ****     thread_exit();
  20:src/Thread.cpp **** }
  21:src/Thread.cpp **** 
  22:src/Thread.cpp **** int Thread::start(){
  23:src/Thread.cpp ****     thread_start(myHandle);
  24:src/Thread.cpp ****     return 0;
  25:src/Thread.cpp **** }
  26:src/Thread.cpp **** 
  27:src/Thread.cpp **** void Thread::dispatch(){
  28:src/Thread.cpp ****     thread_dispatch();
  29:src/Thread.cpp **** }
  30:src/Thread.cpp **** 
  31:src/Thread.cpp **** int Thread::sleep(time_t t){
  32:src/Thread.cpp ****     return time_sleep(t);
  33:src/Thread.cpp **** }
  34:src/Thread.cpp **** 
  35:src/Thread.cpp **** //kao na vezbama, agumenti se poklapaju za vec postojeci body, a mora da se posalje this u konstruk
  36:src/Thread.cpp **** //jer je wrapper staticka metoda
  37:src/Thread.cpp **** void Thread::wrapper(void *thread)
  38:src/Thread.cpp **** {
  39              		.loc 2 38 1 is_stmt 1
  40              		.cfi_startproc
  41              	.LVL1:
  42 0000 130101FF 		addi	sp,sp,-16
  43              		.cfi_def_cfa_offset 16
  44 0004 23341100 		sd	ra,8(sp)
  45 0008 23308100 		sd	s0,0(sp)
  46              		.cfi_offset 1, -8
  47              		.cfi_offset 8, -16
  48 000c 13040101 		addi	s0,sp,16
  49              		.cfi_def_cfa 8, 0
  39:src/Thread.cpp ****     ((Thread*)thread)->run();
  50              		.loc 2 39 5
  51              		.loc 2 39 28 is_stmt 0
  52 0010 83370500 		ld	a5,0(a0)
  53 0014 83B70701 		ld	a5,16(a5)
  54              		.loc 2 39 27
  55 0018 E7800700 		jalr	a5
  56              	.LVL2:
  40:src/Thread.cpp **** }
  57              		.loc 2 40 1
GAS LISTING /tmp/ccyEjN6J.s 			page 3


  58 001c 83308100 		ld	ra,8(sp)
  59              		.cfi_restore 1
  60 0020 03340100 		ld	s0,0(sp)
  61              		.cfi_restore 8
  62              		.cfi_def_cfa 2, 16
  63 0024 13010101 		addi	sp,sp,16
  64              		.cfi_def_cfa_offset 0
  65 0028 67800000 		jr	ra
  66              		.cfi_endproc
  67              	.LFE15:
  69              		.align	2
  70              		.globl	_ZN6ThreadD2Ev
  72              	_ZN6ThreadD2Ev:
  73              	.LFB9:
  18:src/Thread.cpp ****     thread_exit();
  74              		.loc 2 18 1 is_stmt 1
  75              		.cfi_startproc
  76              		.cfi_personality 0x9b,DW.ref.__gxx_personality_v0
  77              		.cfi_lsda 0x1b,.LLSDA9
  78              	.LVL3:
  79 002c 130101FF 		addi	sp,sp,-16
  80              		.cfi_def_cfa_offset 16
  81 0030 23341100 		sd	ra,8(sp)
  82 0034 23308100 		sd	s0,0(sp)
  83              		.cfi_offset 1, -8
  84              		.cfi_offset 8, -16
  85 0038 13040101 		addi	s0,sp,16
  86              		.cfi_def_cfa 8, 0
  87              	.LBB2:
  18:src/Thread.cpp ****     thread_exit();
  88              		.loc 2 18 17 is_stmt 0
  89 003c 97070000 		lla	a5,_ZTV6Thread+16
  89      93870700 
  90 0044 2330F500 		sd	a5,0(a0)
  19:src/Thread.cpp **** }
  91              		.loc 2 19 5 is_stmt 1
  19:src/Thread.cpp **** }
  92              		.loc 2 19 16 is_stmt 0
  93 0048 97000000 		call	_Z11thread_exitv@plt
  93      E7800000 
  94              	.LVL4:
  95              	.LBE2:
  20:src/Thread.cpp **** 
  96              		.loc 2 20 1
  97 0050 83308100 		ld	ra,8(sp)
  98              		.cfi_restore 1
  99 0054 03340100 		ld	s0,0(sp)
 100              		.cfi_restore 8
 101              		.cfi_def_cfa 2, 16
 102 0058 13010101 		addi	sp,sp,16
 103              		.cfi_def_cfa_offset 0
 104 005c 67800000 		jr	ra
 105              		.cfi_endproc
 106              	.LFE9:
 107              		.globl	__gxx_personality_v0
 108              		.section	.gcc_except_table,"a",@progbits
 109              	.LLSDA9:
GAS LISTING /tmp/ccyEjN6J.s 			page 4


 110 0000 FF       		.byte	0xff
 111 0001 FF       		.byte	0xff
 112 0002 03       		.byte	0x3
 113 0003 00       		.byte	0
 114              		.text
 116              		.globl	_ZN6ThreadD1Ev
 117              		.set	_ZN6ThreadD1Ev,_ZN6ThreadD2Ev
 118              		.align	2
 119              		.globl	_ZN6ThreadD0Ev
 121              	_ZN6ThreadD0Ev:
 122              	.LFB11:
  18:src/Thread.cpp ****     thread_exit();
 123              		.loc 2 18 1 is_stmt 1
 124              		.cfi_startproc
 125              	.LVL5:
 126 0060 130101FE 		addi	sp,sp,-32
 127              		.cfi_def_cfa_offset 32
 128 0064 233C1100 		sd	ra,24(sp)
 129 0068 23388100 		sd	s0,16(sp)
 130 006c 23349100 		sd	s1,8(sp)
 131              		.cfi_offset 1, -8
 132              		.cfi_offset 8, -16
 133              		.cfi_offset 9, -24
 134 0070 13040102 		addi	s0,sp,32
 135              		.cfi_def_cfa 8, 0
 136 0074 93040500 		mv	s1,a0
  20:src/Thread.cpp **** 
 137              		.loc 2 20 1 is_stmt 0
 138 0078 97000000 		call	_ZN6ThreadD1Ev
 138      E7800000 
 139              	.LVL6:
 140 0080 13850400 		mv	a0,s1
 141 0084 97000000 		call	_ZdlPv@plt
 141      E7800000 
 142              	.LVL7:
 143 008c 83308101 		ld	ra,24(sp)
 144              		.cfi_restore 1
 145 0090 03340101 		ld	s0,16(sp)
 146              		.cfi_restore 8
 147              		.cfi_def_cfa 2, 32
 148 0094 83348100 		ld	s1,8(sp)
 149              		.cfi_restore 9
 150              	.LVL8:
 151 0098 13010102 		addi	sp,sp,32
 152              		.cfi_def_cfa_offset 0
 153 009c 67800000 		jr	ra
 154              		.cfi_endproc
 155              	.LFE11:
 157              		.align	2
 158              		.globl	_ZN6ThreadC2EPFvPvES0_
 160              	_ZN6ThreadC2EPFvPvES0_:
 161              	.LFB3:
   6:src/Thread.cpp **** 
 162              		.loc 2 6 1 is_stmt 1
 163              		.cfi_startproc
 164              	.LVL9:
 165 00a0 130101FF 		addi	sp,sp,-16
GAS LISTING /tmp/ccyEjN6J.s 			page 5


 166              		.cfi_def_cfa_offset 16
 167 00a4 23341100 		sd	ra,8(sp)
 168 00a8 23308100 		sd	s0,0(sp)
 169              		.cfi_offset 1, -8
 170              		.cfi_offset 8, -16
 171 00ac 13040101 		addi	s0,sp,16
 172              		.cfi_def_cfa 8, 0
 173              	.LBB3:
   6:src/Thread.cpp **** 
 174              		.loc 2 6 47 is_stmt 0
 175 00b0 97070000 		lla	a5,_ZTV6Thread+16
 175      93870700 
 176 00b8 2330F500 		sd	a5,0(a0)
  11:src/Thread.cpp **** }
 177              		.loc 2 11 5 is_stmt 1
  11:src/Thread.cpp **** }
 178              		.loc 2 11 26 is_stmt 0
 179 00bc 13058500 		addi	a0,a0,8
 180              	.LVL10:
 181 00c0 97000000 		call	_Z21thread_initializationPP7_threadPFvPvES2_@plt
 181      E7800000 
 182              	.LVL11:
 183              	.LBE3:
  12:src/Thread.cpp **** 
 184              		.loc 2 12 1
 185 00c8 83308100 		ld	ra,8(sp)
 186              		.cfi_restore 1
 187 00cc 03340100 		ld	s0,0(sp)
 188              		.cfi_restore 8
 189              		.cfi_def_cfa 2, 16
 190 00d0 13010101 		addi	sp,sp,16
 191              		.cfi_def_cfa_offset 0
 192 00d4 67800000 		jr	ra
 193              		.cfi_endproc
 194              	.LFE3:
 196              		.globl	_ZN6ThreadC1EPFvPvES0_
 197              		.set	_ZN6ThreadC1EPFvPvES0_,_ZN6ThreadC2EPFvPvES0_
 198              		.align	2
 199              		.globl	_ZN6ThreadC2Ev
 201              	_ZN6ThreadC2Ev:
 202              	.LFB6:
  14:src/Thread.cpp ****     thread_initialization(&myHandle, wrapper, this);
 203              		.loc 2 14 1 is_stmt 1
 204              		.cfi_startproc
 205              	.LVL12:
 206 00d8 130101FF 		addi	sp,sp,-16
 207              		.cfi_def_cfa_offset 16
 208 00dc 23341100 		sd	ra,8(sp)
 209 00e0 23308100 		sd	s0,0(sp)
 210              		.cfi_offset 1, -8
 211              		.cfi_offset 8, -16
 212 00e4 13040101 		addi	s0,sp,16
 213              		.cfi_def_cfa 8, 0
 214              	.LBB4:
  14:src/Thread.cpp ****     thread_initialization(&myHandle, wrapper, this);
 215              		.loc 2 14 16 is_stmt 0
 216 00e8 97070000 		lla	a5,_ZTV6Thread+16
GAS LISTING /tmp/ccyEjN6J.s 			page 6


 216      93870700 
 217 00f0 2330F500 		sd	a5,0(a0)
  15:src/Thread.cpp **** }
 218              		.loc 2 15 5 is_stmt 1
  15:src/Thread.cpp **** }
 219              		.loc 2 15 26 is_stmt 0
 220 00f4 13060500 		mv	a2,a0
 221 00f8 97050000 		lla	a1,_ZN6Thread7wrapperEPv
 221      93850500 
 222 0100 13058500 		addi	a0,a0,8
 223              	.LVL13:
 224 0104 97000000 		call	_Z21thread_initializationPP7_threadPFvPvES2_@plt
 224      E7800000 
 225              	.LVL14:
 226              	.LBE4:
  16:src/Thread.cpp **** 
 227              		.loc 2 16 1
 228 010c 83308100 		ld	ra,8(sp)
 229              		.cfi_restore 1
 230 0110 03340100 		ld	s0,0(sp)
 231              		.cfi_restore 8
 232              		.cfi_def_cfa 2, 16
 233 0114 13010101 		addi	sp,sp,16
 234              		.cfi_def_cfa_offset 0
 235 0118 67800000 		jr	ra
 236              		.cfi_endproc
 237              	.LFE6:
 239              		.globl	_ZN6ThreadC1Ev
 240              		.set	_ZN6ThreadC1Ev,_ZN6ThreadC2Ev
 241              		.align	2
 242              		.globl	_ZN6Thread5startEv
 244              	_ZN6Thread5startEv:
 245              	.LFB12:
  22:src/Thread.cpp ****     thread_start(myHandle);
 246              		.loc 2 22 20 is_stmt 1
 247              		.cfi_startproc
 248              	.LVL15:
 249 011c 130101FF 		addi	sp,sp,-16
 250              		.cfi_def_cfa_offset 16
 251 0120 23341100 		sd	ra,8(sp)
 252 0124 23308100 		sd	s0,0(sp)
 253              		.cfi_offset 1, -8
 254              		.cfi_offset 8, -16
 255 0128 13040101 		addi	s0,sp,16
 256              		.cfi_def_cfa 8, 0
  23:src/Thread.cpp ****     return 0;
 257              		.loc 2 23 5
  23:src/Thread.cpp ****     return 0;
 258              		.loc 2 23 17 is_stmt 0
 259 012c 03358500 		ld	a0,8(a0)
 260              	.LVL16:
 261 0130 97000000 		call	_Z12thread_startP7_thread@plt
 261      E7800000 
 262              	.LVL17:
  24:src/Thread.cpp **** }
 263              		.loc 2 24 5 is_stmt 1
  25:src/Thread.cpp **** 
GAS LISTING /tmp/ccyEjN6J.s 			page 7


 264              		.loc 2 25 1 is_stmt 0
 265 0138 13050000 		li	a0,0
 266 013c 83308100 		ld	ra,8(sp)
 267              		.cfi_restore 1
 268 0140 03340100 		ld	s0,0(sp)
 269              		.cfi_restore 8
 270              		.cfi_def_cfa 2, 16
 271 0144 13010101 		addi	sp,sp,16
 272              		.cfi_def_cfa_offset 0
 273 0148 67800000 		jr	ra
 274              		.cfi_endproc
 275              	.LFE12:
 277              		.align	2
 278              		.globl	_ZN6Thread8dispatchEv
 280              	_ZN6Thread8dispatchEv:
 281              	.LFB13:
  27:src/Thread.cpp ****     thread_dispatch();
 282              		.loc 2 27 24 is_stmt 1
 283              		.cfi_startproc
 284 014c 130101FF 		addi	sp,sp,-16
 285              		.cfi_def_cfa_offset 16
 286 0150 23341100 		sd	ra,8(sp)
 287 0154 23308100 		sd	s0,0(sp)
 288              		.cfi_offset 1, -8
 289              		.cfi_offset 8, -16
 290 0158 13040101 		addi	s0,sp,16
 291              		.cfi_def_cfa 8, 0
  28:src/Thread.cpp **** }
 292              		.loc 2 28 5
  28:src/Thread.cpp **** }
 293              		.loc 2 28 20 is_stmt 0
 294 015c 97000000 		call	_Z15thread_dispatchv@plt
 294      E7800000 
 295              	.LVL18:
  29:src/Thread.cpp **** 
 296              		.loc 2 29 1
 297 0164 83308100 		ld	ra,8(sp)
 298              		.cfi_restore 1
 299 0168 03340100 		ld	s0,0(sp)
 300              		.cfi_restore 8
 301              		.cfi_def_cfa 2, 16
 302 016c 13010101 		addi	sp,sp,16
 303              		.cfi_def_cfa_offset 0
 304 0170 67800000 		jr	ra
 305              		.cfi_endproc
 306              	.LFE13:
 308              		.align	2
 309              		.globl	_ZN6Thread5sleepEm
 311              	_ZN6Thread5sleepEm:
 312              	.LFB14:
  31:src/Thread.cpp ****     return time_sleep(t);
 313              		.loc 2 31 28 is_stmt 1
 314              		.cfi_startproc
 315              	.LVL19:
 316 0174 130101FF 		addi	sp,sp,-16
 317              		.cfi_def_cfa_offset 16
 318 0178 23341100 		sd	ra,8(sp)
GAS LISTING /tmp/ccyEjN6J.s 			page 8


 319 017c 23308100 		sd	s0,0(sp)
 320              		.cfi_offset 1, -8
 321              		.cfi_offset 8, -16
 322 0180 13040101 		addi	s0,sp,16
 323              		.cfi_def_cfa 8, 0
  32:src/Thread.cpp **** }
 324              		.loc 2 32 5
  32:src/Thread.cpp **** }
 325              		.loc 2 32 22 is_stmt 0
 326 0184 97000000 		call	_Z10time_sleepm@plt
 326      E7800000 
 327              	.LVL20:
  33:src/Thread.cpp **** 
 328              		.loc 2 33 1
 329 018c 83308100 		ld	ra,8(sp)
 330              		.cfi_restore 1
 331 0190 03340100 		ld	s0,0(sp)
 332              		.cfi_restore 8
 333              		.cfi_def_cfa 2, 16
 334 0194 13010101 		addi	sp,sp,16
 335              		.cfi_def_cfa_offset 0
 336 0198 67800000 		jr	ra
 337              		.cfi_endproc
 338              	.LFE14:
 340              		.weak	_ZTV6Thread
 341              		.section	.data.rel.ro.local._ZTV6Thread,"awG",@progbits,_ZTV6Thread,comdat
 342              		.align	3
 345              	_ZTV6Thread:
 346 0000 00000000 		.dword	0
 346      00000000 
 347 0008 00000000 		.dword	0
 347      00000000 
 348 0010 00000000 		.dword	_ZN6ThreadD1Ev
 348      00000000 
 349 0018 00000000 		.dword	_ZN6ThreadD0Ev
 349      00000000 
 350 0020 00000000 		.dword	_ZN6Thread3runEv
 350      00000000 
 351              		.text
 352              	.Letext0:
 353              		.file 3 "src/../h/../lib/hw.h"
 354              		.file 4 "src/../h/syscall_c.h"
 2006              		.align	3
 2009              	DW.ref.__gxx_personality_v0:
 2010 0000 00000000 		.dword	__gxx_personality_v0
 2010      00000000 
 2011              		.ident	"GCC: (Ubuntu 9.4.0-1ubuntu1~20.04) 9.4.0"
 2012              		.section	.note.GNU-stack,"",@progbits
GAS LISTING /tmp/ccyEjN6J.s 			page 9

