GAS LISTING /tmp/ccyEjN6J.s 			page 1


   1              		.file	"Thread.cpp"
   2              		.option pic
   3              		.option norelax
   4              		.text
   5              	.Ltext0:
   6              		.section	.text._ZN6Thread3runEv,"axG",@progbits,_ZN6Thread3runEv,comdat
   7              		.align	2
   8              		.weak	_ZN6Thread3runEv
  10              	_ZN6Thread3runEv:
  11              	.LFB0:
  12              		.file 1 "src/../h/syscall_cpp.hpp"
   1:src/../h/syscall_cpp.hpp **** //
   2:src/../h/syscall_cpp.hpp **** // Created by os on 9/14/22.
   3:src/../h/syscall_cpp.hpp **** //
   4:src/../h/syscall_cpp.hpp **** 
   5:src/../h/syscall_cpp.hpp **** #ifndef PROJECT_BASE_SYSCALL_CPP_HPP
   6:src/../h/syscall_cpp.hpp **** #define PROJECT_BASE_SYSCALL_CPP_HPP
   7:src/../h/syscall_cpp.hpp **** #include "syscall_c.h"
   8:src/../h/syscall_cpp.hpp **** //void* ::operator new (size_t);
   9:src/../h/syscall_cpp.hpp **** //void ::operator delete (void*);
  10:src/../h/syscall_cpp.hpp **** class Thread {
  11:src/../h/syscall_cpp.hpp **** public:
  12:src/../h/syscall_cpp.hpp ****     Thread (void (*body)(void*), void* arg);
  13:src/../h/syscall_cpp.hpp ****     virtual ~Thread ();
  14:src/../h/syscall_cpp.hpp ****     int start ();
  15:src/../h/syscall_cpp.hpp ****     static void dispatch ();
  16:src/../h/syscall_cpp.hpp ****     static int sleep (time_t);
  17:src/../h/syscall_cpp.hpp ****     static void wrapper(void*);
  18:src/../h/syscall_cpp.hpp **** protected:
  19:src/../h/syscall_cpp.hpp ****     Thread ();
  20:src/../h/syscall_cpp.hpp ****     virtual void run () {}
  13              		.loc 1 20 18
  14              		.cfi_startproc
  15              	.LVL0:
  16 0000 130101FF 		addi	sp,sp,-16
  17              		.cfi_def_cfa_offset 16
  18 0004 23348100 		sd	s0,8(sp)
  19              		.cfi_offset 8, -8
  20 0008 13040101 		addi	s0,sp,16
  21              		.cfi_def_cfa 8, 0
  22              		.loc 1 20 26 is_stmt 0
  23 000c 03348100 		ld	s0,8(sp)
  24              		.cfi_restore 8
  25              		.cfi_def_cfa 2, 16
  26 0010 13010101 		addi	sp,sp,16
  27              		.cfi_def_cfa_offset 0
  28 0014 67800000 		jr	ra
  29              		.cfi_endproc
  30              	.LFE0:
  32              		.text
  33              		.align	2
  34              		.globl	_ZN6Thread7wrapperEPv
  36              	_ZN6Thread7wrapperEPv:
  37              	.LFB15:
  38              		.file 2 "src/Thread.cpp"
   1:src/Thread.cpp **** //
   2:src/Thread.cpp **** // Created by os on 9/14/22.
GAS LISTING /tmp/ccyEjN6J.s 			page 2


   3:src/Thread.cpp **** //
   4:src/Thread.cpp **** #include "../h/syscall_cpp.hpp"
   5:src/Thread.cpp **** 
   6:src/Thread.cpp **** Thread::Thread(void (*body)(void *), void *arg) {
   7:src/Thread.cpp **** 
   8:src/Thread.cpp **** //    thread_create(&myHandle, body, arg);
   9:src/Thread.cpp **** // ipak ne sme da se startuje nit, a thread_create je startuje
  10:src/Thread.cpp **** //zato sam dodao sis poziv koji radi sve isto, ali ne ubacuje nit u scheduler
  11:src/Thread.cpp ****     thread_initialization(&myHandle, body, arg);
  12:src/Thread.cpp **** }
  13:src/Thread.cpp **** 
  14:src/Thread.cpp **** Thread::Thread() {
  15:src/Thread.cpp ****     thread_initialization(&myHandle, wrapper, this);
  16:src/Thread.cpp **** }
  17:src/Thread.cpp **** 
  18:src/Thread.cpp **** Thread::~Thread(){
  19:src/Thread.cpp ****     thread_exit();
  20:src/Thread.cpp **** }
  21:src/Thread.cpp **** 
  22:src/Thread.cpp **** int Thread::start(){
  23:src/Thread.cpp ****     thread_start(myHandle);
  24:src/Thread.cpp ****     return 0;
  25:src/Thread.cpp **** }
  26:src/Thread.cpp **** 
  27:src/Thread.cpp **** void Thread::dispatch(){
  28:src/Thread.cpp ****     thread_dispatch();
  29:src/Thread.cpp **** }
  30:src/Thread.cpp **** 
  31:src/Thread.cpp **** int Thread::sleep(time_t t){
  32:src/Thread.cpp ****     return time_sleep(t);
  33:src/Thread.cpp **** }
  34:src/Thread.cpp **** 
  35:src/Thread.cpp **** //kao na vezbama, agumenti se poklapaju za vec postojeci body, a mora da se posalje this u konstruk
  36:src/Thread.cpp **** //jer je wrapper staticka metoda
  37:src/Thread.cpp **** void Thread::wrapper(void *thread)
  38:src/Thread.cpp **** {
  39              		.loc 2 38 1 is_stmt 1
  40              		.cfi_startproc
  41              	.LVL1:
  42 0000 130101FF 		addi	sp,sp,-16
  43              		.cfi_def_cfa_offset 16
  44 0004 23341100 		sd	ra,8(sp)
  45 0008 23308100 		sd	s0,0(sp)
  46              		.cfi_offset 1, -8
  47              		.cfi_offset 8, -16
  48 000c 13040101 		addi	s0,sp,16
  49              		.cfi_def_cfa 8, 0
  39:src/Thread.cpp ****     ((Thread*)thread)->run();
  50              		.loc 2 39 5
  51              		.loc 2 39 28 is_stmt 0
  52 0010 83370500 		ld	a5,0(a0)
  53 0014 83B70701 		ld	a5,16(a5)
  54              		.loc 2 39 27
  55 0018 E7800700 		jalr	a5
  56              	.LVL2:
  40:src/Thread.cpp **** }
  57              		.loc 2 40 1
GAS LISTING /tmp/ccyEjN6J.s 			page 3


  58 001c 83308100 		ld	ra,8(sp)
  59              		.cfi_restore 1
  60 0020 03340100 		ld	s0,0(sp)
  61              		.cfi_restore 8
  62              		.cfi_def_cfa 2, 16
  63 0024 13010101 		addi	sp,sp,16
  64              		.cfi_def_cfa_offset 0
  65 0028 67800000 		jr	ra
  66              		.cfi_endproc
  67              	.LFE15:
  69              		.align	2
  70              		.globl	_ZN6ThreadD2Ev
  72              	_ZN6ThreadD2Ev:
  73              	.LFB9:
  18:src/Thread.cpp ****     thread_exit();
  74              		.loc 2 18 1 is_stmt 1
  75              		.cfi_startproc
  76              		.cfi_personality 0x9b,DW.ref.__gxx_personality_v0
  77              		.cfi_lsda 0x1b,.LLSDA9
  78              	.LVL3:
  79 002c 130101FF 		addi	sp,sp,-16
  80              		.cfi_def_cfa_offset 16
  81 0030 23341100 		sd	ra,8(sp)
  82 0034 23308100 		sd	s0,0(sp)
  83              		.cfi_offset 1, -8
  84              		.cfi_offset 8, -16
  85 0038 13040101 		addi	s0,sp,16
  86              		.cfi_def_cfa 8, 0
  87              	.LBB2:
  18:src/Thread.cpp ****     thread_exit();
  88              		.loc 2 18 17 is_stmt 0
  89 003c 97070000 		lla	a5,_ZTV6Thread+16
  89      93870700 
  90 0044 2330F500 		sd	a5,0(a0)
  19:src/Thread.cpp **** }
  91              		.loc 2 19 5 is_stmt 1
  19:src/Thread.cpp **** }
  92              		.loc 2 19 16 is_stmt 0
  93 0048 97000000 		call	_Z11thread_exitv@plt
  93      E7800000 
  94              	.LVL4:
  95              	.LBE2:
  20:src/Thread.cpp **** 
  96              		.loc 2 20 1
  97 0050 83308100 		ld	ra,8(sp)
  98              		.cfi_restore 1
  99 0054 03340100 		ld	s0,0(sp)
 100              		.cfi_restore 8
 101              		.cfi_def_cfa 2, 16
 102 0058 13010101 		addi	sp,sp,16
 103              		.cfi_def_cfa_offset 0
 104 005c 67800000 		jr	ra
 105              		.cfi_endproc
 106              	.LFE9:
 107              		.globl	__gxx_personality_v0
 108              		.section	.gcc_except_table,"a",@progbits
 109              	.LLSDA9:
GAS LISTING /tmp/ccyEjN6J.s 			page 4


 110 0000 FF       		.byte	0xff
 111 0001 FF       		.byte	0xff
 112 0002 03       		.byte	0x3
 113 0003 00       		.byte	0
 114              		.text
 116              		.globl	_ZN6ThreadD1Ev
 117              		.set	_ZN6ThreadD1Ev,_ZN6ThreadD2Ev
 118              		.align	2
 119              		.globl	_ZN6ThreadD0Ev
 121              	_ZN6ThreadD0Ev:
 122              	.LFB11:
  18:src/Thread.cpp ****     thread_exit();
 123              		.loc 2 18 1 is_stmt 1
 124              		.cfi_startproc
 125              	.LVL5:
 126 0060 130101FE 		addi	sp,sp,-32
 127              		.cfi_def_cfa_offset 32
 128 0064 233C1100 		sd	ra,24(sp)
 129 0068 23388100 		sd	s0,16(sp)
 130 006c 23349100 		sd	s1,8(sp)
 131              		.cfi_offset 1, -8
 132              		.cfi_offset 8, -16
 133              		.cfi_offset 9, -24
 134 0070 13040102 		addi	s0,sp,32
 135              		.cfi_def_cfa 8, 0
 136 0074 93040500 		mv	s1,a0
  20:src/Thread.cpp **** 
 137              		.loc 2 20 1 is_stmt 0
 138 0078 97000000 		call	_ZN6ThreadD1Ev
 138      E7800000 
 139              	.LVL6:
 140 0080 13850400 		mv	a0,s1
 141 0084 97000000 		call	_ZdlPv@plt
 141      E7800000 
 142              	.LVL7:
 143 008c 83308101 		ld	ra,24(sp)
 144              		.cfi_restore 1
 145 0090 03340101 		ld	s0,16(sp)
 146              		.cfi_restore 8
 147              		.cfi_def_cfa 2, 32
 148 0094 83348100 		ld	s1,8(sp)
 149              		.cfi_restore 9
 150              	.LVL8:
 151 0098 13010102 		addi	sp,sp,32
 152              		.cfi_def_cfa_offset 0
 153 009c 67800000 		jr	ra
 154              		.cfi_endproc
 155              	.LFE11:
 157              		.align	2
 158              		.globl	_ZN6ThreadC2EPFvPvES0_
 160              	_ZN6ThreadC2EPFvPvES0_:
 161              	.LFB3:
   6:src/Thread.cpp **** 
 162              		.loc 2 6 1 is_stmt 1
 163              		.cfi_startproc
 164              	.LVL9:
 165 00a0 130101FF 		addi	sp,sp,-16
GAS LISTING /tmp/ccyEjN6J.s 			page 5


 166              		.cfi_def_cfa_offset 16
 167 00a4 23341100 		sd	ra,8(sp)
 168 00a8 23308100 		sd	s0,0(sp)
 169              		.cfi_offset 1, -8
 170              		.cfi_offset 8, -16
 171 00ac 13040101 		addi	s0,sp,16
 172              		.cfi_def_cfa 8, 0
 173              	.LBB3:
   6:src/Thread.cpp **** 
 174              		.loc 2 6 47 is_stmt 0
 175 00b0 97070000 		lla	a5,_ZTV6Thread+16
 175      93870700 
 176 00b8 2330F500 		sd	a5,0(a0)
  11:src/Thread.cpp **** }
 177              		.loc 2 11 5 is_stmt 1
  11:src/Thread.cpp **** }
 178              		.loc 2 11 26 is_stmt 0
 179 00bc 13058500 		addi	a0,a0,8
 180              	.LVL10:
 181 00c0 97000000 		call	_Z21thread_initializationPP7_threadPFvPvES2_@plt
 181      E7800000 
 182              	.LVL11:
 183              	.LBE3:
  12:src/Thread.cpp **** 
 184              		.loc 2 12 1
 185 00c8 83308100 		ld	ra,8(sp)
 186              		.cfi_restore 1
 187 00cc 03340100 		ld	s0,0(sp)
 188              		.cfi_restore 8
 189              		.cfi_def_cfa 2, 16
 190 00d0 13010101 		addi	sp,sp,16
 191              		.cfi_def_cfa_offset 0
 192 00d4 67800000 		jr	ra
 193              		.cfi_endproc
 194              	.LFE3:
 196              		.globl	_ZN6ThreadC1EPFvPvES0_
 197              		.set	_ZN6ThreadC1EPFvPvES0_,_ZN6ThreadC2EPFvPvES0_
 198              		.align	2
 199              		.globl	_ZN6ThreadC2Ev
 201              	_ZN6ThreadC2Ev:
 202              	.LFB6:
  14:src/Thread.cpp ****     thread_initialization(&myHandle, wrapper, this);
 203              		.loc 2 14 1 is_stmt 1
 204              		.cfi_startproc
 205              	.LVL12:
 206 00d8 130101FF 		addi	sp,sp,-16
 207              		.cfi_def_cfa_offset 16
 208 00dc 23341100 		sd	ra,8(sp)
 209 00e0 23308100 		sd	s0,0(sp)
 210              		.cfi_offset 1, -8
 211              		.cfi_offset 8, -16
 212 00e4 13040101 		addi	s0,sp,16
 213              		.cfi_def_cfa 8, 0
 214              	.LBB4:
  14:src/Thread.cpp ****     thread_initialization(&myHandle, wrapper, this);
 215              		.loc 2 14 16 is_stmt 0
 216 00e8 97070000 		lla	a5,_ZTV6Thread+16
GAS LISTING /tmp/ccyEjN6J.s 			page 6


 216      93870700 
 217 00f0 2330F500 		sd	a5,0(a0)
  15:src/Thread.cpp **** }
 218              		.loc 2 15 5 is_stmt 1
  15:src/Thread.cpp **** }
 219              		.loc 2 15 26 is_stmt 0
 220 00f4 13060500 		mv	a2,a0
 221 00f8 97050000 		lla	a1,_ZN6Thread7wrapperEPv
 221      93850500 
 222 0100 13058500 		addi	a0,a0,8
 223              	.LVL13:
 224 0104 97000000 		call	_Z21thread_initializationPP7_threadPFvPvES2_@plt
 224      E7800000 
 225              	.LVL14:
 226              	.LBE4:
  16:src/Thread.cpp **** 
 227              		.loc 2 16 1
 228 010c 83308100 		ld	ra,8(sp)
 229              		.cfi_restore 1
 230 0110 03340100 		ld	s0,0(sp)
 231              		.cfi_restore 8
 232              		.cfi_def_cfa 2, 16
 233 0114 13010101 		addi	sp,sp,16
 234              		.cfi_def_cfa_offset 0
 235 0118 67800000 		jr	ra
 236              		.cfi_endproc
 237              	.LFE6:
 239              		.globl	_ZN6ThreadC1Ev
 240              		.set	_ZN6ThreadC1Ev,_ZN6ThreadC2Ev
 241              		.align	2
 242              		.globl	_ZN6Thread5startEv
 244              	_ZN6Thread5startEv:
 245              	.LFB12:
  22:src/Thread.cpp ****     thread_start(myHandle);
 246              		.loc 2 22 20 is_stmt 1
 247              		.cfi_startproc
 248              	.LVL15:
 249 011c 130101FF 		addi	sp,sp,-16
 250              		.cfi_def_cfa_offset 16
 251 0120 23341100 		sd	ra,8(sp)
 252 0124 23308100 		sd	s0,0(sp)
 253              		.cfi_offset 1, -8
 254              		.cfi_offset 8, -16
 255 0128 13040101 		addi	s0,sp,16
 256              		.cfi_def_cfa 8, 0
  23:src/Thread.cpp ****     return 0;
 257              		.loc 2 23 5
  23:src/Thread.cpp ****     return 0;
 258              		.loc 2 23 17 is_stmt 0
 259 012c 03358500 		ld	a0,8(a0)
 260              	.LVL16:
 261 0130 97000000 		call	_Z12thread_startP7_thread@plt
 261      E7800000 
 262              	.LVL17:
  24:src/Thread.cpp **** }
 263              		.loc 2 24 5 is_stmt 1
  25:src/Thread.cpp **** 
GAS LISTING /tmp/ccyEjN6J.s 			page 7


 264              		.loc 2 25 1 is_stmt 0
 265 0138 13050000 		li	a0,0
 266 013c 83308100 		ld	ra,8(sp)
 267              		.cfi_restore 1
 268 0140 03340100 		ld	s0,0(sp)
 269              		.cfi_restore 8
 270              		.cfi_def_cfa 2, 16
 271 0144 13010101 		addi	sp,sp,16
 272              		.cfi_def_cfa_offset 0
 273 0148 67800000 		jr	ra
 274              		.cfi_endproc
 275              	.LFE12:
 277              		.align	2
 278              		.globl	_ZN6Thread8dispatchEv
 280              	_ZN6Thread8dispatchEv:
 281              	.LFB13:
  27:src/Thread.cpp ****     thread_dispatch();
 282              		.loc 2 27 24 is_stmt 1
 283              		.cfi_startproc
 284 014c 130101FF 		addi	sp,sp,-16
 285              		.cfi_def_cfa_offset 16
 286 0150 23341100 		sd	ra,8(sp)
 287 0154 23308100 		sd	s0,0(sp)
 288              		.cfi_offset 1, -8
 289              		.cfi_offset 8, -16
 290 0158 13040101 		addi	s0,sp,16
 291              		.cfi_def_cfa 8, 0
  28:src/Thread.cpp **** }
 292              		.loc 2 28 5
  28:src/Thread.cpp **** }
 293              		.loc 2 28 20 is_stmt 0
 294 015c 97000000 		call	_Z15thread_dispatchv@plt
 294      E7800000 
 295              	.LVL18:
  29:src/Thread.cpp **** 
 296              		.loc 2 29 1
 297 0164 83308100 		ld	ra,8(sp)
 298              		.cfi_restore 1
 299 0168 03340100 		ld	s0,0(sp)
 300              		.cfi_restore 8
 301              		.cfi_def_cfa 2, 16
 302 016c 13010101 		addi	sp,sp,16
 303              		.cfi_def_cfa_offset 0
 304 0170 67800000 		jr	ra
 305              		.cfi_endproc
 306              	.LFE13:
 308              		.align	2
 309              		.globl	_ZN6Thread5sleepEm
 311              	_ZN6Thread5sleepEm:
 312              	.LFB14:
  31:src/Thread.cpp ****     return time_sleep(t);
 313              		.loc 2 31 28 is_stmt 1
 314              		.cfi_startproc
 315              	.LVL19:
 316 0174 130101FF 		addi	sp,sp,-16
 317              		.cfi_def_cfa_offset 16
 318 0178 23341100 		sd	ra,8(sp)
GAS LISTING /tmp/ccyEjN6J.s 			page 8


 319 017c 23308100 		sd	s0,0(sp)
 320              		.cfi_offset 1, -8
 321              		.cfi_offset 8, -16
 322 0180 13040101 		addi	s0,sp,16
 323              		.cfi_def_cfa 8, 0
  32:src/Thread.cpp **** }
 324              		.loc 2 32 5
  32:src/Thread.cpp **** }
 325              		.loc 2 32 22 is_stmt 0
 326 0184 97000000 		call	_Z10time_sleepm@plt
 326      E7800000 
 327              	.LVL20:
  33:src/Thread.cpp **** 
 328              		.loc 2 33 1
 329 018c 83308100 		ld	ra,8(sp)
 330              		.cfi_restore 1
 331 0190 03340100 		ld	s0,0(sp)
 332              		.cfi_restore 8
 333              		.cfi_def_cfa 2, 16
 334 0194 13010101 		addi	sp,sp,16
 335              		.cfi_def_cfa_offset 0
 336 0198 67800000 		jr	ra
 337              		.cfi_endproc
 338              	.LFE14:
 340              		.weak	_ZTV6Thread
 341              		.section	.data.rel.ro.local._ZTV6Thread,"awG",@progbits,_ZTV6Thread,comdat
 342              		.align	3
 345              	_ZTV6Thread:
 346 0000 00000000 		.dword	0
 346      00000000 
 347 0008 00000000 		.dword	0
 347      00000000 
 348 0010 00000000 		.dword	_ZN6ThreadD1Ev
 348      00000000 
 349 0018 00000000 		.dword	_ZN6ThreadD0Ev
 349      00000000 
 350 0020 00000000 		.dword	_ZN6Thread3runEv
 350      00000000 
 351              		.text
 352              	.Letext0:
 353              		.file 3 "src/../h/../lib/hw.h"
 354              		.file 4 "src/../h/syscall_c.h"
 2006              		.align	3
 2009              	DW.ref.__gxx_personality_v0:
 2010 0000 00000000 		.dword	__gxx_personality_v0
 2010      00000000 
 2011              		.ident	"GCC: (Ubuntu 9.4.0-1ubuntu1~20.04) 9.4.0"
 2012              		.section	.note.GNU-stack,"",@progbits
GAS LISTING /tmp/ccyEjN6J.s 			page 9


DEFINED SYMBOLS
                            *ABS*:0000000000000000 Thread.cpp
     /tmp/ccyEjN6J.s:10     .text._ZN6Thread3runEv:0000000000000000 _ZN6Thread3runEv
     /tmp/ccyEjN6J.s:14     .text._ZN6Thread3runEv:0000000000000000 .L0 
     /tmp/ccyEjN6J.s:16     .text._ZN6Thread3runEv:0000000000000000 .L0 
     /tmp/ccyEjN6J.s:17     .text._ZN6Thread3runEv:0000000000000004 .L0 
     /tmp/ccyEjN6J.s:19     .text._ZN6Thread3runEv:0000000000000008 .L0 
     /tmp/ccyEjN6J.s:21     .text._ZN6Thread3runEv:000000000000000c .L0 
     /tmp/ccyEjN6J.s:23     .text._ZN6Thread3runEv:000000000000000c .L0 
     /tmp/ccyEjN6J.s:24     .text._ZN6Thread3runEv:0000000000000010 .L0 
     /tmp/ccyEjN6J.s:25     .text._ZN6Thread3runEv:0000000000000010 .L0 
     /tmp/ccyEjN6J.s:27     .text._ZN6Thread3runEv:0000000000000014 .L0 
     /tmp/ccyEjN6J.s:29     .text._ZN6Thread3runEv:0000000000000018 .L0 
     /tmp/ccyEjN6J.s:36     .text:0000000000000000 _ZN6Thread7wrapperEPv
     /tmp/ccyEjN6J.s:40     .text:0000000000000000 .L0 
     /tmp/ccyEjN6J.s:42     .text:0000000000000000 .L0 
     /tmp/ccyEjN6J.s:43     .text:0000000000000004 .L0 
     /tmp/ccyEjN6J.s:46     .text:000000000000000c .L0 
     /tmp/ccyEjN6J.s:47     .text:000000000000000c .L0 
     /tmp/ccyEjN6J.s:49     .text:0000000000000010 .L0 
     /tmp/ccyEjN6J.s:51     .text:0000000000000010 .L0 
     /tmp/ccyEjN6J.s:52     .text:0000000000000010 .L0 
     /tmp/ccyEjN6J.s:55     .text:0000000000000018 .L0 
     /tmp/ccyEjN6J.s:58     .text:000000000000001c .L0 
     /tmp/ccyEjN6J.s:59     .text:0000000000000020 .L0 
     /tmp/ccyEjN6J.s:61     .text:0000000000000024 .L0 
     /tmp/ccyEjN6J.s:62     .text:0000000000000024 .L0 
     /tmp/ccyEjN6J.s:64     .text:0000000000000028 .L0 
     /tmp/ccyEjN6J.s:66     .text:000000000000002c .L0 
     /tmp/ccyEjN6J.s:72     .text:000000000000002c _ZN6ThreadD2Ev
     /tmp/ccyEjN6J.s:75     .text:000000000000002c .L0 
     /tmp/ccyEjN6J.s:2009   .data.rel.local.DW.ref.__gxx_personality_v0:0000000000000000 DW.ref.__gxx_personality_v0
     /tmp/ccyEjN6J.s:79     .text:000000000000002c .L0 
     /tmp/ccyEjN6J.s:80     .text:0000000000000030 .L0 
     /tmp/ccyEjN6J.s:83     .text:0000000000000038 .L0 
     /tmp/ccyEjN6J.s:84     .text:0000000000000038 .L0 
     /tmp/ccyEjN6J.s:86     .text:000000000000003c .L0 
     /tmp/ccyEjN6J.s:345    .data.rel.ro.local._ZTV6Thread:0000000000000000 _ZTV6Thread
     /tmp/ccyEjN6J.s:89     .text:000000000000003c .L0 
     /tmp/ccyEjN6J.s:92     .text:0000000000000048 .L0 
     /tmp/ccyEjN6J.s:93     .text:0000000000000048 .L0 
     /tmp/ccyEjN6J.s:97     .text:0000000000000050 .L0 
     /tmp/ccyEjN6J.s:98     .text:0000000000000054 .L0 
     /tmp/ccyEjN6J.s:100    .text:0000000000000058 .L0 
     /tmp/ccyEjN6J.s:101    .text:0000000000000058 .L0 
     /tmp/ccyEjN6J.s:103    .text:000000000000005c .L0 
     /tmp/ccyEjN6J.s:105    .text:0000000000000060 .L0 
     /tmp/ccyEjN6J.s:72     .text:000000000000002c _ZN6ThreadD1Ev
     /tmp/ccyEjN6J.s:121    .text:0000000000000060 _ZN6ThreadD0Ev
     /tmp/ccyEjN6J.s:124    .text:0000000000000060 .L0 
     /tmp/ccyEjN6J.s:126    .text:0000000000000060 .L0 
     /tmp/ccyEjN6J.s:127    .text:0000000000000064 .L0 
     /tmp/ccyEjN6J.s:131    .text:0000000000000070 .L0 
     /tmp/ccyEjN6J.s:132    .text:0000000000000070 .L0 
     /tmp/ccyEjN6J.s:133    .text:0000000000000070 .L0 
     /tmp/ccyEjN6J.s:135    .text:0000000000000074 .L0 
     /tmp/ccyEjN6J.s:138    .text:0000000000000078 .L0 
GAS LISTING /tmp/ccyEjN6J.s 			page 10


     /tmp/ccyEjN6J.s:144    .text:0000000000000090 .L0 
     /tmp/ccyEjN6J.s:146    .text:0000000000000094 .L0 
     /tmp/ccyEjN6J.s:147    .text:0000000000000094 .L0 
     /tmp/ccyEjN6J.s:149    .text:0000000000000098 .L0 
     /tmp/ccyEjN6J.s:152    .text:000000000000009c .L0 
     /tmp/ccyEjN6J.s:154    .text:00000000000000a0 .L0 
     /tmp/ccyEjN6J.s:160    .text:00000000000000a0 _ZN6ThreadC2EPFvPvES0_
     /tmp/ccyEjN6J.s:163    .text:00000000000000a0 .L0 
     /tmp/ccyEjN6J.s:165    .text:00000000000000a0 .L0 
     /tmp/ccyEjN6J.s:166    .text:00000000000000a4 .L0 
     /tmp/ccyEjN6J.s:169    .text:00000000000000ac .L0 
     /tmp/ccyEjN6J.s:170    .text:00000000000000ac .L0 
     /tmp/ccyEjN6J.s:172    .text:00000000000000b0 .L0 
     /tmp/ccyEjN6J.s:175    .text:00000000000000b0 .L0 
     /tmp/ccyEjN6J.s:178    .text:00000000000000bc .L0 
     /tmp/ccyEjN6J.s:179    .text:00000000000000bc .L0 
     /tmp/ccyEjN6J.s:185    .text:00000000000000c8 .L0 
     /tmp/ccyEjN6J.s:186    .text:00000000000000cc .L0 
     /tmp/ccyEjN6J.s:188    .text:00000000000000d0 .L0 
     /tmp/ccyEjN6J.s:189    .text:00000000000000d0 .L0 
     /tmp/ccyEjN6J.s:191    .text:00000000000000d4 .L0 
     /tmp/ccyEjN6J.s:193    .text:00000000000000d8 .L0 
     /tmp/ccyEjN6J.s:160    .text:00000000000000a0 _ZN6ThreadC1EPFvPvES0_
     /tmp/ccyEjN6J.s:201    .text:00000000000000d8 _ZN6ThreadC2Ev
     /tmp/ccyEjN6J.s:204    .text:00000000000000d8 .L0 
     /tmp/ccyEjN6J.s:206    .text:00000000000000d8 .L0 
     /tmp/ccyEjN6J.s:207    .text:00000000000000dc .L0 
     /tmp/ccyEjN6J.s:210    .text:00000000000000e4 .L0 
     /tmp/ccyEjN6J.s:211    .text:00000000000000e4 .L0 
     /tmp/ccyEjN6J.s:213    .text:00000000000000e8 .L0 
     /tmp/ccyEjN6J.s:216    .text:00000000000000e8 .L0 
     /tmp/ccyEjN6J.s:219    .text:00000000000000f4 .L0 
     /tmp/ccyEjN6J.s:220    .text:00000000000000f4 .L0 
     /tmp/ccyEjN6J.s:228    .text:000000000000010c .L0 
     /tmp/ccyEjN6J.s:229    .text:0000000000000110 .L0 
     /tmp/ccyEjN6J.s:231    .text:0000000000000114 .L0 
     /tmp/ccyEjN6J.s:232    .text:0000000000000114 .L0 
     /tmp/ccyEjN6J.s:234    .text:0000000000000118 .L0 
     /tmp/ccyEjN6J.s:236    .text:000000000000011c .L0 
     /tmp/ccyEjN6J.s:201    .text:00000000000000d8 _ZN6ThreadC1Ev
     /tmp/ccyEjN6J.s:244    .text:000000000000011c _ZN6Thread5startEv
     /tmp/ccyEjN6J.s:247    .text:000000000000011c .L0 
     /tmp/ccyEjN6J.s:249    .text:000000000000011c .L0 
     /tmp/ccyEjN6J.s:250    .text:0000000000000120 .L0 
     /tmp/ccyEjN6J.s:253    .text:0000000000000128 .L0 
     /tmp/ccyEjN6J.s:254    .text:0000000000000128 .L0 
     /tmp/ccyEjN6J.s:256    .text:000000000000012c .L0 
     /tmp/ccyEjN6J.s:258    .text:000000000000012c .L0 
     /tmp/ccyEjN6J.s:259    .text:000000000000012c .L0 
     /tmp/ccyEjN6J.s:264    .text:0000000000000138 .L0 
     /tmp/ccyEjN6J.s:265    .text:0000000000000138 .L0 
     /tmp/ccyEjN6J.s:267    .text:0000000000000140 .L0 
     /tmp/ccyEjN6J.s:269    .text:0000000000000144 .L0 
     /tmp/ccyEjN6J.s:270    .text:0000000000000144 .L0 
     /tmp/ccyEjN6J.s:272    .text:0000000000000148 .L0 
     /tmp/ccyEjN6J.s:274    .text:000000000000014c .L0 
     /tmp/ccyEjN6J.s:280    .text:000000000000014c _ZN6Thread8dispatchEv
GAS LISTING /tmp/ccyEjN6J.s 			page 11


     /tmp/ccyEjN6J.s:283    .text:000000000000014c .L0 
     /tmp/ccyEjN6J.s:284    .text:000000000000014c .L0 
     /tmp/ccyEjN6J.s:285    .text:0000000000000150 .L0 
     /tmp/ccyEjN6J.s:288    .text:0000000000000158 .L0 
     /tmp/ccyEjN6J.s:289    .text:0000000000000158 .L0 
     /tmp/ccyEjN6J.s:291    .text:000000000000015c .L0 
     /tmp/ccyEjN6J.s:293    .text:000000000000015c .L0 
     /tmp/ccyEjN6J.s:294    .text:000000000000015c .L0 
     /tmp/ccyEjN6J.s:297    .text:0000000000000164 .L0 
     /tmp/ccyEjN6J.s:298    .text:0000000000000168 .L0 
     /tmp/ccyEjN6J.s:300    .text:000000000000016c .L0 
     /tmp/ccyEjN6J.s:301    .text:000000000000016c .L0 
     /tmp/ccyEjN6J.s:303    .text:0000000000000170 .L0 
     /tmp/ccyEjN6J.s:305    .text:0000000000000174 .L0 
     /tmp/ccyEjN6J.s:311    .text:0000000000000174 _ZN6Thread5sleepEm
     /tmp/ccyEjN6J.s:314    .text:0000000000000174 .L0 
     /tmp/ccyEjN6J.s:316    .text:0000000000000174 .L0 
     /tmp/ccyEjN6J.s:317    .text:0000000000000178 .L0 
     /tmp/ccyEjN6J.s:320    .text:0000000000000180 .L0 
     /tmp/ccyEjN6J.s:321    .text:0000000000000180 .L0 
     /tmp/ccyEjN6J.s:323    .text:0000000000000184 .L0 
     /tmp/ccyEjN6J.s:325    .text:0000000000000184 .L0 
     /tmp/ccyEjN6J.s:326    .text:0000000000000184 .L0 
     /tmp/ccyEjN6J.s:329    .text:000000000000018c .L0 
     /tmp/ccyEjN6J.s:330    .text:0000000000000190 .L0 
     /tmp/ccyEjN6J.s:332    .text:0000000000000194 .L0 
     /tmp/ccyEjN6J.s:333    .text:0000000000000194 .L0 
     /tmp/ccyEjN6J.s:335    .text:0000000000000198 .L0 
     /tmp/ccyEjN6J.s:337    .text:000000000000019c .L0 
     /tmp/ccyEjN6J.s:32     .text._ZN6Thread3runEv:0000000000000018 .L0 
     /tmp/ccyEjN6J.s:355    .text:000000000000019c .L0 
     /tmp/ccyEjN6J.s:89     .text:000000000000003c .L0 
     /tmp/ccyEjN6J.s:175    .text:00000000000000b0 .L0 
     /tmp/ccyEjN6J.s:216    .text:00000000000000e8 .L0 
     /tmp/ccyEjN6J.s:221    .text:00000000000000f8 .L0 
     /tmp/ccyEjN6J.s:982    .debug_abbrev:0000000000000000 .Ldebug_abbrev0
     /tmp/ccyEjN6J.s:1943   .debug_str:00000000000001e3 .LASF43
     /tmp/ccyEjN6J.s:1919   .debug_str:0000000000000138 .LASF44
     /tmp/ccyEjN6J.s:1969   .debug_str:0000000000000340 .LASF45
     /tmp/ccyEjN6J.s:1869   .debug_ranges:0000000000000000 .Ldebug_ranges0
     /tmp/ccyEjN6J.s:1877   .debug_line:0000000000000000 .Ldebug_line0
     /tmp/ccyEjN6J.s:1947   .debug_str:00000000000002b6 .LASF0
     /tmp/ccyEjN6J.s:1927   .debug_str:000000000000017e .LASF1
     /tmp/ccyEjN6J.s:1935   .debug_str:00000000000001ac .LASF2
     /tmp/ccyEjN6J.s:1895   .debug_str:000000000000007b .LASF4
     /tmp/ccyEjN6J.s:1925   .debug_str:000000000000016c .LASF3
     /tmp/ccyEjN6J.s:1885   .debug_str:0000000000000029 .LASF5
     /tmp/ccyEjN6J.s:1959   .debug_str:00000000000002fd .LASF6
     /tmp/ccyEjN6J.s:1883   .debug_str:0000000000000016 .LASF7
     /tmp/ccyEjN6J.s:1913   .debug_str:000000000000010f .LASF8
     /tmp/ccyEjN6J.s:1961   .debug_str:0000000000000304 .LASF9
     /tmp/ccyEjN6J.s:1893   .debug_str:000000000000006d .LASF10
     /tmp/ccyEjN6J.s:2001   .debug_str:0000000000000440 .LASF11
     /tmp/ccyEjN6J.s:1915   .debug_str:0000000000000122 .LASF12
     /tmp/ccyEjN6J.s:1991   .debug_str:0000000000000413 .LASF13
     /tmp/ccyEjN6J.s:1957   .debug_str:00000000000002ed .LASF14
     /tmp/ccyEjN6J.s:1931   .debug_str:0000000000000198 .LASF15
GAS LISTING /tmp/ccyEjN6J.s 			page 12


     /tmp/ccyEjN6J.s:1905   .debug_str:00000000000000bc .LASF16
     /tmp/ccyEjN6J.s:1963   .debug_str:0000000000000314 .LASF17
     /tmp/ccyEjN6J.s:1965   .debug_str:000000000000032a .LASF18
     /tmp/ccyEjN6J.s:1981   .debug_str:00000000000003d0 .LASF46
     /tmp/ccyEjN6J.s:1955   .debug_str:00000000000002e8 .LASF19
     /tmp/ccyEjN6J.s:1917   .debug_str:0000000000000131 .LASF20
     /tmp/ccyEjN6J.s:1989   .debug_str:0000000000000401 .LASF47
     /tmp/ccyEjN6J.s:1879   .debug_str:0000000000000000 .LASF48
     /tmp/ccyEjN6J.s:1907   .debug_str:00000000000000d2 .LASF22
     /tmp/ccyEjN6J.s:1933   .debug_str:00000000000001a4 .LASF49
     /tmp/ccyEjN6J.s:1945   .debug_str:00000000000002a7 .LASF50
     /tmp/ccyEjN6J.s:1949   .debug_str:00000000000002c3 .LASF51
     /tmp/ccyEjN6J.s:1901   .debug_str:000000000000009a .LASF52
     /tmp/ccyEjN6J.s:1881   .debug_str:000000000000000d .LASF53
     /tmp/ccyEjN6J.s:1921   .debug_str:0000000000000147 .LASF54
     /tmp/ccyEjN6J.s:1995   .debug_str:000000000000042a .LASF21
     /tmp/ccyEjN6J.s:1939   .debug_str:00000000000001bf .LASF23
     /tmp/ccyEjN6J.s:1897   .debug_str:0000000000000082 .LASF55
     /tmp/ccyEjN6J.s:1973   .debug_str:0000000000000374 .LASF56
     /tmp/ccyEjN6J.s:1923   .debug_str:000000000000015d .LASF24
     /tmp/ccyEjN6J.s:1911   .debug_str:00000000000000fe .LASF57
     /tmp/ccyEjN6J.s:1977   .debug_str:000000000000039a .LASF58
     /tmp/ccyEjN6J.s:1899   .debug_str:000000000000008a .LASF59
     /tmp/ccyEjN6J.s:37     .text:0000000000000000 .LFB15
     /tmp/ccyEjN6J.s:67     .text:000000000000002c .LFE15
     /tmp/ccyEjN6J.s:1929   .debug_str:0000000000000191 .LASF25
     /tmp/ccyEjN6J.s:1714   .debug_loc:0000000000000000 .LLST0
     /tmp/ccyEjN6J.s:56     .text:000000000000001c .LVL2
     /tmp/ccyEjN6J.s:312    .text:0000000000000174 .LFB14
     /tmp/ccyEjN6J.s:338    .text:000000000000019c .LFE14
     /tmp/ccyEjN6J.s:1728   .debug_loc:0000000000000039 .LLST8
     /tmp/ccyEjN6J.s:327    .text:000000000000018c .LVL20
     /tmp/ccyEjN6J.s:281    .text:000000000000014c .LFB13
     /tmp/ccyEjN6J.s:306    .text:0000000000000174 .LFE13
     /tmp/ccyEjN6J.s:295    .text:0000000000000164 .LVL18
     /tmp/ccyEjN6J.s:245    .text:000000000000011c .LFB12
     /tmp/ccyEjN6J.s:275    .text:000000000000014c .LFE12
     /tmp/ccyEjN6J.s:1999   .debug_str:000000000000043b .LASF26
     /tmp/ccyEjN6J.s:1742   .debug_loc:0000000000000072 .LLST7
     /tmp/ccyEjN6J.s:262    .text:0000000000000138 .LVL17
     /tmp/ccyEjN6J.s:1983   .debug_str:00000000000003d8 .LASF27
     /tmp/ccyEjN6J.s:1903   .debug_str:00000000000000ad .LASF28
     /tmp/ccyEjN6J.s:122    .text:0000000000000060 .LFB11
     /tmp/ccyEjN6J.s:155    .text:00000000000000a0 .LFE11
     /tmp/ccyEjN6J.s:1756   .debug_loc:00000000000000ab .LLST2
     /tmp/ccyEjN6J.s:139    .text:0000000000000080 .LVL6
     /tmp/ccyEjN6J.s:142    .text:000000000000008c .LVL7
     /tmp/ccyEjN6J.s:1987   .debug_str:00000000000003f2 .LASF29
     /tmp/ccyEjN6J.s:73     .text:000000000000002c .LFB9
     /tmp/ccyEjN6J.s:106    .text:0000000000000060 .LFE9
     /tmp/ccyEjN6J.s:1774   .debug_loc:00000000000000f7 .LLST1
     /tmp/ccyEjN6J.s:94     .text:0000000000000050 .LVL4
     /tmp/ccyEjN6J.s:1951   .debug_str:00000000000002c9 .LASF30
     /tmp/ccyEjN6J.s:202    .text:00000000000000d8 .LFB6
     /tmp/ccyEjN6J.s:237    .text:000000000000011c .LFE6
     /tmp/ccyEjN6J.s:1788   .debug_loc:0000000000000130 .LLST6
     /tmp/ccyEjN6J.s:225    .text:000000000000010c .LVL14
GAS LISTING /tmp/ccyEjN6J.s 			page 13


     /tmp/ccyEjN6J.s:1937   .debug_str:00000000000001ba .LASF31
     /tmp/ccyEjN6J.s:1887   .debug_str:0000000000000030 .LASF32
     /tmp/ccyEjN6J.s:161    .text:00000000000000a0 .LFB3
     /tmp/ccyEjN6J.s:194    .text:00000000000000d8 .LFE3
     /tmp/ccyEjN6J.s:1806   .debug_loc:000000000000017c .LLST3
     /tmp/ccyEjN6J.s:1826   .debug_loc:00000000000001ca .LLST4
     /tmp/ccyEjN6J.s:1840   .debug_loc:0000000000000203 .LLST5
     /tmp/ccyEjN6J.s:182    .text:00000000000000c8 .LVL11
     /tmp/ccyEjN6J.s:11     .text._ZN6Thread3runEv:0000000000000000 .LFB0
     /tmp/ccyEjN6J.s:30     .text._ZN6Thread3runEv:0000000000000018 .LFE0
     /tmp/ccyEjN6J.s:1985   .debug_str:00000000000003e2 .LASF33
     /tmp/ccyEjN6J.s:1997   .debug_str:0000000000000430 .LASF35
     /tmp/ccyEjN6J.s:1909   .debug_str:00000000000000e9 .LASF34
     /tmp/ccyEjN6J.s:1975   .debug_str:000000000000038a .LASF36
     /tmp/ccyEjN6J.s:1891   .debug_str:0000000000000053 .LASF37
     /tmp/ccyEjN6J.s:1967   .debug_str:0000000000000333 .LASF38
     /tmp/ccyEjN6J.s:1993   .debug_str:0000000000000423 .LASF60
     /tmp/ccyEjN6J.s:1953   .debug_str:00000000000002d8 .LASF61
     /tmp/ccyEjN6J.s:1941   .debug_str:00000000000001d2 .LASF39
     /tmp/ccyEjN6J.s:1889   .debug_str:0000000000000047 .LASF40
     /tmp/ccyEjN6J.s:1979   .debug_str:00000000000003a3 .LASF41
     /tmp/ccyEjN6J.s:1971   .debug_str:000000000000035e .LASF42
     /tmp/ccyEjN6J.s:41     .text:0000000000000000 .LVL1
     /tmp/ccyEjN6J.s:315    .text:0000000000000174 .LVL19
     /tmp/ccyEjN6J.s:248    .text:000000000000011c .LVL15
     /tmp/ccyEjN6J.s:260    .text:0000000000000130 .LVL16
     /tmp/ccyEjN6J.s:125    .text:0000000000000060 .LVL5
     /tmp/ccyEjN6J.s:150    .text:0000000000000098 .LVL8
     /tmp/ccyEjN6J.s:78     .text:000000000000002c .LVL3
     /tmp/ccyEjN6J.s:205    .text:00000000000000d8 .LVL12
     /tmp/ccyEjN6J.s:223    .text:0000000000000104 .LVL13
     /tmp/ccyEjN6J.s:164    .text:00000000000000a0 .LVL9
     /tmp/ccyEjN6J.s:180    .text:00000000000000c0 .LVL10
     /tmp/ccyEjN6J.s:356    .debug_info:0000000000000000 .Ldebug_info0
     /tmp/ccyEjN6J.s:5      .text:0000000000000000 .Ltext0
     /tmp/ccyEjN6J.s:352    .text:000000000000019c .Letext0
     /tmp/ccyEjN6J.s:109    .gcc_except_table:0000000000000000 .LLSDA9

UNDEFINED SYMBOLS
_Z11thread_exitv
__gxx_personality_v0
_ZdlPv
_Z21thread_initializationPP7_threadPFvPvES2_
_Z12thread_startP7_thread
_Z15thread_dispatchv
_Z10time_sleepm
