GAS LISTING /tmp/ccCRWoGH.s 			page 1


   1              		.file	"workers.cpp"
   2              		.option pic
   3              		.option norelax
   4              		.text
   5              	.Ltext0:
   6              		.align	2
   8              	_ZL9fibonaccim:
   9              	.LFB51:
  10              		.file 1 "src/workers.cpp"
   1:src/workers.cpp **** //
   2:src/workers.cpp **** // Created by marko on 20.4.22..
   3:src/workers.cpp **** //
   4:src/workers.cpp **** 
   5:src/workers.cpp **** #include "../lib/hw.h"
   6:src/workers.cpp **** #include "../h/tcb.hpp"
   7:src/workers.cpp **** #include "../h/print.hpp"
   8:src/workers.cpp **** #include "../h/syscall_c.h"
   9:src/workers.cpp **** #include "../h/riscv.hpp"
  10:src/workers.cpp **** 
  11:src/workers.cpp **** void workerBodyA()
  12:src/workers.cpp **** {
  13:src/workers.cpp ****     for (uint64 i = 0; i < 10; i++)
  14:src/workers.cpp ****     {
  15:src/workers.cpp ****         if(i == 5) {
  16:src/workers.cpp ****             time_sleep(50);
  17:src/workers.cpp **** //            putc(Riscv::ttt);
  18:src/workers.cpp **** //            while(true)
  19:src/workers.cpp **** //                putc(Riscv::buff2.take());
  20:src/workers.cpp **** //            putc('o');
  21:src/workers.cpp **** //            putc('a');
  22:src/workers.cpp **** //            putc('b');
  23:src/workers.cpp **** //            putc('v');
  24:src/workers.cpp **** //            putc('d');
  25:src/workers.cpp **** //            putc('c');
  26:src/workers.cpp **** //            putc('q');
  27:src/workers.cpp **** 
  28:src/workers.cpp ****             char c = getc();
  29:src/workers.cpp ****             putc(c);
  30:src/workers.cpp ****         }
  31:src/workers.cpp ****         printString("A: i=");
  32:src/workers.cpp ****         printInteger(i);
  33:src/workers.cpp ****         printString("\n");
  34:src/workers.cpp ****         for (uint64 j = 0; j < 10000; j++)
  35:src/workers.cpp ****         {
  36:src/workers.cpp ****             for (uint64 k = 0; k < 30000; k++)
  37:src/workers.cpp ****             {
  38:src/workers.cpp ****                 // busy wait
  39:src/workers.cpp ****             }
  40:src/workers.cpp **** //            _thread::yield();
  41:src/workers.cpp ****         }
  42:src/workers.cpp ****     }
  43:src/workers.cpp **** //    void* p = mem_alloc(4096);
  44:src/workers.cpp **** //    printString("stigao do dealokacije\n");
  45:src/workers.cpp **** //    printInteger((uint64)p);
  46:src/workers.cpp **** //    if(mem_free(p) == 0)
  47:src/workers.cpp **** //        printString("USPESNO OSLOBODJENA MEMORIJA!");
  48:src/workers.cpp **** //    else
GAS LISTING /tmp/ccCRWoGH.s 			page 2


  49:src/workers.cpp **** //        printString("NEUSPESNO OSLOBODJENA MEMORIJA");
  50:src/workers.cpp **** //    time_sleep(50);
  51:src/workers.cpp **** }
  52:src/workers.cpp **** 
  53:src/workers.cpp **** void workerBodyB()
  54:src/workers.cpp **** {
  55:src/workers.cpp ****     for (uint64 i = 0; i < 16; i++)
  56:src/workers.cpp ****     {
  57:src/workers.cpp ****         printString("B: i=");
  58:src/workers.cpp ****         printInteger(i);
  59:src/workers.cpp ****         printString("\n");
  60:src/workers.cpp ****         for (uint64 j = 0; j < 10000; j++)
  61:src/workers.cpp ****         {
  62:src/workers.cpp ****             for (uint64 k = 0; k < 30000; k++)
  63:src/workers.cpp ****             {
  64:src/workers.cpp ****                 // busy wait
  65:src/workers.cpp ****             }
  66:src/workers.cpp **** //            _thread::yield();
  67:src/workers.cpp ****         }
  68:src/workers.cpp ****     }
  69:src/workers.cpp **** }
  70:src/workers.cpp **** 
  71:src/workers.cpp **** static uint64 fibonacci(uint64 n)
  72:src/workers.cpp **** {
  11              		.loc 1 72 1
  12              		.cfi_startproc
  13              	.LVL0:
  14 0000 130101FE 		addi	sp,sp,-32
  15              		.cfi_def_cfa_offset 32
  16 0004 233C1100 		sd	ra,24(sp)
  17 0008 23388100 		sd	s0,16(sp)
  18 000c 23349100 		sd	s1,8(sp)
  19 0010 23302101 		sd	s2,0(sp)
  20              		.cfi_offset 1, -8
  21              		.cfi_offset 8, -16
  22              		.cfi_offset 9, -24
  23              		.cfi_offset 18, -32
  24 0014 13040102 		addi	s0,sp,32
  25              		.cfi_def_cfa 8, 0
  26 0018 93040500 		mv	s1,a0
  73:src/workers.cpp ****     if (n == 0 || n == 1) { return n; }
  27              		.loc 1 73 5
  28 001c 93071000 		li	a5,1
  29 0020 63F8A702 		bleu	a0,a5,.L1
  74:src/workers.cpp ****     if (n % 10 == 0) { _thread::yield(); }
  30              		.loc 1 74 5
  31              		.loc 1 74 11 is_stmt 0
  32 0024 9307A000 		li	a5,10
  33 0028 B377F502 		remu	a5,a0,a5
  34              		.loc 1 74 5
  35 002c 638E0702 		beqz	a5,.L6
  36              	.LVL1:
  37              	.L3:
  75:src/workers.cpp ****     return fibonacci(n - 1) + fibonacci(n - 2);
  38              		.loc 1 75 5 is_stmt 1
  39              		.loc 1 75 21 is_stmt 0
  40 0030 1385F4FF 		addi	a0,s1,-1
GAS LISTING /tmp/ccCRWoGH.s 			page 3


  41 0034 97000000 		call	_ZL9fibonaccim
  41      E7800000 
  42              	.LVL2:
  43 003c 13090500 		mv	s2,a0
  44              		.loc 1 75 40
  45 0040 1385E4FF 		addi	a0,s1,-2
  46 0044 97000000 		call	_ZL9fibonaccim
  46      E7800000 
  47              	.LVL3:
  48              		.loc 1 75 46
  49 004c 3305A900 		add	a0,s2,a0
  50              	.L1:
  76:src/workers.cpp **** }
  51              		.loc 1 76 1
  52 0050 83308101 		ld	ra,24(sp)
  53              		.cfi_remember_state
  54              		.cfi_restore 1
  55 0054 03340101 		ld	s0,16(sp)
  56              		.cfi_restore 8
  57              		.cfi_def_cfa 2, 32
  58 0058 83348100 		ld	s1,8(sp)
  59              		.cfi_restore 9
  60              	.LVL4:
  61 005c 03390100 		ld	s2,0(sp)
  62              		.cfi_restore 18
  63 0060 13010102 		addi	sp,sp,32
  64              		.cfi_def_cfa_offset 0
  65 0064 67800000 		jr	ra
  66              	.LVL5:
  67              	.L6:
  68              		.cfi_restore_state
  74:src/workers.cpp ****     if (n % 10 == 0) { _thread::yield(); }
  69              		.loc 1 74 24 is_stmt 1 discriminator 1
  74:src/workers.cpp ****     if (n % 10 == 0) { _thread::yield(); }
  70              		.loc 1 74 38 is_stmt 0 discriminator 1
  71 0068 97000000 		call	_ZN7_thread5yieldEv@plt
  71      E7800000 
  72              	.LVL6:
  73 0070 6FF01FFC 		j	.L3
  74              		.cfi_endproc
  75              	.LFE51:
  77              		.section	.rodata.str1.8,"aMS",@progbits,1
  78              		.align	3
  79              	.LC0:
  80 0000 413A2069 		.string	"A: i="
  80      3D00
  81 0006 0000     		.align	3
  82              	.LC1:
  83 0008 0A00     		.string	"\n"
  84              		.text
  85              		.align	2
  86              		.globl	_Z11workerBodyAv
  88              	_Z11workerBodyAv:
  89              	.LFB49:
  12:src/workers.cpp ****     for (uint64 i = 0; i < 10; i++)
  90              		.loc 1 12 1 is_stmt 1
  91              		.cfi_startproc
GAS LISTING /tmp/ccCRWoGH.s 			page 4


  92 0074 130101FE 		addi	sp,sp,-32
  93              		.cfi_def_cfa_offset 32
  94 0078 233C1100 		sd	ra,24(sp)
  95 007c 23388100 		sd	s0,16(sp)
  96 0080 23349100 		sd	s1,8(sp)
  97              		.cfi_offset 1, -8
  98              		.cfi_offset 8, -16
  99              		.cfi_offset 9, -24
 100 0084 13040102 		addi	s0,sp,32
 101              		.cfi_def_cfa 8, 0
  13:src/workers.cpp ****     {
 102              		.loc 1 13 5
 103              	.LVL7:
 104              	.LBB2:
  13:src/workers.cpp ****     {
 105              		.loc 1 13 17 is_stmt 0
 106 0088 93040000 		li	s1,0
 107 008c 6F000005 		j	.L14
 108              	.LVL8:
 109              	.L16:
 110              	.LBB3:
 111              	.LBB4:
 112              	.LBB5:
  16:src/workers.cpp **** //            putc(Riscv::ttt);
 113              		.loc 1 16 13 is_stmt 1
  16:src/workers.cpp **** //            putc(Riscv::ttt);
 114              		.loc 1 16 23 is_stmt 0
 115 0090 13052003 		li	a0,50
 116 0094 97000000 		call	_Z10time_sleepm@plt
 116      E7800000 
 117              	.LVL9:
  28:src/workers.cpp ****             putc(c);
 118              		.loc 1 28 13 is_stmt 1
  28:src/workers.cpp ****             putc(c);
 119              		.loc 1 28 26 is_stmt 0
 120 009c 97000000 		call	_Z4getcv@plt
 120      E7800000 
 121              	.LVL10:
  29:src/workers.cpp ****         }
 122              		.loc 1 29 13 is_stmt 1
  29:src/workers.cpp ****         }
 123              		.loc 1 29 17 is_stmt 0
 124 00a4 97000000 		call	_Z4putcc@plt
 124      E7800000 
 125              	.LVL11:
 126              	.LBE5:
 127 00ac 6F000004 		j	.L9
 128              	.LVL12:
 129              	.L11:
 130              	.LBE4:
 131              	.LBB6:
  34:src/workers.cpp ****         {
 132              		.loc 1 34 9 is_stmt 1 discriminator 2
 133 00b0 93861600 		addi	a3,a3,1
 134              	.LVL13:
 135              	.L13:
  34:src/workers.cpp ****         {
GAS LISTING /tmp/ccCRWoGH.s 			page 5


 136              		.loc 1 34 30 discriminator 1
 137 00b4 B7270000 		li	a5,8192
 138 00b8 9387F770 		addi	a5,a5,1807
 139 00bc 63EED700 		bgtu	a3,a5,.L10
 140              	.LBB7:
  36:src/workers.cpp ****             {
 141              		.loc 1 36 25 is_stmt 0
 142 00c0 13070000 		li	a4,0
 143              	.L12:
 144              	.LVL14:
  36:src/workers.cpp ****             {
 145              		.loc 1 36 34 is_stmt 1 discriminator 3
 146 00c4 B7770000 		li	a5,28672
 147 00c8 9387F752 		addi	a5,a5,1327
 148 00cc E3E2E7FE 		bgtu	a4,a5,.L11
  36:src/workers.cpp ****             {
 149              		.loc 1 36 13 discriminator 2
 150 00d0 13071700 		addi	a4,a4,1
 151              	.LVL15:
 152 00d4 6FF01FFF 		j	.L12
 153              	.LVL16:
 154              	.L10:
 155              	.LBE7:
 156              	.LBE6:
 157              	.LBE3:
  13:src/workers.cpp ****     {
 158              		.loc 1 13 5 discriminator 2
 159 00d8 93841400 		addi	s1,s1,1
 160              	.LVL17:
 161              	.L14:
  13:src/workers.cpp ****     {
 162              		.loc 1 13 26 discriminator 1
 163 00dc 93079000 		li	a5,9
 164 00e0 63E09704 		bgtu	s1,a5,.L7
 165              	.LBB10:
  15:src/workers.cpp ****             time_sleep(50);
 166              		.loc 1 15 9
 167              	.LBB8:
 168 00e4 93075000 		li	a5,5
 169 00e8 E384F4FA 		beq	s1,a5,.L16
 170              	.L9:
 171              	.LBE8:
  31:src/workers.cpp ****         printInteger(i);
 172              		.loc 1 31 9
  31:src/workers.cpp ****         printInteger(i);
 173              		.loc 1 31 20 is_stmt 0
 174 00ec 17050000 		lla	a0,.LC0
 174      13050500 
 175 00f4 97000000 		call	_Z11printStringPKc@plt
 175      E7800000 
 176              	.LVL18:
  32:src/workers.cpp ****         printString("\n");
 177              		.loc 1 32 9 is_stmt 1
  32:src/workers.cpp ****         printString("\n");
 178              		.loc 1 32 21 is_stmt 0
 179 00fc 13850400 		mv	a0,s1
 180 0100 97000000 		call	_Z12printIntegerm@plt
GAS LISTING /tmp/ccCRWoGH.s 			page 6


 180      E7800000 
 181              	.LVL19:
  33:src/workers.cpp ****         for (uint64 j = 0; j < 10000; j++)
 182              		.loc 1 33 9 is_stmt 1
  33:src/workers.cpp ****         for (uint64 j = 0; j < 10000; j++)
 183              		.loc 1 33 20 is_stmt 0
 184 0108 17050000 		lla	a0,.LC1
 184      13050500 
 185 0110 97000000 		call	_Z11printStringPKc@plt
 185      E7800000 
 186              	.LVL20:
  34:src/workers.cpp ****         {
 187              		.loc 1 34 9 is_stmt 1
 188              	.LBB9:
  34:src/workers.cpp ****         {
 189              		.loc 1 34 21 is_stmt 0
 190 0118 93060000 		li	a3,0
 191 011c 6FF09FF9 		j	.L13
 192              	.LVL21:
 193              	.L7:
 194              	.LBE9:
 195              	.LBE10:
 196              	.LBE2:
  51:src/workers.cpp **** 
 197              		.loc 1 51 1
 198 0120 83308101 		ld	ra,24(sp)
 199              		.cfi_restore 1
 200 0124 03340101 		ld	s0,16(sp)
 201              		.cfi_restore 8
 202              		.cfi_def_cfa 2, 32
 203 0128 83348100 		ld	s1,8(sp)
 204              		.cfi_restore 9
 205              	.LVL22:
 206 012c 13010102 		addi	sp,sp,32
 207              		.cfi_def_cfa_offset 0
 208 0130 67800000 		jr	ra
 209              		.cfi_endproc
 210              	.LFE49:
 212              		.section	.rodata.str1.8
 213 000a 00000000 		.align	3
 213      0000
 214              	.LC2:
 215 0010 423A2069 		.string	"B: i="
 215      3D00
 216              		.text
 217              		.align	2
 218              		.globl	_Z11workerBodyBv
 220              	_Z11workerBodyBv:
 221              	.LFB50:
  54:src/workers.cpp ****     for (uint64 i = 0; i < 16; i++)
 222              		.loc 1 54 1 is_stmt 1
 223              		.cfi_startproc
 224 0134 130101FE 		addi	sp,sp,-32
 225              		.cfi_def_cfa_offset 32
 226 0138 233C1100 		sd	ra,24(sp)
 227 013c 23388100 		sd	s0,16(sp)
 228 0140 23349100 		sd	s1,8(sp)
GAS LISTING /tmp/ccCRWoGH.s 			page 7


 229              		.cfi_offset 1, -8
 230              		.cfi_offset 8, -16
 231              		.cfi_offset 9, -24
 232 0144 13040102 		addi	s0,sp,32
 233              		.cfi_def_cfa 8, 0
  55:src/workers.cpp ****     {
 234              		.loc 1 55 5
 235              	.LVL23:
 236              	.LBB11:
  55:src/workers.cpp ****     {
 237              		.loc 1 55 17 is_stmt 0
 238 0148 93040000 		li	s1,0
 239 014c 6F000003 		j	.L23
 240              	.LVL24:
 241              	.L20:
 242              	.LBB12:
 243              	.LBB13:
  60:src/workers.cpp ****         {
 244              		.loc 1 60 9 is_stmt 1 discriminator 2
 245 0150 93861600 		addi	a3,a3,1
 246              	.LVL25:
 247              	.L22:
  60:src/workers.cpp ****         {
 248              		.loc 1 60 30 discriminator 1
 249 0154 B7270000 		li	a5,8192
 250 0158 9387F770 		addi	a5,a5,1807
 251 015c 63EED700 		bgtu	a3,a5,.L19
 252              	.LBB14:
  62:src/workers.cpp ****             {
 253              		.loc 1 62 25 is_stmt 0
 254 0160 13070000 		li	a4,0
 255              	.L21:
 256              	.LVL26:
  62:src/workers.cpp ****             {
 257              		.loc 1 62 34 is_stmt 1 discriminator 3
 258 0164 B7770000 		li	a5,28672
 259 0168 9387F752 		addi	a5,a5,1327
 260 016c E3E2E7FE 		bgtu	a4,a5,.L20
  62:src/workers.cpp ****             {
 261              		.loc 1 62 13 discriminator 2
 262 0170 13071700 		addi	a4,a4,1
 263              	.LVL27:
 264 0174 6FF01FFF 		j	.L21
 265              	.LVL28:
 266              	.L19:
 267              	.LBE14:
 268              	.LBE13:
 269              	.LBE12:
  55:src/workers.cpp ****     {
 270              		.loc 1 55 5 discriminator 2
 271 0178 93841400 		addi	s1,s1,1
 272              	.LVL29:
 273              	.L23:
  55:src/workers.cpp ****     {
 274              		.loc 1 55 26 discriminator 1
 275 017c 9307F000 		li	a5,15
 276 0180 63EC9702 		bgtu	s1,a5,.L17
GAS LISTING /tmp/ccCRWoGH.s 			page 8


 277              	.LBB16:
  57:src/workers.cpp ****         printInteger(i);
 278              		.loc 1 57 9
  57:src/workers.cpp ****         printInteger(i);
 279              		.loc 1 57 20 is_stmt 0
 280 0184 17050000 		lla	a0,.LC2
 280      13050500 
 281 018c 97000000 		call	_Z11printStringPKc@plt
 281      E7800000 
 282              	.LVL30:
  58:src/workers.cpp ****         printString("\n");
 283              		.loc 1 58 9 is_stmt 1
  58:src/workers.cpp ****         printString("\n");
 284              		.loc 1 58 21 is_stmt 0
 285 0194 13850400 		mv	a0,s1
 286 0198 97000000 		call	_Z12printIntegerm@plt
 286      E7800000 
 287              	.LVL31:
  59:src/workers.cpp ****         for (uint64 j = 0; j < 10000; j++)
 288              		.loc 1 59 9 is_stmt 1
  59:src/workers.cpp ****         for (uint64 j = 0; j < 10000; j++)
 289              		.loc 1 59 20 is_stmt 0
 290 01a0 17050000 		lla	a0,.LC1
 290      13050500 
 291 01a8 97000000 		call	_Z11printStringPKc@plt
 291      E7800000 
 292              	.LVL32:
  60:src/workers.cpp ****         {
 293              		.loc 1 60 9 is_stmt 1
 294              	.LBB15:
  60:src/workers.cpp ****         {
 295              		.loc 1 60 21 is_stmt 0
 296 01b0 93060000 		li	a3,0
 297 01b4 6FF01FFA 		j	.L22
 298              	.LVL33:
 299              	.L17:
 300              	.LBE15:
 301              	.LBE16:
 302              	.LBE11:
  69:src/workers.cpp **** 
 303              		.loc 1 69 1
 304 01b8 83308101 		ld	ra,24(sp)
 305              		.cfi_restore 1
 306 01bc 03340101 		ld	s0,16(sp)
 307              		.cfi_restore 8
 308              		.cfi_def_cfa 2, 32
 309 01c0 83348100 		ld	s1,8(sp)
 310              		.cfi_restore 9
 311              	.LVL34:
 312 01c4 13010102 		addi	sp,sp,32
 313              		.cfi_def_cfa_offset 0
 314 01c8 67800000 		jr	ra
 315              		.cfi_endproc
 316              	.LFE50:
 318              		.section	.rodata.str1.8
 319 0016 0000     		.align	3
 320              	.LC3:
GAS LISTING /tmp/ccCRWoGH.s 			page 9


 321 0018 433A2069 		.string	"C: i="
 321      3D00
 322 001e 0000     		.align	3
 323              	.LC4:
 324 0020 433A2079 		.string	"C: yield\n"
 324      69656C64 
 324      0A00
 325 002a 00000000 		.align	3
 325      0000
 326              	.LC5:
 327 0030 433A2074 		.string	"C: t1="
 327      313D00
 328 0037 00       		.align	3
 329              	.LC6:
 330 0038 433A2066 		.string	"C: fibonaci="
 330      69626F6E 
 330      6163693D 
 330      00
 331              		.text
 332              		.align	2
 333              		.globl	_Z11workerBodyCv
 335              	_Z11workerBodyCv:
 336              	.LFB52:
  77:src/workers.cpp **** 
  78:src/workers.cpp **** void workerBodyC()
  79:src/workers.cpp **** {
 337              		.loc 1 79 1 is_stmt 1
 338              		.cfi_startproc
 339 01cc 130101FE 		addi	sp,sp,-32
 340              		.cfi_def_cfa_offset 32
 341 01d0 233C1100 		sd	ra,24(sp)
 342 01d4 23388100 		sd	s0,16(sp)
 343 01d8 23349100 		sd	s1,8(sp)
 344 01dc 23302101 		sd	s2,0(sp)
 345              		.cfi_offset 1, -8
 346              		.cfi_offset 8, -16
 347              		.cfi_offset 9, -24
 348              		.cfi_offset 18, -32
 349 01e0 13040102 		addi	s0,sp,32
 350              		.cfi_def_cfa 8, 0
  80:src/workers.cpp ****     uint8 i = 0;
 351              		.loc 1 80 5
 352              	.LVL35:
 353              		.loc 1 80 11 is_stmt 0
 354 01e4 93040000 		li	s1,0
 355 01e8 6F008003 		j	.L27
 356              	.LVL36:
 357              	.L31:
  81:src/workers.cpp ****     for (; i < 3; i++)
  82:src/workers.cpp ****     {
  83:src/workers.cpp ****         printString("C: i=");
 358              		.loc 1 83 9 is_stmt 1 discriminator 1
 359              		.loc 1 83 20 is_stmt 0 discriminator 1
 360 01ec 17050000 		lla	a0,.LC3
 360      13050500 
 361 01f4 97000000 		call	_Z11printStringPKc@plt
 361      E7800000 
GAS LISTING /tmp/ccCRWoGH.s 			page 10


 362              	.LVL37:
  84:src/workers.cpp ****         printInteger(i);
 363              		.loc 1 84 9 is_stmt 1 discriminator 1
 364              		.loc 1 84 21 is_stmt 0 discriminator 1
 365 01fc 13850400 		mv	a0,s1
 366 0200 97000000 		call	_Z12printIntegerm@plt
 366      E7800000 
 367              	.LVL38:
  85:src/workers.cpp ****         printString("\n");
 368              		.loc 1 85 9 is_stmt 1 discriminator 1
 369              		.loc 1 85 20 is_stmt 0 discriminator 1
 370 0208 17050000 		lla	a0,.LC1
 370      13050500 
 371 0210 97000000 		call	_Z11printStringPKc@plt
 371      E7800000 
 372              	.LVL39:
  81:src/workers.cpp ****     for (; i < 3; i++)
 373              		.loc 1 81 5 is_stmt 1 discriminator 1
 374 0218 9B841400 		addiw	s1,s1,1
 375              	.LVL40:
 376 021c 93F4F40F 		andi	s1,s1,0xff
 377              	.LVL41:
 378              	.L27:
  81:src/workers.cpp ****     for (; i < 3; i++)
 379              		.loc 1 81 5 discriminator 2
  81:src/workers.cpp ****     for (; i < 3; i++)
 380              		.loc 1 81 14 discriminator 2
 381 0220 93072000 		li	a5,2
 382 0224 E3F497FC 		bleu	s1,a5,.L31
  86:src/workers.cpp ****     }
  87:src/workers.cpp **** 
  88:src/workers.cpp ****     printString("C: yield\n");
 383              		.loc 1 88 5
 384              		.loc 1 88 16 is_stmt 0
 385 0228 17050000 		lla	a0,.LC4
 385      13050500 
 386 0230 97000000 		call	_Z11printStringPKc@plt
 386      E7800000 
 387              	.LVL42:
  89:src/workers.cpp ****     __asm__ ("li t1, 7");
 388              		.loc 1 89 5 is_stmt 1
 389              		.loc 1 89 25 is_stmt 0
 390              	#APP
 391              	# 89 "src/workers.cpp" 1
  90              	    _thread::yield();
 392              		li t1, 7
 393              	# 0 "" 2
 394              		.loc 1 90 5 is_stmt 1
 395              		.loc 1 90 19 is_stmt 0
 396              	#NO_APP
 397 023c 97000000 		call	_ZN7_thread5yieldEv@plt
 397      E7800000 
 398              	.LVL43:
  91:src/workers.cpp **** 
  92:src/workers.cpp ****     uint64 t1 = 0;
 399              		.loc 1 92 5 is_stmt 1
  93:src/workers.cpp ****     __asm__ ("mv %[t1], t1" : [t1] "=r"(t1));
GAS LISTING /tmp/ccCRWoGH.s 			page 11


 400              		.loc 1 93 5
 401              		.loc 1 93 45 is_stmt 0
 402              	#APP
 403              	# 93 "src/workers.cpp" 1
  94              	
 404              		mv s2, t1
 405              	# 0 "" 2
 406              	.LVL44:
  95:src/workers.cpp ****     printString("C: t1=");
 407              		.loc 1 95 5 is_stmt 1
 408              		.loc 1 95 16 is_stmt 0
 409              	#NO_APP
 410 0248 17050000 		lla	a0,.LC5
 410      13050500 
 411 0250 97000000 		call	_Z11printStringPKc@plt
 411      E7800000 
 412              	.LVL45:
  96:src/workers.cpp ****     printInteger(t1);
 413              		.loc 1 96 5 is_stmt 1
 414              		.loc 1 96 17 is_stmt 0
 415 0258 13050900 		mv	a0,s2
 416 025c 97000000 		call	_Z12printIntegerm@plt
 416      E7800000 
 417              	.LVL46:
  97:src/workers.cpp ****     printString("\n");
 418              		.loc 1 97 5 is_stmt 1
 419              		.loc 1 97 16 is_stmt 0
 420 0264 17050000 		lla	a0,.LC1
 420      13050500 
 421 026c 97000000 		call	_Z11printStringPKc@plt
 421      E7800000 
 422              	.LVL47:
  98:src/workers.cpp **** 
  99:src/workers.cpp ****     uint64 result = fibonacci(12);
 423              		.loc 1 99 5 is_stmt 1
 424              		.loc 1 99 30 is_stmt 0
 425 0274 1305C000 		li	a0,12
 426 0278 97000000 		call	_ZL9fibonaccim
 426      E7800000 
 427              	.LVL48:
 428 0280 13090500 		mv	s2,a0
 429              	.LVL49:
 100:src/workers.cpp ****     printString("C: fibonaci=");
 430              		.loc 1 100 5 is_stmt 1
 431              		.loc 1 100 16 is_stmt 0
 432 0284 17050000 		lla	a0,.LC6
 432      13050500 
 433              	.LVL50:
 434 028c 97000000 		call	_Z11printStringPKc@plt
 434      E7800000 
 435              	.LVL51:
 101:src/workers.cpp ****     printInteger(result);
 436              		.loc 1 101 5 is_stmt 1
 437              		.loc 1 101 17 is_stmt 0
 438 0294 13050900 		mv	a0,s2
 439 0298 97000000 		call	_Z12printIntegerm@plt
 439      E7800000 
GAS LISTING /tmp/ccCRWoGH.s 			page 12


 440              	.LVL52:
 102:src/workers.cpp ****     printString("\n");
 441              		.loc 1 102 5 is_stmt 1
 442              		.loc 1 102 16 is_stmt 0
 443 02a0 17050000 		lla	a0,.LC1
 443      13050500 
 444 02a8 97000000 		call	_Z11printStringPKc@plt
 444      E7800000 
 445              	.LVL53:
 446 02b0 6F008003 		j	.L29
 447              	.L32:
 103:src/workers.cpp **** 
 104:src/workers.cpp ****     for (; i < 6; i++)
 105:src/workers.cpp ****     {
 106:src/workers.cpp ****         printString("C: i=");
 448              		.loc 1 106 9 is_stmt 1 discriminator 1
 449              		.loc 1 106 20 is_stmt 0 discriminator 1
 450 02b4 17050000 		lla	a0,.LC3
 450      13050500 
 451 02bc 97000000 		call	_Z11printStringPKc@plt
 451      E7800000 
 452              	.LVL54:
 107:src/workers.cpp ****         printInteger(i);
 453              		.loc 1 107 9 is_stmt 1 discriminator 1
 454              		.loc 1 107 21 is_stmt 0 discriminator 1
 455 02c4 13850400 		mv	a0,s1
 456 02c8 97000000 		call	_Z12printIntegerm@plt
 456      E7800000 
 457              	.LVL55:
 108:src/workers.cpp ****         printString("\n");
 458              		.loc 1 108 9 is_stmt 1 discriminator 1
 459              		.loc 1 108 20 is_stmt 0 discriminator 1
 460 02d0 17050000 		lla	a0,.LC1
 460      13050500 
 461 02d8 97000000 		call	_Z11printStringPKc@plt
 461      E7800000 
 462              	.LVL56:
 104:src/workers.cpp ****     {
 463              		.loc 1 104 5 is_stmt 1 discriminator 1
 464 02e0 9B841400 		addiw	s1,s1,1
 465              	.LVL57:
 466 02e4 93F4F40F 		andi	s1,s1,0xff
 467              	.LVL58:
 468              	.L29:
 104:src/workers.cpp ****     {
 469              		.loc 1 104 5 discriminator 2
 104:src/workers.cpp ****     {
 470              		.loc 1 104 14 discriminator 2
 471 02e8 93075000 		li	a5,5
 472 02ec E3F497FC 		bleu	s1,a5,.L32
 109:src/workers.cpp ****     }
 110:src/workers.cpp **** //    _thread::yield();
 111:src/workers.cpp **** }
 473              		.loc 1 111 1 is_stmt 0
 474 02f0 83308101 		ld	ra,24(sp)
 475              		.cfi_restore 1
 476 02f4 03340101 		ld	s0,16(sp)
GAS LISTING /tmp/ccCRWoGH.s 			page 13


 477              		.cfi_restore 8
 478              		.cfi_def_cfa 2, 32
 479 02f8 83348100 		ld	s1,8(sp)
 480              		.cfi_restore 9
 481              	.LVL59:
 482 02fc 03390100 		ld	s2,0(sp)
 483              		.cfi_restore 18
 484              	.LVL60:
 485 0300 13010102 		addi	sp,sp,32
 486              		.cfi_def_cfa_offset 0
 487 0304 67800000 		jr	ra
 488              		.cfi_endproc
 489              	.LFE52:
 491              		.section	.rodata.str1.8
 492 0045 000000   		.align	3
 493              	.LC7:
 494 0048 443A2069 		.string	"D: i="
 494      3D00
 495 004e 0000     		.align	3
 496              	.LC8:
 497 0050 443A2079 		.string	"D: yield\n"
 497      69656C64 
 497      0A00
 498 005a 00000000 		.align	3
 498      0000
 499              	.LC9:
 500 0060 443A2066 		.string	"D: fibonaci="
 500      69626F6E 
 500      6163693D 
 500      00
 501              		.text
 502              		.align	2
 503              		.globl	_Z11workerBodyDv
 505              	_Z11workerBodyDv:
 506              	.LFB53:
 112:src/workers.cpp **** 
 113:src/workers.cpp **** void workerBodyD()
 114:src/workers.cpp **** {
 507              		.loc 1 114 1 is_stmt 1
 508              		.cfi_startproc
 509 0308 130101FE 		addi	sp,sp,-32
 510              		.cfi_def_cfa_offset 32
 511 030c 233C1100 		sd	ra,24(sp)
 512 0310 23388100 		sd	s0,16(sp)
 513 0314 23349100 		sd	s1,8(sp)
 514 0318 23302101 		sd	s2,0(sp)
 515              		.cfi_offset 1, -8
 516              		.cfi_offset 8, -16
 517              		.cfi_offset 9, -24
 518              		.cfi_offset 18, -32
 519 031c 13040102 		addi	s0,sp,32
 520              		.cfi_def_cfa 8, 0
 115:src/workers.cpp ****     uint8 i = 10;
 521              		.loc 1 115 5
 522              	.LVL61:
 523              		.loc 1 115 11 is_stmt 0
 524 0320 9304A000 		li	s1,10
GAS LISTING /tmp/ccCRWoGH.s 			page 14


 525 0324 6F008003 		j	.L35
 526              	.LVL62:
 527              	.L39:
 116:src/workers.cpp ****     for (; i < 13; i++)
 117:src/workers.cpp ****     {
 118:src/workers.cpp ****         printString("D: i=");
 528              		.loc 1 118 9 is_stmt 1 discriminator 1
 529              		.loc 1 118 20 is_stmt 0 discriminator 1
 530 0328 17050000 		lla	a0,.LC7
 530      13050500 
 531 0330 97000000 		call	_Z11printStringPKc@plt
 531      E7800000 
 532              	.LVL63:
 119:src/workers.cpp ****         printInteger(i);
 533              		.loc 1 119 9 is_stmt 1 discriminator 1
 534              		.loc 1 119 21 is_stmt 0 discriminator 1
 535 0338 13850400 		mv	a0,s1
 536 033c 97000000 		call	_Z12printIntegerm@plt
 536      E7800000 
 537              	.LVL64:
 120:src/workers.cpp ****         printString("\n");
 538              		.loc 1 120 9 is_stmt 1 discriminator 1
 539              		.loc 1 120 20 is_stmt 0 discriminator 1
 540 0344 17050000 		lla	a0,.LC1
 540      13050500 
 541 034c 97000000 		call	_Z11printStringPKc@plt
 541      E7800000 
 542              	.LVL65:
 116:src/workers.cpp ****     for (; i < 13; i++)
 543              		.loc 1 116 5 is_stmt 1 discriminator 1
 544 0354 9B841400 		addiw	s1,s1,1
 545              	.LVL66:
 546 0358 93F4F40F 		andi	s1,s1,0xff
 547              	.LVL67:
 548              	.L35:
 116:src/workers.cpp ****     for (; i < 13; i++)
 549              		.loc 1 116 5 discriminator 2
 116:src/workers.cpp ****     for (; i < 13; i++)
 550              		.loc 1 116 14 discriminator 2
 551 035c 9307C000 		li	a5,12
 552 0360 E3F497FC 		bleu	s1,a5,.L39
 121:src/workers.cpp ****     }
 122:src/workers.cpp **** 
 123:src/workers.cpp ****     printString("D: yield\n");
 553              		.loc 1 123 5
 554              		.loc 1 123 16 is_stmt 0
 555 0364 17050000 		lla	a0,.LC8
 555      13050500 
 556 036c 97000000 		call	_Z11printStringPKc@plt
 556      E7800000 
 557              	.LVL68:
 124:src/workers.cpp ****     __asm__ ("li t1, 5");
 558              		.loc 1 124 5 is_stmt 1
 559              		.loc 1 124 25 is_stmt 0
 560              	#APP
 561              	# 124 "src/workers.cpp" 1
 125              	    _thread::yield();
GAS LISTING /tmp/ccCRWoGH.s 			page 15


 562              		li t1, 5
 563              	# 0 "" 2
 564              		.loc 1 125 5 is_stmt 1
 565              		.loc 1 125 19 is_stmt 0
 566              	#NO_APP
 567 0378 97000000 		call	_ZN7_thread5yieldEv@plt
 567      E7800000 
 568              	.LVL69:
 126:src/workers.cpp **** 
 127:src/workers.cpp ****     uint64 result = fibonacci(16);
 569              		.loc 1 127 5 is_stmt 1
 570              		.loc 1 127 30 is_stmt 0
 571 0380 13050001 		li	a0,16
 572 0384 97000000 		call	_ZL9fibonaccim
 572      E7800000 
 573              	.LVL70:
 574 038c 13090500 		mv	s2,a0
 575              	.LVL71:
 128:src/workers.cpp ****     printString("D: fibonaci=");
 576              		.loc 1 128 5 is_stmt 1
 577              		.loc 1 128 16 is_stmt 0
 578 0390 17050000 		lla	a0,.LC9
 578      13050500 
 579              	.LVL72:
 580 0398 97000000 		call	_Z11printStringPKc@plt
 580      E7800000 
 581              	.LVL73:
 129:src/workers.cpp ****     printInteger(result);
 582              		.loc 1 129 5 is_stmt 1
 583              		.loc 1 129 17 is_stmt 0
 584 03a0 13050900 		mv	a0,s2
 585 03a4 97000000 		call	_Z12printIntegerm@plt
 585      E7800000 
 586              	.LVL74:
 130:src/workers.cpp ****     printString("\n");
 587              		.loc 1 130 5 is_stmt 1
 588              		.loc 1 130 16 is_stmt 0
 589 03ac 17050000 		lla	a0,.LC1
 589      13050500 
 590 03b4 97000000 		call	_Z11printStringPKc@plt
 590      E7800000 
 591              	.LVL75:
 592 03bc 6F008003 		j	.L37
 593              	.L40:
 131:src/workers.cpp **** 
 132:src/workers.cpp ****     for (; i < 16; i++)
 133:src/workers.cpp ****     {
 134:src/workers.cpp ****         printString("D: i=");
 594              		.loc 1 134 9 is_stmt 1 discriminator 1
 595              		.loc 1 134 20 is_stmt 0 discriminator 1
 596 03c0 17050000 		lla	a0,.LC7
 596      13050500 
 597 03c8 97000000 		call	_Z11printStringPKc@plt
 597      E7800000 
 598              	.LVL76:
 135:src/workers.cpp ****         printInteger(i);
 599              		.loc 1 135 9 is_stmt 1 discriminator 1
GAS LISTING /tmp/ccCRWoGH.s 			page 16


 600              		.loc 1 135 21 is_stmt 0 discriminator 1
 601 03d0 13850400 		mv	a0,s1
 602 03d4 97000000 		call	_Z12printIntegerm@plt
 602      E7800000 
 603              	.LVL77:
 136:src/workers.cpp ****         printString("\n");
 604              		.loc 1 136 9 is_stmt 1 discriminator 1
 605              		.loc 1 136 20 is_stmt 0 discriminator 1
 606 03dc 17050000 		lla	a0,.LC1
 606      13050500 
 607 03e4 97000000 		call	_Z11printStringPKc@plt
 607      E7800000 
 608              	.LVL78:
 132:src/workers.cpp ****     {
 609              		.loc 1 132 5 is_stmt 1 discriminator 1
 610 03ec 9B841400 		addiw	s1,s1,1
 611              	.LVL79:
 612 03f0 93F4F40F 		andi	s1,s1,0xff
 613              	.LVL80:
 614              	.L37:
 132:src/workers.cpp ****     {
 615              		.loc 1 132 5 discriminator 2
 132:src/workers.cpp ****     {
 616              		.loc 1 132 14 discriminator 2
 617 03f4 9307F000 		li	a5,15
 618 03f8 E3F497FC 		bleu	s1,a5,.L40
 137:src/workers.cpp ****     }
 138:src/workers.cpp **** //    _thread::yield();
 139:src/workers.cpp **** }...
 619              		.loc 1 139 1 is_stmt 0
 620 03fc 83308101 		ld	ra,24(sp)
 621              		.cfi_restore 1
 622 0400 03340101 		ld	s0,16(sp)
 623              		.cfi_restore 8
 624              		.cfi_def_cfa 2, 32
 625 0404 83348100 		ld	s1,8(sp)
 626              		.cfi_restore 9
 627              	.LVL81:
 628 0408 03390100 		ld	s2,0(sp)
 629              		.cfi_restore 18
 630              	.LVL82:
 631 040c 13010102 		addi	sp,sp,32
 632              		.cfi_def_cfa_offset 0
 633 0410 67800000 		jr	ra
 634              		.cfi_endproc
 635              	.LFE53:
 637              	.Letext0:
 638              		.file 2 "src/../lib/hw.h"
 639              		.file 3 "src/../h/syscall_c.h"
 640              		.file 4 "src/../h/tcb.hpp"
 641              		.file 5 "src/../h/_sem.hpp"
 642              		.file 6 "src/../h/list.hpp"
 643              		.file 7 "src/../h/../h/print.hpp"
GAS LISTING /tmp/ccCRWoGH.s 			page 17


DEFINED SYMBOLS
                            *ABS*:0000000000000000 workers.cpp
     /tmp/ccCRWoGH.s:8      .text:0000000000000000 _ZL9fibonaccim
     /tmp/ccCRWoGH.s:12     .text:0000000000000000 .L0 
     /tmp/ccCRWoGH.s:14     .text:0000000000000000 .L0 
     /tmp/ccCRWoGH.s:15     .text:0000000000000004 .L0 
     /tmp/ccCRWoGH.s:20     .text:0000000000000014 .L0 
     /tmp/ccCRWoGH.s:21     .text:0000000000000014 .L0 
     /tmp/ccCRWoGH.s:22     .text:0000000000000014 .L0 
     /tmp/ccCRWoGH.s:23     .text:0000000000000014 .L0 
     /tmp/ccCRWoGH.s:25     .text:0000000000000018 .L0 
     /tmp/ccCRWoGH.s:28     .text:000000000000001c .L0 
     /tmp/ccCRWoGH.s:31     .text:0000000000000024 .L0 
     /tmp/ccCRWoGH.s:32     .text:0000000000000024 .L0 
     /tmp/ccCRWoGH.s:35     .text:000000000000002c .L0 
     /tmp/ccCRWoGH.s:39     .text:0000000000000030 .L0 
     /tmp/ccCRWoGH.s:40     .text:0000000000000030 .L0 
     /tmp/ccCRWoGH.s:45     .text:0000000000000040 .L0 
     /tmp/ccCRWoGH.s:49     .text:000000000000004c .L0 
     /tmp/ccCRWoGH.s:52     .text:0000000000000050 .L0 
     /tmp/ccCRWoGH.s:53     .text:0000000000000054 .L0 
     /tmp/ccCRWoGH.s:54     .text:0000000000000054 .L0 
     /tmp/ccCRWoGH.s:56     .text:0000000000000058 .L0 
     /tmp/ccCRWoGH.s:57     .text:0000000000000058 .L0 
     /tmp/ccCRWoGH.s:59     .text:000000000000005c .L0 
     /tmp/ccCRWoGH.s:62     .text:0000000000000060 .L0 
     /tmp/ccCRWoGH.s:64     .text:0000000000000064 .L0 
     /tmp/ccCRWoGH.s:68     .text:0000000000000068 .L0 
     /tmp/ccCRWoGH.s:70     .text:0000000000000068 .L0 
     /tmp/ccCRWoGH.s:71     .text:0000000000000068 .L0 
     /tmp/ccCRWoGH.s:74     .text:0000000000000074 .L0 
     /tmp/ccCRWoGH.s:88     .text:0000000000000074 _Z11workerBodyAv
     /tmp/ccCRWoGH.s:91     .text:0000000000000074 .L0 
     /tmp/ccCRWoGH.s:92     .text:0000000000000074 .L0 
     /tmp/ccCRWoGH.s:93     .text:0000000000000078 .L0 
     /tmp/ccCRWoGH.s:97     .text:0000000000000084 .L0 
     /tmp/ccCRWoGH.s:98     .text:0000000000000084 .L0 
     /tmp/ccCRWoGH.s:99     .text:0000000000000084 .L0 
     /tmp/ccCRWoGH.s:101    .text:0000000000000088 .L0 
     /tmp/ccCRWoGH.s:105    .text:0000000000000088 .L0 
     /tmp/ccCRWoGH.s:106    .text:0000000000000088 .L0 
     /tmp/ccCRWoGH.s:114    .text:0000000000000090 .L0 
     /tmp/ccCRWoGH.s:115    .text:0000000000000090 .L0 
     /tmp/ccCRWoGH.s:119    .text:000000000000009c .L0 
     /tmp/ccCRWoGH.s:120    .text:000000000000009c .L0 
     /tmp/ccCRWoGH.s:123    .text:00000000000000a4 .L0 
     /tmp/ccCRWoGH.s:124    .text:00000000000000a4 .L0 
     /tmp/ccCRWoGH.s:133    .text:00000000000000b0 .L0 
     /tmp/ccCRWoGH.s:137    .text:00000000000000b4 .L0 
     /tmp/ccCRWoGH.s:142    .text:00000000000000c0 .L0 
     /tmp/ccCRWoGH.s:146    .text:00000000000000c4 .L0 
     /tmp/ccCRWoGH.s:150    .text:00000000000000d0 .L0 
     /tmp/ccCRWoGH.s:159    .text:00000000000000d8 .L0 
     /tmp/ccCRWoGH.s:163    .text:00000000000000dc .L0 
     /tmp/ccCRWoGH.s:168    .text:00000000000000e4 .L0 
     /tmp/ccCRWoGH.s:173    .text:00000000000000ec .L0 
     /tmp/ccCRWoGH.s:174    .text:00000000000000ec .L0 
GAS LISTING /tmp/ccCRWoGH.s 			page 18


     /tmp/ccCRWoGH.s:178    .text:00000000000000fc .L0 
     /tmp/ccCRWoGH.s:179    .text:00000000000000fc .L0 
     /tmp/ccCRWoGH.s:183    .text:0000000000000108 .L0 
     /tmp/ccCRWoGH.s:184    .text:0000000000000108 .L0 
     /tmp/ccCRWoGH.s:189    .text:0000000000000118 .L0 
     /tmp/ccCRWoGH.s:190    .text:0000000000000118 .L0 
     /tmp/ccCRWoGH.s:198    .text:0000000000000120 .L0 
     /tmp/ccCRWoGH.s:199    .text:0000000000000124 .L0 
     /tmp/ccCRWoGH.s:201    .text:0000000000000128 .L0 
     /tmp/ccCRWoGH.s:202    .text:0000000000000128 .L0 
     /tmp/ccCRWoGH.s:204    .text:000000000000012c .L0 
     /tmp/ccCRWoGH.s:207    .text:0000000000000130 .L0 
     /tmp/ccCRWoGH.s:209    .text:0000000000000134 .L0 
     /tmp/ccCRWoGH.s:220    .text:0000000000000134 _Z11workerBodyBv
     /tmp/ccCRWoGH.s:223    .text:0000000000000134 .L0 
     /tmp/ccCRWoGH.s:224    .text:0000000000000134 .L0 
     /tmp/ccCRWoGH.s:225    .text:0000000000000138 .L0 
     /tmp/ccCRWoGH.s:229    .text:0000000000000144 .L0 
     /tmp/ccCRWoGH.s:230    .text:0000000000000144 .L0 
     /tmp/ccCRWoGH.s:231    .text:0000000000000144 .L0 
     /tmp/ccCRWoGH.s:233    .text:0000000000000148 .L0 
     /tmp/ccCRWoGH.s:237    .text:0000000000000148 .L0 
     /tmp/ccCRWoGH.s:238    .text:0000000000000148 .L0 
     /tmp/ccCRWoGH.s:245    .text:0000000000000150 .L0 
     /tmp/ccCRWoGH.s:249    .text:0000000000000154 .L0 
     /tmp/ccCRWoGH.s:254    .text:0000000000000160 .L0 
     /tmp/ccCRWoGH.s:258    .text:0000000000000164 .L0 
     /tmp/ccCRWoGH.s:262    .text:0000000000000170 .L0 
     /tmp/ccCRWoGH.s:271    .text:0000000000000178 .L0 
     /tmp/ccCRWoGH.s:275    .text:000000000000017c .L0 
     /tmp/ccCRWoGH.s:279    .text:0000000000000184 .L0 
     /tmp/ccCRWoGH.s:280    .text:0000000000000184 .L0 
     /tmp/ccCRWoGH.s:284    .text:0000000000000194 .L0 
     /tmp/ccCRWoGH.s:285    .text:0000000000000194 .L0 
     /tmp/ccCRWoGH.s:289    .text:00000000000001a0 .L0 
     /tmp/ccCRWoGH.s:290    .text:00000000000001a0 .L0 
     /tmp/ccCRWoGH.s:295    .text:00000000000001b0 .L0 
     /tmp/ccCRWoGH.s:296    .text:00000000000001b0 .L0 
     /tmp/ccCRWoGH.s:304    .text:00000000000001b8 .L0 
     /tmp/ccCRWoGH.s:305    .text:00000000000001bc .L0 
     /tmp/ccCRWoGH.s:307    .text:00000000000001c0 .L0 
     /tmp/ccCRWoGH.s:308    .text:00000000000001c0 .L0 
     /tmp/ccCRWoGH.s:310    .text:00000000000001c4 .L0 
     /tmp/ccCRWoGH.s:313    .text:00000000000001c8 .L0 
     /tmp/ccCRWoGH.s:315    .text:00000000000001cc .L0 
     /tmp/ccCRWoGH.s:335    .text:00000000000001cc _Z11workerBodyCv
     /tmp/ccCRWoGH.s:338    .text:00000000000001cc .L0 
     /tmp/ccCRWoGH.s:339    .text:00000000000001cc .L0 
     /tmp/ccCRWoGH.s:340    .text:00000000000001d0 .L0 
     /tmp/ccCRWoGH.s:345    .text:00000000000001e0 .L0 
     /tmp/ccCRWoGH.s:346    .text:00000000000001e0 .L0 
     /tmp/ccCRWoGH.s:347    .text:00000000000001e0 .L0 
     /tmp/ccCRWoGH.s:348    .text:00000000000001e0 .L0 
     /tmp/ccCRWoGH.s:350    .text:00000000000001e4 .L0 
     /tmp/ccCRWoGH.s:353    .text:00000000000001e4 .L0 
     /tmp/ccCRWoGH.s:354    .text:00000000000001e4 .L0 
     /tmp/ccCRWoGH.s:359    .text:00000000000001ec .L0 
GAS LISTING /tmp/ccCRWoGH.s 			page 19


     /tmp/ccCRWoGH.s:360    .text:00000000000001ec .L0 
     /tmp/ccCRWoGH.s:364    .text:00000000000001fc .L0 
     /tmp/ccCRWoGH.s:365    .text:00000000000001fc .L0 
     /tmp/ccCRWoGH.s:369    .text:0000000000000208 .L0 
     /tmp/ccCRWoGH.s:370    .text:0000000000000208 .L0 
     /tmp/ccCRWoGH.s:374    .text:0000000000000218 .L0 
     /tmp/ccCRWoGH.s:380    .text:0000000000000220 .L0 
     /tmp/ccCRWoGH.s:381    .text:0000000000000220 .L0 
     /tmp/ccCRWoGH.s:384    .text:0000000000000228 .L0 
     /tmp/ccCRWoGH.s:385    .text:0000000000000228 .L0 
     /tmp/ccCRWoGH.s:389    .text:0000000000000238 .L0 
     src/workers.cpp:89     .text:0000000000000238 .L0 
     /tmp/ccCRWoGH.s:395    .text:000000000000023c .L0 
     /tmp/ccCRWoGH.s:397    .text:000000000000023c .L0 
     /tmp/ccCRWoGH.s:400    .text:0000000000000244 .L0 
     /tmp/ccCRWoGH.s:401    .text:0000000000000244 .L0 
     src/workers.cpp:93     .text:0000000000000244 .L0 
     /tmp/ccCRWoGH.s:408    .text:0000000000000248 .L0 
     /tmp/ccCRWoGH.s:410    .text:0000000000000248 .L0 
     /tmp/ccCRWoGH.s:414    .text:0000000000000258 .L0 
     /tmp/ccCRWoGH.s:415    .text:0000000000000258 .L0 
     /tmp/ccCRWoGH.s:419    .text:0000000000000264 .L0 
     /tmp/ccCRWoGH.s:420    .text:0000000000000264 .L0 
     /tmp/ccCRWoGH.s:424    .text:0000000000000274 .L0 
     /tmp/ccCRWoGH.s:425    .text:0000000000000274 .L0 
     /tmp/ccCRWoGH.s:431    .text:0000000000000284 .L0 
     /tmp/ccCRWoGH.s:432    .text:0000000000000284 .L0 
     /tmp/ccCRWoGH.s:437    .text:0000000000000294 .L0 
     /tmp/ccCRWoGH.s:438    .text:0000000000000294 .L0 
     /tmp/ccCRWoGH.s:442    .text:00000000000002a0 .L0 
     /tmp/ccCRWoGH.s:443    .text:00000000000002a0 .L0 
     /tmp/ccCRWoGH.s:449    .text:00000000000002b4 .L0 
     /tmp/ccCRWoGH.s:450    .text:00000000000002b4 .L0 
     /tmp/ccCRWoGH.s:454    .text:00000000000002c4 .L0 
     /tmp/ccCRWoGH.s:455    .text:00000000000002c4 .L0 
     /tmp/ccCRWoGH.s:459    .text:00000000000002d0 .L0 
     /tmp/ccCRWoGH.s:460    .text:00000000000002d0 .L0 
     /tmp/ccCRWoGH.s:464    .text:00000000000002e0 .L0 
     /tmp/ccCRWoGH.s:470    .text:00000000000002e8 .L0 
     /tmp/ccCRWoGH.s:471    .text:00000000000002e8 .L0 
     /tmp/ccCRWoGH.s:474    .text:00000000000002f0 .L0 
     /tmp/ccCRWoGH.s:475    .text:00000000000002f4 .L0 
     /tmp/ccCRWoGH.s:477    .text:00000000000002f8 .L0 
     /tmp/ccCRWoGH.s:478    .text:00000000000002f8 .L0 
     /tmp/ccCRWoGH.s:480    .text:00000000000002fc .L0 
     /tmp/ccCRWoGH.s:483    .text:0000000000000300 .L0 
     /tmp/ccCRWoGH.s:486    .text:0000000000000304 .L0 
     /tmp/ccCRWoGH.s:488    .text:0000000000000308 .L0 
     /tmp/ccCRWoGH.s:505    .text:0000000000000308 _Z11workerBodyDv
     /tmp/ccCRWoGH.s:508    .text:0000000000000308 .L0 
     /tmp/ccCRWoGH.s:509    .text:0000000000000308 .L0 
     /tmp/ccCRWoGH.s:510    .text:000000000000030c .L0 
     /tmp/ccCRWoGH.s:515    .text:000000000000031c .L0 
     /tmp/ccCRWoGH.s:516    .text:000000000000031c .L0 
     /tmp/ccCRWoGH.s:517    .text:000000000000031c .L0 
     /tmp/ccCRWoGH.s:518    .text:000000000000031c .L0 
     /tmp/ccCRWoGH.s:520    .text:0000000000000320 .L0 
GAS LISTING /tmp/ccCRWoGH.s 			page 20


     /tmp/ccCRWoGH.s:523    .text:0000000000000320 .L0 
     /tmp/ccCRWoGH.s:524    .text:0000000000000320 .L0 
     /tmp/ccCRWoGH.s:529    .text:0000000000000328 .L0 
     /tmp/ccCRWoGH.s:530    .text:0000000000000328 .L0 
     /tmp/ccCRWoGH.s:534    .text:0000000000000338 .L0 
     /tmp/ccCRWoGH.s:535    .text:0000000000000338 .L0 
     /tmp/ccCRWoGH.s:539    .text:0000000000000344 .L0 
     /tmp/ccCRWoGH.s:540    .text:0000000000000344 .L0 
     /tmp/ccCRWoGH.s:544    .text:0000000000000354 .L0 
     /tmp/ccCRWoGH.s:550    .text:000000000000035c .L0 
     /tmp/ccCRWoGH.s:551    .text:000000000000035c .L0 
     /tmp/ccCRWoGH.s:554    .text:0000000000000364 .L0 
     /tmp/ccCRWoGH.s:555    .text:0000000000000364 .L0 
     /tmp/ccCRWoGH.s:559    .text:0000000000000374 .L0 
     src/workers.cpp:124    .text:0000000000000374 .L0 
     /tmp/ccCRWoGH.s:565    .text:0000000000000378 .L0 
     /tmp/ccCRWoGH.s:567    .text:0000000000000378 .L0 
     /tmp/ccCRWoGH.s:570    .text:0000000000000380 .L0 
     /tmp/ccCRWoGH.s:571    .text:0000000000000380 .L0 
     /tmp/ccCRWoGH.s:577    .text:0000000000000390 .L0 
     /tmp/ccCRWoGH.s:578    .text:0000000000000390 .L0 
     /tmp/ccCRWoGH.s:583    .text:00000000000003a0 .L0 
     /tmp/ccCRWoGH.s:584    .text:00000000000003a0 .L0 
     /tmp/ccCRWoGH.s:588    .text:00000000000003ac .L0 
     /tmp/ccCRWoGH.s:589    .text:00000000000003ac .L0 
     /tmp/ccCRWoGH.s:595    .text:00000000000003c0 .L0 
     /tmp/ccCRWoGH.s:596    .text:00000000000003c0 .L0 
     /tmp/ccCRWoGH.s:600    .text:00000000000003d0 .L0 
     /tmp/ccCRWoGH.s:601    .text:00000000000003d0 .L0 
     /tmp/ccCRWoGH.s:605    .text:00000000000003dc .L0 
     /tmp/ccCRWoGH.s:606    .text:00000000000003dc .L0 
     /tmp/ccCRWoGH.s:610    .text:00000000000003ec .L0 
     /tmp/ccCRWoGH.s:616    .text:00000000000003f4 .L0 
     /tmp/ccCRWoGH.s:617    .text:00000000000003f4 .L0 
     /tmp/ccCRWoGH.s:620    .text:00000000000003fc .L0 
     /tmp/ccCRWoGH.s:621    .text:0000000000000400 .L0 
     /tmp/ccCRWoGH.s:623    .text:0000000000000404 .L0 
     /tmp/ccCRWoGH.s:624    .text:0000000000000404 .L0 
     /tmp/ccCRWoGH.s:626    .text:0000000000000408 .L0 
     /tmp/ccCRWoGH.s:629    .text:000000000000040c .L0 
     /tmp/ccCRWoGH.s:632    .text:0000000000000410 .L0 
     /tmp/ccCRWoGH.s:634    .text:0000000000000414 .L0 
     /tmp/ccCRWoGH.s:644    .text:0000000000000414 .L0 
     /tmp/ccCRWoGH.s:79     .rodata.str1.8:0000000000000000 .LC0
     /tmp/ccCRWoGH.s:174    .text:00000000000000ec .L0 
     /tmp/ccCRWoGH.s:82     .rodata.str1.8:0000000000000008 .LC1
     /tmp/ccCRWoGH.s:184    .text:0000000000000108 .L0 
     /tmp/ccCRWoGH.s:214    .rodata.str1.8:0000000000000010 .LC2
     /tmp/ccCRWoGH.s:280    .text:0000000000000184 .L0 
     /tmp/ccCRWoGH.s:290    .text:00000000000001a0 .L0 
     /tmp/ccCRWoGH.s:320    .rodata.str1.8:0000000000000018 .LC3
     /tmp/ccCRWoGH.s:360    .text:00000000000001ec .L0 
     /tmp/ccCRWoGH.s:370    .text:0000000000000208 .L0 
     /tmp/ccCRWoGH.s:323    .rodata.str1.8:0000000000000020 .LC4
     /tmp/ccCRWoGH.s:385    .text:0000000000000228 .L0 
     /tmp/ccCRWoGH.s:326    .rodata.str1.8:0000000000000030 .LC5
     /tmp/ccCRWoGH.s:410    .text:0000000000000248 .L0 
GAS LISTING /tmp/ccCRWoGH.s 			page 21


     /tmp/ccCRWoGH.s:420    .text:0000000000000264 .L0 
     /tmp/ccCRWoGH.s:329    .rodata.str1.8:0000000000000038 .LC6
     /tmp/ccCRWoGH.s:432    .text:0000000000000284 .L0 
     /tmp/ccCRWoGH.s:443    .text:00000000000002a0 .L0 
     /tmp/ccCRWoGH.s:450    .text:00000000000002b4 .L0 
     /tmp/ccCRWoGH.s:460    .text:00000000000002d0 .L0 
     /tmp/ccCRWoGH.s:493    .rodata.str1.8:0000000000000048 .LC7
     /tmp/ccCRWoGH.s:530    .text:0000000000000328 .L0 
     /tmp/ccCRWoGH.s:540    .text:0000000000000344 .L0 
     /tmp/ccCRWoGH.s:496    .rodata.str1.8:0000000000000050 .LC8
     /tmp/ccCRWoGH.s:555    .text:0000000000000364 .L0 
     /tmp/ccCRWoGH.s:499    .rodata.str1.8:0000000000000060 .LC9
     /tmp/ccCRWoGH.s:578    .text:0000000000000390 .L0 
     /tmp/ccCRWoGH.s:589    .text:00000000000003ac .L0 
     /tmp/ccCRWoGH.s:596    .text:00000000000003c0 .L0 
     /tmp/ccCRWoGH.s:606    .text:00000000000003dc .L0 
     /tmp/ccCRWoGH.s:50     .text:0000000000000050 .L1
     /tmp/ccCRWoGH.s:67     .text:0000000000000068 .L6
     /tmp/ccCRWoGH.s:37     .text:0000000000000030 .L3
     /tmp/ccCRWoGH.s:161    .text:00000000000000dc .L14
     /tmp/ccCRWoGH.s:170    .text:00000000000000ec .L9
     /tmp/ccCRWoGH.s:154    .text:00000000000000d8 .L10
     /tmp/ccCRWoGH.s:129    .text:00000000000000b0 .L11
     /tmp/ccCRWoGH.s:143    .text:00000000000000c4 .L12
     /tmp/ccCRWoGH.s:193    .text:0000000000000120 .L7
     /tmp/ccCRWoGH.s:109    .text:0000000000000090 .L16
     /tmp/ccCRWoGH.s:135    .text:00000000000000b4 .L13
     /tmp/ccCRWoGH.s:273    .text:000000000000017c .L23
     /tmp/ccCRWoGH.s:266    .text:0000000000000178 .L19
     /tmp/ccCRWoGH.s:241    .text:0000000000000150 .L20
     /tmp/ccCRWoGH.s:255    .text:0000000000000164 .L21
     /tmp/ccCRWoGH.s:299    .text:00000000000001b8 .L17
     /tmp/ccCRWoGH.s:247    .text:0000000000000154 .L22
     /tmp/ccCRWoGH.s:378    .text:0000000000000220 .L27
     /tmp/ccCRWoGH.s:357    .text:00000000000001ec .L31
     /tmp/ccCRWoGH.s:468    .text:00000000000002e8 .L29
     /tmp/ccCRWoGH.s:447    .text:00000000000002b4 .L32
     /tmp/ccCRWoGH.s:548    .text:000000000000035c .L35
     /tmp/ccCRWoGH.s:527    .text:0000000000000328 .L39
     /tmp/ccCRWoGH.s:614    .text:00000000000003f4 .L37
     /tmp/ccCRWoGH.s:593    .text:00000000000003c0 .L40
     /tmp/ccCRWoGH.s:2111   .debug_abbrev:0000000000000000 .Ldebug_abbrev0
     /tmp/ccCRWoGH.s:3362   .debug_str:00000000000006d1 .LASF126
     /tmp/ccCRWoGH.s:3294   .debug_str:00000000000004fd .LASF127
     /tmp/ccCRWoGH.s:3204   .debug_str:0000000000000231 .LASF128
     /tmp/ccCRWoGH.s:5      .text:0000000000000000 .Ltext0
     /tmp/ccCRWoGH.s:637    .text:0000000000000414 .Letext0
     /tmp/ccCRWoGH.s:3134   .debug_line:0000000000000000 .Ldebug_line0
     /tmp/ccCRWoGH.s:3218   .debug_str:00000000000002b5 .LASF0
     /tmp/ccCRWoGH.s:3238   .debug_str:000000000000036f .LASF1
     /tmp/ccCRWoGH.s:3310   .debug_str:000000000000059d .LASF2
     /tmp/ccCRWoGH.s:3188   .debug_str:000000000000019e .LASF3
     /tmp/ccCRWoGH.s:3316   .debug_str:00000000000005c0 .LASF4
     /tmp/ccCRWoGH.s:3222   .debug_str:00000000000002c7 .LASF5
     /tmp/ccCRWoGH.s:3140   .debug_str:0000000000000017 .LASF6
     /tmp/ccCRWoGH.s:3292   .debug_str:00000000000004f6 .LASF7
     /tmp/ccCRWoGH.s:3276   .debug_str:000000000000046f .LASF8
GAS LISTING /tmp/ccCRWoGH.s 			page 22


     /tmp/ccCRWoGH.s:3230   .debug_str:000000000000032a .LASF9
     /tmp/ccCRWoGH.s:3202   .debug_str:0000000000000221 .LASF10
     /tmp/ccCRWoGH.s:3206   .debug_str:000000000000024f .LASF11
     /tmp/ccCRWoGH.s:3158   .debug_str:00000000000000a3 .LASF12
     /tmp/ccCRWoGH.s:3194   .debug_str:00000000000001bb .LASF13
     /tmp/ccCRWoGH.s:3164   .debug_str:00000000000000e3 .LASF14
     /tmp/ccCRWoGH.s:3156   .debug_str:0000000000000093 .LASF15
     /tmp/ccCRWoGH.s:3336   .debug_str:000000000000064b .LASF16
     /tmp/ccCRWoGH.s:3184   .debug_str:000000000000017b .LASF17
     /tmp/ccCRWoGH.s:3326   .debug_str:00000000000005f6 .LASF18
     /tmp/ccCRWoGH.s:3388   .debug_str:0000000000000878 .LASF19
     /tmp/ccCRWoGH.s:3146   .debug_str:0000000000000047 .LASF43
     /tmp/ccCRWoGH.s:3348   .debug_str:0000000000000684 .LASF129
     /tmp/ccCRWoGH.s:3340   .debug_str:0000000000000660 .LASF20
     /tmp/ccCRWoGH.s:3234   .debug_str:0000000000000356 .LASF22
     /tmp/ccCRWoGH.s:3350   .debug_str:000000000000068c .LASF24
     /tmp/ccCRWoGH.s:3332   .debug_str:0000000000000623 .LASF26
     /tmp/ccCRWoGH.s:3148   .debug_str:000000000000004f .LASF21
     /tmp/ccCRWoGH.s:3382   .debug_str:000000000000083d .LASF23
     /tmp/ccCRWoGH.s:3242   .debug_str:0000000000000388 .LASF25
     /tmp/ccCRWoGH.s:3154   .debug_str:0000000000000076 .LASF27
     /tmp/ccCRWoGH.s:3378   .debug_str:0000000000000808 .LASF28
     /tmp/ccCRWoGH.s:3352   .debug_str:0000000000000697 .LASF29
     /tmp/ccCRWoGH.s:3302   .debug_str:000000000000053e .LASF30
     /tmp/ccCRWoGH.s:3180   .debug_str:0000000000000156 .LASF31
     /tmp/ccCRWoGH.s:3190   .debug_str:00000000000001a4 .LASF32
     /tmp/ccCRWoGH.s:3278   .debug_str:0000000000000482 .LASF33
     /tmp/ccCRWoGH.s:3334   .debug_str:000000000000063e .LASF34
     /tmp/ccCRWoGH.s:3178   .debug_str:0000000000000136 .LASF35
     /tmp/ccCRWoGH.s:3272   .debug_str:000000000000045e .LASF130
     /tmp/ccCRWoGH.s:3198   .debug_str:00000000000001eb .LASF36
     /tmp/ccCRWoGH.s:3240   .debug_str:0000000000000382 .LASF37
     /tmp/ccCRWoGH.s:3262   .debug_str:0000000000000408 .LASF39
     /tmp/ccCRWoGH.s:3360   .debug_str:00000000000006c9 .LASF131
     /tmp/ccCRWoGH.s:3296   .debug_str:000000000000050d .LASF38
     /tmp/ccCRWoGH.s:3208   .debug_str:000000000000025d .LASF40
     /tmp/ccCRWoGH.s:3174   .debug_str:0000000000000128 .LASF41
     /tmp/ccCRWoGH.s:3172   .debug_str:0000000000000111 .LASF42
     /tmp/ccCRWoGH.s:3214   .debug_str:000000000000029a .LASF44
     /tmp/ccCRWoGH.s:3404   .debug_str:00000000000008dc .LASF45
     /tmp/ccCRWoGH.s:3138   .debug_str:0000000000000012 .LASF46
     /tmp/ccCRWoGH.s:3408   .debug_str:00000000000008fd .LASF47
     /tmp/ccCRWoGH.s:3368   .debug_str:00000000000007b0 .LASF48
     /tmp/ccCRWoGH.s:3366   .debug_str:00000000000007a6 .LASF49
     /tmp/ccCRWoGH.s:3324   .debug_str:00000000000005ed .LASF50
     /tmp/ccCRWoGH.s:3376   .debug_str:0000000000000803 .LASF51
     /tmp/ccCRWoGH.s:3270   .debug_str:0000000000000456 .LASF52
     /tmp/ccCRWoGH.s:3346   .debug_str:000000000000067b .LASF53
     /tmp/ccCRWoGH.s:3252   .debug_str:00000000000003c9 .LASF54
     /tmp/ccCRWoGH.s:3150   .debug_str:000000000000005b .LASF132
     /tmp/ccCRWoGH.s:3304   .debug_str:000000000000054e .LASF133
     /tmp/ccCRWoGH.s:3170   .debug_str:0000000000000103 .LASF134
     /tmp/ccCRWoGH.s:3224   .debug_str:00000000000002d9 .LASF135
     /tmp/ccCRWoGH.s:3344   .debug_str:0000000000000670 .LASF55
     /tmp/ccCRWoGH.s:3394   .debug_str:0000000000000899 .LASF56
     /tmp/ccCRWoGH.s:3142   .debug_str:000000000000001e .LASF57
     /tmp/ccCRWoGH.s:3226   .debug_str:0000000000000305 .LASF58
GAS LISTING /tmp/ccCRWoGH.s 			page 23


     /tmp/ccCRWoGH.s:3318   .debug_str:00000000000005c7 .LASF136
     /tmp/ccCRWoGH.s:3314   .debug_str:00000000000005b5 .LASF59
     /tmp/ccCRWoGH.s:3398   .debug_str:00000000000008bf .LASF60
     /tmp/ccCRWoGH.s:3400   .debug_str:00000000000008ca .LASF61
     /tmp/ccCRWoGH.s:3354   .debug_str:00000000000006ae .LASF62
     /tmp/ccCRWoGH.s:3322   .debug_str:00000000000005e3 .LASF63
     /tmp/ccCRWoGH.s:3232   .debug_str:000000000000033d .LASF64
     /tmp/ccCRWoGH.s:3182   .debug_str:0000000000000175 .LASF65
     /tmp/ccCRWoGH.s:3200   .debug_str:0000000000000214 .LASF66
     /tmp/ccCRWoGH.s:3176   .debug_str:0000000000000131 .LASF67
     /tmp/ccCRWoGH.s:3258   .debug_str:00000000000003e2 .LASF68
     /tmp/ccCRWoGH.s:3342   .debug_str:0000000000000669 .LASF69
     /tmp/ccCRWoGH.s:3328   .debug_str:000000000000060c .LASF70
     /tmp/ccCRWoGH.s:3212   .debug_str:0000000000000294 .LASF71
     /tmp/ccCRWoGH.s:3364   .debug_str:0000000000000795 .LASF72
     /tmp/ccCRWoGH.s:3396   .debug_str:00000000000008b3 .LASF73
     /tmp/ccCRWoGH.s:3268   .debug_str:000000000000043e .LASF74
     /tmp/ccCRWoGH.s:3152   .debug_str:0000000000000069 .LASF75
     /tmp/ccCRWoGH.s:3216   .debug_str:00000000000002af .LASF76
     /tmp/ccCRWoGH.s:3192   .debug_str:00000000000001aa .LASF77
     /tmp/ccCRWoGH.s:3406   .debug_str:00000000000008f5 .LASF78
     /tmp/ccCRWoGH.s:3390   .debug_str:0000000000000881 .LASF79
     /tmp/ccCRWoGH.s:3308   .debug_str:000000000000058a .LASF80
     /tmp/ccCRWoGH.s:3414   .debug_str:000000000000092b .LASF81
     /tmp/ccCRWoGH.s:3168   .debug_str:00000000000000fe .LASF137
     /tmp/ccCRWoGH.s:3330   .debug_str:000000000000061e .LASF82
     /tmp/ccCRWoGH.s:3246   .debug_str:000000000000039d .LASF83
     /tmp/ccCRWoGH.s:3256   .debug_str:00000000000003dd .LASF84
     /tmp/ccCRWoGH.s:3384   .debug_str:0000000000000858 .LASF85
     /tmp/ccCRWoGH.s:3298   .debug_str:000000000000051a .LASF86
     /tmp/ccCRWoGH.s:3312   .debug_str:00000000000005ab .LASF138
     /tmp/ccCRWoGH.s:3210   .debug_str:0000000000000279 .LASF139
     /tmp/ccCRWoGH.s:3236   .debug_str:0000000000000366 .LASF87
     /tmp/ccCRWoGH.s:3410   .debug_str:0000000000000903 .LASF88
     /tmp/ccCRWoGH.s:3244   .debug_str:0000000000000395 .LASF89
     /tmp/ccCRWoGH.s:3280   .debug_str:0000000000000496 .LASF90
     /tmp/ccCRWoGH.s:3274   .debug_str:0000000000000463 .LASF91
     /tmp/ccCRWoGH.s:3250   .debug_str:00000000000003a7 .LASF92
     /tmp/ccCRWoGH.s:3416   .debug_str:0000000000000939 .LASF93
     /tmp/ccCRWoGH.s:3306   .debug_str:000000000000056b .LASF94
     /tmp/ccCRWoGH.s:3320   .debug_str:00000000000005d8 .LASF95
     /tmp/ccCRWoGH.s:3196   .debug_str:00000000000001ca .LASF96
     /tmp/ccCRWoGH.s:3300   .debug_str:0000000000000535 .LASF97
     /tmp/ccCRWoGH.s:3160   .debug_str:00000000000000b2 .LASF98
     /tmp/ccCRWoGH.s:3372   .debug_str:00000000000007e4 .LASF99
     /tmp/ccCRWoGH.s:3370   .debug_str:00000000000007b8 .LASF100
     /tmp/ccCRWoGH.s:3260   .debug_str:00000000000003f2 .LASF101
     /tmp/ccCRWoGH.s:3380   .debug_str:0000000000000811 .LASF102
     /tmp/ccCRWoGH.s:3374   .debug_str:00000000000007f6 .LASF103
     /tmp/ccCRWoGH.s:3144   .debug_str:0000000000000024 .LASF104
     /tmp/ccCRWoGH.s:3248   .debug_str:00000000000003a2 .LASF105
     /tmp/ccCRWoGH.s:3356   .debug_str:00000000000006b3 .LASF106
     /tmp/ccCRWoGH.s:3288   .debug_str:00000000000004da .LASF107
     /tmp/ccCRWoGH.s:3358   .debug_str:00000000000006b8 .LASF108
     /tmp/ccCRWoGH.s:506    .text:0000000000000308 .LFB53
     /tmp/ccCRWoGH.s:635    .text:0000000000000414 .LFE53
     /tmp/ccCRWoGH.s:2938   .debug_loc:0000000000000000 .LLST11
GAS LISTING /tmp/ccCRWoGH.s 			page 24


     /tmp/ccCRWoGH.s:3412   .debug_str:0000000000000924 .LASF109
     /tmp/ccCRWoGH.s:2958   .debug_loc:000000000000005d .LLST12
     /tmp/ccCRWoGH.s:532    .text:0000000000000338 .LVL63
     /tmp/ccCRWoGH.s:537    .text:0000000000000344 .LVL64
     /tmp/ccCRWoGH.s:542    .text:0000000000000354 .LVL65
     /tmp/ccCRWoGH.s:557    .text:0000000000000374 .LVL68
     /tmp/ccCRWoGH.s:568    .text:0000000000000380 .LVL69
     /tmp/ccCRWoGH.s:573    .text:000000000000038c .LVL70
     /tmp/ccCRWoGH.s:581    .text:00000000000003a0 .LVL73
     /tmp/ccCRWoGH.s:586    .text:00000000000003ac .LVL74
     /tmp/ccCRWoGH.s:591    .text:00000000000003bc .LVL75
     /tmp/ccCRWoGH.s:598    .text:00000000000003d0 .LVL76
     /tmp/ccCRWoGH.s:603    .text:00000000000003dc .LVL77
     /tmp/ccCRWoGH.s:608    .text:00000000000003ec .LVL78
     /tmp/ccCRWoGH.s:3286   .debug_str:00000000000004ce .LASF110
     /tmp/ccCRWoGH.s:3266   .debug_str:000000000000042d .LASF111
     /tmp/ccCRWoGH.s:336    .text:00000000000001cc .LFB52
     /tmp/ccCRWoGH.s:489    .text:0000000000000308 .LFE52
     /tmp/ccCRWoGH.s:2969   .debug_loc:0000000000000093 .LLST8
     /tmp/ccCRWoGH.s:2989   .debug_loc:00000000000000f0 .LLST9
     /tmp/ccCRWoGH.s:2997   .debug_loc:0000000000000114 .LLST10
     /tmp/ccCRWoGH.s:362    .text:00000000000001fc .LVL37
     /tmp/ccCRWoGH.s:367    .text:0000000000000208 .LVL38
     /tmp/ccCRWoGH.s:372    .text:0000000000000218 .LVL39
     /tmp/ccCRWoGH.s:387    .text:0000000000000238 .LVL42
     /tmp/ccCRWoGH.s:398    .text:0000000000000244 .LVL43
     /tmp/ccCRWoGH.s:412    .text:0000000000000258 .LVL45
     /tmp/ccCRWoGH.s:417    .text:0000000000000264 .LVL46
     /tmp/ccCRWoGH.s:422    .text:0000000000000274 .LVL47
     /tmp/ccCRWoGH.s:427    .text:0000000000000280 .LVL48
     /tmp/ccCRWoGH.s:435    .text:0000000000000294 .LVL51
     /tmp/ccCRWoGH.s:440    .text:00000000000002a0 .LVL52
     /tmp/ccCRWoGH.s:445    .text:00000000000002b0 .LVL53
     /tmp/ccCRWoGH.s:452    .text:00000000000002c4 .LVL54
     /tmp/ccCRWoGH.s:457    .text:00000000000002d0 .LVL55
     /tmp/ccCRWoGH.s:462    .text:00000000000002e0 .LVL56
     /tmp/ccCRWoGH.s:3254   .debug_str:00000000000003d3 .LASF140
     /tmp/ccCRWoGH.s:9      .text:0000000000000000 .LFB51
     /tmp/ccCRWoGH.s:75     .text:0000000000000074 .LFE51
     /tmp/ccCRWoGH.s:3008   .debug_loc:000000000000014a .LLST0
     /tmp/ccCRWoGH.s:42     .text:000000000000003c .LVL2
     /tmp/ccCRWoGH.s:47     .text:000000000000004c .LVL3
     /tmp/ccCRWoGH.s:72     .text:0000000000000070 .LVL6
     /tmp/ccCRWoGH.s:3284   .debug_str:00000000000004c2 .LASF112
     /tmp/ccCRWoGH.s:3264   .debug_str:000000000000041c .LASF113
     /tmp/ccCRWoGH.s:221    .text:0000000000000134 .LFB50
     /tmp/ccCRWoGH.s:316    .text:00000000000001cc .LFE50
     /tmp/ccCRWoGH.s:236    .text:0000000000000148 .LBB11
     /tmp/ccCRWoGH.s:302    .text:00000000000001b8 .LBE11
     /tmp/ccCRWoGH.s:3030   .debug_loc:00000000000001a9 .LLST5
     /tmp/ccCRWoGH.s:3120   .debug_ranges:0000000000000000 .Ldebug_ranges0
     /tmp/ccCRWoGH.s:3042   .debug_loc:00000000000001e0 .LLST6
     /tmp/ccCRWoGH.s:252    .text:0000000000000160 .LBB14
     /tmp/ccCRWoGH.s:267    .text:0000000000000178 .LBE14
     /tmp/ccCRWoGH.s:3054   .debug_loc:0000000000000217 .LLST7
     /tmp/ccCRWoGH.s:282    .text:0000000000000194 .LVL30
     /tmp/ccCRWoGH.s:287    .text:00000000000001a0 .LVL31
GAS LISTING /tmp/ccCRWoGH.s 			page 25


     /tmp/ccCRWoGH.s:292    .text:00000000000001b0 .LVL32
     /tmp/ccCRWoGH.s:3282   .debug_str:00000000000004b6 .LASF114
     /tmp/ccCRWoGH.s:3228   .debug_str:0000000000000319 .LASF115
     /tmp/ccCRWoGH.s:89     .text:0000000000000074 .LFB49
     /tmp/ccCRWoGH.s:210    .text:0000000000000134 .LFE49
     /tmp/ccCRWoGH.s:104    .text:0000000000000088 .LBB2
     /tmp/ccCRWoGH.s:196    .text:0000000000000120 .LBE2
     /tmp/ccCRWoGH.s:3065   .debug_loc:000000000000024d .LLST1
     /tmp/ccCRWoGH.s:112    .text:0000000000000090 .LBB5
     /tmp/ccCRWoGH.s:126    .text:00000000000000ac .LBE5
     /tmp/ccCRWoGH.s:3077   .debug_loc:0000000000000284 .LLST2
     /tmp/ccCRWoGH.s:117    .text:000000000000009c .LVL9
     /tmp/ccCRWoGH.s:121    .text:00000000000000a4 .LVL10
     /tmp/ccCRWoGH.s:125    .text:00000000000000ac .LVL11
     /tmp/ccCRWoGH.s:3084   .debug_loc:00000000000002a7 .LLST3
     /tmp/ccCRWoGH.s:140    .text:00000000000000c0 .LBB7
     /tmp/ccCRWoGH.s:155    .text:00000000000000d8 .LBE7
     /tmp/ccCRWoGH.s:3096   .debug_loc:00000000000002de .LLST4
     /tmp/ccCRWoGH.s:176    .text:00000000000000fc .LVL18
     /tmp/ccCRWoGH.s:181    .text:0000000000000108 .LVL19
     /tmp/ccCRWoGH.s:186    .text:0000000000000118 .LVL20
     /tmp/ccCRWoGH.s:3162   .debug_str:00000000000000d0 .LASF116
     /tmp/ccCRWoGH.s:3402   .debug_str:00000000000008d0 .LASF118
     /tmp/ccCRWoGH.s:3136   .debug_str:0000000000000000 .LASF117
     /tmp/ccCRWoGH.s:3186   .debug_str:0000000000000191 .LASF119
     /tmp/ccCRWoGH.s:3290   .debug_str:00000000000004e6 .LASF120
     /tmp/ccCRWoGH.s:3166   .debug_str:00000000000000f3 .LASF121
     /tmp/ccCRWoGH.s:3386   .debug_str:000000000000086f .LASF122
     /tmp/ccCRWoGH.s:3220   .debug_str:00000000000002c2 .LASF123
     /tmp/ccCRWoGH.s:3338   .debug_str:0000000000000657 .LASF124
     /tmp/ccCRWoGH.s:3392   .debug_str:0000000000000894 .LASF125
     /tmp/ccCRWoGH.s:522    .text:0000000000000320 .LVL61
     /tmp/ccCRWoGH.s:526    .text:0000000000000328 .LVL62
     /tmp/ccCRWoGH.s:545    .text:0000000000000358 .LVL66
     /tmp/ccCRWoGH.s:547    .text:000000000000035c .LVL67
     /tmp/ccCRWoGH.s:611    .text:00000000000003f0 .LVL79
     /tmp/ccCRWoGH.s:613    .text:00000000000003f4 .LVL80
     /tmp/ccCRWoGH.s:627    .text:0000000000000408 .LVL81
     /tmp/ccCRWoGH.s:575    .text:0000000000000390 .LVL71
     /tmp/ccCRWoGH.s:579    .text:0000000000000398 .LVL72
     /tmp/ccCRWoGH.s:630    .text:000000000000040c .LVL82
     /tmp/ccCRWoGH.s:352    .text:00000000000001e4 .LVL35
     /tmp/ccCRWoGH.s:356    .text:00000000000001ec .LVL36
     /tmp/ccCRWoGH.s:375    .text:000000000000021c .LVL40
     /tmp/ccCRWoGH.s:377    .text:0000000000000220 .LVL41
     /tmp/ccCRWoGH.s:465    .text:00000000000002e4 .LVL57
     /tmp/ccCRWoGH.s:467    .text:00000000000002e8 .LVL58
     /tmp/ccCRWoGH.s:481    .text:00000000000002fc .LVL59
     /tmp/ccCRWoGH.s:406    .text:0000000000000248 .LVL44
     /tmp/ccCRWoGH.s:429    .text:0000000000000284 .LVL49
     /tmp/ccCRWoGH.s:433    .text:000000000000028c .LVL50
     /tmp/ccCRWoGH.s:484    .text:0000000000000300 .LVL60
     /tmp/ccCRWoGH.s:13     .text:0000000000000000 .LVL0
     /tmp/ccCRWoGH.s:36     .text:0000000000000030 .LVL1
     /tmp/ccCRWoGH.s:60     .text:000000000000005c .LVL4
     /tmp/ccCRWoGH.s:66     .text:0000000000000068 .LVL5
     /tmp/ccCRWoGH.s:235    .text:0000000000000148 .LVL23
GAS LISTING /tmp/ccCRWoGH.s 			page 26


     /tmp/ccCRWoGH.s:240    .text:0000000000000150 .LVL24
     /tmp/ccCRWoGH.s:311    .text:00000000000001c4 .LVL34
     /tmp/ccCRWoGH.s:272    .text:000000000000017c .LVL29
     /tmp/ccCRWoGH.s:298    .text:00000000000001b8 .LVL33
     /tmp/ccCRWoGH.s:246    .text:0000000000000154 .LVL25
     /tmp/ccCRWoGH.s:256    .text:0000000000000164 .LVL26
     /tmp/ccCRWoGH.s:265    .text:0000000000000178 .LVL28
     /tmp/ccCRWoGH.s:103    .text:0000000000000088 .LVL7
     /tmp/ccCRWoGH.s:108    .text:0000000000000090 .LVL8
     /tmp/ccCRWoGH.s:205    .text:000000000000012c .LVL22
     /tmp/ccCRWoGH.s:128    .text:00000000000000b0 .LVL12
     /tmp/ccCRWoGH.s:160    .text:00000000000000dc .LVL17
     /tmp/ccCRWoGH.s:192    .text:0000000000000120 .LVL21
     /tmp/ccCRWoGH.s:134    .text:00000000000000b4 .LVL13
     /tmp/ccCRWoGH.s:144    .text:00000000000000c4 .LVL14
     /tmp/ccCRWoGH.s:153    .text:00000000000000d8 .LVL16
     /tmp/ccCRWoGH.s:645    .debug_info:0000000000000000 .Ldebug_info0
     /tmp/ccCRWoGH.s:131    .text:00000000000000b0 .LBB6
     /tmp/ccCRWoGH.s:156    .text:00000000000000d8 .LBE6
     /tmp/ccCRWoGH.s:188    .text:0000000000000118 .LBB9
     /tmp/ccCRWoGH.s:194    .text:0000000000000120 .LBE9
     /tmp/ccCRWoGH.s:243    .text:0000000000000150 .LBB13
     /tmp/ccCRWoGH.s:268    .text:0000000000000178 .LBE13
     /tmp/ccCRWoGH.s:294    .text:00000000000001b0 .LBB15
     /tmp/ccCRWoGH.s:300    .text:00000000000001b8 .LBE15

UNDEFINED SYMBOLS
_ZN7_thread5yieldEv
_Z10time_sleepm
_Z4getcv
_Z4putcc
_Z11printStringPKc
_Z12printIntegerm
