GAS LISTING /tmp/cc1kn2bK.s 			page 1


   1              		.file	"workers.cpp"
   2              		.option pic
   3              		.option norelax
   4              		.text
   5              	.Ltext0:
   6              		.align	2
   8              	_ZL9fibonaccim:
   9              	.LFB47:
  10              		.file 1 "src/workers.cpp"
   1:src/workers.cpp **** //
   2:src/workers.cpp **** // Created by marko on 20.4.22..
   3:src/workers.cpp **** //
   4:src/workers.cpp **** 
   5:src/workers.cpp **** #include "../lib/hw.h"
   6:src/workers.cpp **** #include "../h/tcb.hpp"
   7:src/workers.cpp **** #include "../h/print.hpp"
   8:src/workers.cpp **** #include "../h/syscall_c.h"
   9:src/workers.cpp **** 
  10:src/workers.cpp **** void workerBodyA()
  11:src/workers.cpp **** {
  12:src/workers.cpp ****     for (uint64 i = 0; i < 10; i++)
  13:src/workers.cpp ****     {
  14:src/workers.cpp ****         if(i == 5)
  15:src/workers.cpp ****             time_sleep(50);
  16:src/workers.cpp ****         printString("A: i=");
  17:src/workers.cpp ****         printInteger(i);
  18:src/workers.cpp ****         printString("\n");
  19:src/workers.cpp ****         for (uint64 j = 0; j < 10000; j++)
  20:src/workers.cpp ****         {
  21:src/workers.cpp ****             for (uint64 k = 0; k < 30000; k++)
  22:src/workers.cpp ****             {
  23:src/workers.cpp ****                 // busy wait
  24:src/workers.cpp ****             }
  25:src/workers.cpp **** //            _thread::yield();
  26:src/workers.cpp ****         }
  27:src/workers.cpp ****     }
  28:src/workers.cpp **** //    void* p = mem_alloc(4096);
  29:src/workers.cpp **** //    printString("stigao do dealokacije\n");
  30:src/workers.cpp **** //    printInteger((uint64)p);
  31:src/workers.cpp **** //    if(mem_free(p) == 0)
  32:src/workers.cpp **** //        printString("USPESNO OSLOBODJENA MEMORIJA!");
  33:src/workers.cpp **** //    else
  34:src/workers.cpp **** //        printString("NEUSPESNO OSLOBODJENA MEMORIJA");
  35:src/workers.cpp **** //    time_sleep(50);
  36:src/workers.cpp **** }
  37:src/workers.cpp **** 
  38:src/workers.cpp **** void workerBodyB()
  39:src/workers.cpp **** {
  40:src/workers.cpp ****     for (uint64 i = 0; i < 16; i++)
  41:src/workers.cpp ****     {
  42:src/workers.cpp ****         printString("B: i=");
  43:src/workers.cpp ****         printInteger(i);
  44:src/workers.cpp ****         printString("\n");
  45:src/workers.cpp ****         for (uint64 j = 0; j < 10000; j++)
  46:src/workers.cpp ****         {
  47:src/workers.cpp ****             for (uint64 k = 0; k < 30000; k++)
  48:src/workers.cpp ****             {
GAS LISTING /tmp/cc1kn2bK.s 			page 2


  49:src/workers.cpp ****                 // busy wait
  50:src/workers.cpp ****             }
  51:src/workers.cpp **** //            _thread::yield();
  52:src/workers.cpp ****         }
  53:src/workers.cpp ****     }
  54:src/workers.cpp **** }
  55:src/workers.cpp **** 
  56:src/workers.cpp **** static uint64 fibonacci(uint64 n)
  57:src/workers.cpp **** {
  11              		.loc 1 57 1
  12              		.cfi_startproc
  13              	.LVL0:
  14 0000 130101FE 		addi	sp,sp,-32
  15              		.cfi_def_cfa_offset 32
  16 0004 233C1100 		sd	ra,24(sp)
  17 0008 23388100 		sd	s0,16(sp)
  18 000c 23349100 		sd	s1,8(sp)
  19 0010 23302101 		sd	s2,0(sp)
  20              		.cfi_offset 1, -8
  21              		.cfi_offset 8, -16
  22              		.cfi_offset 9, -24
  23              		.cfi_offset 18, -32
  24 0014 13040102 		addi	s0,sp,32
  25              		.cfi_def_cfa 8, 0
  26 0018 93040500 		mv	s1,a0
  58:src/workers.cpp ****     if (n == 0 || n == 1) { return n; }
  27              		.loc 1 58 5
  28 001c 93071000 		li	a5,1
  29 0020 63F8A702 		bleu	a0,a5,.L1
  59:src/workers.cpp ****     if (n % 10 == 0) { _thread::yield(); }
  30              		.loc 1 59 5
  31              		.loc 1 59 11 is_stmt 0
  32 0024 9307A000 		li	a5,10
  33 0028 B377F502 		remu	a5,a0,a5
  34              		.loc 1 59 5
  35 002c 638E0702 		beqz	a5,.L6
  36              	.LVL1:
  37              	.L3:
  60:src/workers.cpp ****     return fibonacci(n - 1) + fibonacci(n - 2);
  38              		.loc 1 60 5 is_stmt 1
  39              		.loc 1 60 21 is_stmt 0
  40 0030 1385F4FF 		addi	a0,s1,-1
  41 0034 97000000 		call	_ZL9fibonaccim
  41      E7800000 
  42              	.LVL2:
  43 003c 13090500 		mv	s2,a0
  44              		.loc 1 60 40
  45 0040 1385E4FF 		addi	a0,s1,-2
  46 0044 97000000 		call	_ZL9fibonaccim
  46      E7800000 
  47              	.LVL3:
  48              		.loc 1 60 46
  49 004c 3305A900 		add	a0,s2,a0
  50              	.L1:
  61:src/workers.cpp **** }
  51              		.loc 1 61 1
  52 0050 83308101 		ld	ra,24(sp)
GAS LISTING /tmp/cc1kn2bK.s 			page 3


  53              		.cfi_remember_state
  54              		.cfi_restore 1
  55 0054 03340101 		ld	s0,16(sp)
  56              		.cfi_restore 8
  57              		.cfi_def_cfa 2, 32
  58 0058 83348100 		ld	s1,8(sp)
  59              		.cfi_restore 9
  60              	.LVL4:
  61 005c 03390100 		ld	s2,0(sp)
  62              		.cfi_restore 18
  63 0060 13010102 		addi	sp,sp,32
  64              		.cfi_def_cfa_offset 0
  65 0064 67800000 		jr	ra
  66              	.LVL5:
  67              	.L6:
  68              		.cfi_restore_state
  59:src/workers.cpp ****     if (n % 10 == 0) { _thread::yield(); }
  69              		.loc 1 59 24 is_stmt 1 discriminator 1
  59:src/workers.cpp ****     if (n % 10 == 0) { _thread::yield(); }
  70              		.loc 1 59 38 is_stmt 0 discriminator 1
  71 0068 97000000 		call	_ZN7_thread5yieldEv@plt
  71      E7800000 
  72              	.LVL6:
  73 0070 6FF01FFC 		j	.L3
  74              		.cfi_endproc
  75              	.LFE47:
  77              		.section	.rodata.str1.8,"aMS",@progbits,1
  78              		.align	3
  79              	.LC0:
  80 0000 413A2069 		.string	"A: i="
  80      3D00
  81 0006 0000     		.align	3
  82              	.LC1:
  83 0008 0A00     		.string	"\n"
  84              		.text
  85              		.align	2
  86              		.globl	_Z11workerBodyAv
  88              	_Z11workerBodyAv:
  89              	.LFB45:
  11:src/workers.cpp ****     for (uint64 i = 0; i < 10; i++)
  90              		.loc 1 11 1 is_stmt 1
  91              		.cfi_startproc
  92 0074 130101FE 		addi	sp,sp,-32
  93              		.cfi_def_cfa_offset 32
  94 0078 233C1100 		sd	ra,24(sp)
  95 007c 23388100 		sd	s0,16(sp)
  96 0080 23349100 		sd	s1,8(sp)
  97              		.cfi_offset 1, -8
  98              		.cfi_offset 8, -16
  99              		.cfi_offset 9, -24
 100 0084 13040102 		addi	s0,sp,32
 101              		.cfi_def_cfa 8, 0
  12:src/workers.cpp ****     {
 102              		.loc 1 12 5
 103              	.LVL7:
 104              	.LBB2:
  12:src/workers.cpp ****     {
GAS LISTING /tmp/cc1kn2bK.s 			page 4


 105              		.loc 1 12 17 is_stmt 0
 106 0088 93040000 		li	s1,0
 107 008c 6F000004 		j	.L14
 108              	.LVL8:
 109              	.L16:
 110              	.LBB3:
  15:src/workers.cpp ****         printString("A: i=");
 111              		.loc 1 15 13 is_stmt 1
  15:src/workers.cpp ****         printString("A: i=");
 112              		.loc 1 15 23 is_stmt 0
 113 0090 13052003 		li	a0,50
 114 0094 97000000 		call	_Z10time_sleepm@plt
 114      E7800000 
 115              	.LVL9:
 116 009c 6F000004 		j	.L9
 117              	.LVL10:
 118              	.L11:
 119              	.LBB4:
  19:src/workers.cpp ****         {
 120              		.loc 1 19 9 is_stmt 1 discriminator 2
 121 00a0 93861600 		addi	a3,a3,1
 122              	.LVL11:
 123              	.L13:
  19:src/workers.cpp ****         {
 124              		.loc 1 19 30 discriminator 1
 125 00a4 B7270000 		li	a5,8192
 126 00a8 9387F770 		addi	a5,a5,1807
 127 00ac 63EED700 		bgtu	a3,a5,.L10
 128              	.LBB5:
  21:src/workers.cpp ****             {
 129              		.loc 1 21 25 is_stmt 0
 130 00b0 13070000 		li	a4,0
 131              	.L12:
 132              	.LVL12:
  21:src/workers.cpp ****             {
 133              		.loc 1 21 34 is_stmt 1 discriminator 3
 134 00b4 B7770000 		li	a5,28672
 135 00b8 9387F752 		addi	a5,a5,1327
 136 00bc E3E2E7FE 		bgtu	a4,a5,.L11
  21:src/workers.cpp ****             {
 137              		.loc 1 21 13 discriminator 2
 138 00c0 13071700 		addi	a4,a4,1
 139              	.LVL13:
 140 00c4 6FF01FFF 		j	.L12
 141              	.LVL14:
 142              	.L10:
 143              	.LBE5:
 144              	.LBE4:
 145              	.LBE3:
  12:src/workers.cpp ****     {
 146              		.loc 1 12 5 discriminator 2
 147 00c8 93841400 		addi	s1,s1,1
 148              	.LVL15:
 149              	.L14:
  12:src/workers.cpp ****     {
 150              		.loc 1 12 26 discriminator 1
 151 00cc 93079000 		li	a5,9
GAS LISTING /tmp/cc1kn2bK.s 			page 5


 152 00d0 63E09704 		bgtu	s1,a5,.L7
 153              	.LBB7:
  14:src/workers.cpp ****             time_sleep(50);
 154              		.loc 1 14 9
 155 00d4 93075000 		li	a5,5
 156 00d8 E38CF4FA 		beq	s1,a5,.L16
 157              	.L9:
  16:src/workers.cpp ****         printInteger(i);
 158              		.loc 1 16 9
  16:src/workers.cpp ****         printInteger(i);
 159              		.loc 1 16 20 is_stmt 0
 160 00dc 17050000 		lla	a0,.LC0
 160      13050500 
 161 00e4 97000000 		call	_Z11printStringPKc@plt
 161      E7800000 
 162              	.LVL16:
  17:src/workers.cpp ****         printString("\n");
 163              		.loc 1 17 9 is_stmt 1
  17:src/workers.cpp ****         printString("\n");
 164              		.loc 1 17 21 is_stmt 0
 165 00ec 13850400 		mv	a0,s1
 166 00f0 97000000 		call	_Z12printIntegerm@plt
 166      E7800000 
 167              	.LVL17:
  18:src/workers.cpp ****         for (uint64 j = 0; j < 10000; j++)
 168              		.loc 1 18 9 is_stmt 1
  18:src/workers.cpp ****         for (uint64 j = 0; j < 10000; j++)
 169              		.loc 1 18 20 is_stmt 0
 170 00f8 17050000 		lla	a0,.LC1
 170      13050500 
 171 0100 97000000 		call	_Z11printStringPKc@plt
 171      E7800000 
 172              	.LVL18:
  19:src/workers.cpp ****         {
 173              		.loc 1 19 9 is_stmt 1
 174              	.LBB6:
  19:src/workers.cpp ****         {
 175              		.loc 1 19 21 is_stmt 0
 176 0108 93060000 		li	a3,0
 177 010c 6FF09FF9 		j	.L13
 178              	.LVL19:
 179              	.L7:
 180              	.LBE6:
 181              	.LBE7:
 182              	.LBE2:
  36:src/workers.cpp **** 
 183              		.loc 1 36 1
 184 0110 83308101 		ld	ra,24(sp)
 185              		.cfi_restore 1
 186 0114 03340101 		ld	s0,16(sp)
 187              		.cfi_restore 8
 188              		.cfi_def_cfa 2, 32
 189 0118 83348100 		ld	s1,8(sp)
 190              		.cfi_restore 9
 191              	.LVL20:
 192 011c 13010102 		addi	sp,sp,32
 193              		.cfi_def_cfa_offset 0
GAS LISTING /tmp/cc1kn2bK.s 			page 6


 194 0120 67800000 		jr	ra
 195              		.cfi_endproc
 196              	.LFE45:
 198              		.section	.rodata.str1.8
 199 000a 00000000 		.align	3
 199      0000
 200              	.LC2:
 201 0010 423A2069 		.string	"B: i="
 201      3D00
 202              		.text
 203              		.align	2
 204              		.globl	_Z11workerBodyBv
 206              	_Z11workerBodyBv:
 207              	.LFB46:
  39:src/workers.cpp ****     for (uint64 i = 0; i < 16; i++)
 208              		.loc 1 39 1 is_stmt 1
 209              		.cfi_startproc
 210 0124 130101FE 		addi	sp,sp,-32
 211              		.cfi_def_cfa_offset 32
 212 0128 233C1100 		sd	ra,24(sp)
 213 012c 23388100 		sd	s0,16(sp)
 214 0130 23349100 		sd	s1,8(sp)
 215              		.cfi_offset 1, -8
 216              		.cfi_offset 8, -16
 217              		.cfi_offset 9, -24
 218 0134 13040102 		addi	s0,sp,32
 219              		.cfi_def_cfa 8, 0
  40:src/workers.cpp ****     {
 220              		.loc 1 40 5
 221              	.LVL21:
 222              	.LBB8:
  40:src/workers.cpp ****     {
 223              		.loc 1 40 17 is_stmt 0
 224 0138 93040000 		li	s1,0
 225 013c 6F000003 		j	.L23
 226              	.LVL22:
 227              	.L20:
 228              	.LBB9:
 229              	.LBB10:
  45:src/workers.cpp ****         {
 230              		.loc 1 45 9 is_stmt 1 discriminator 2
 231 0140 93861600 		addi	a3,a3,1
 232              	.LVL23:
 233              	.L22:
  45:src/workers.cpp ****         {
 234              		.loc 1 45 30 discriminator 1
 235 0144 B7270000 		li	a5,8192
 236 0148 9387F770 		addi	a5,a5,1807
 237 014c 63EED700 		bgtu	a3,a5,.L19
 238              	.LBB11:
  47:src/workers.cpp ****             {
 239              		.loc 1 47 25 is_stmt 0
 240 0150 13070000 		li	a4,0
 241              	.L21:
 242              	.LVL24:
  47:src/workers.cpp ****             {
 243              		.loc 1 47 34 is_stmt 1 discriminator 3
GAS LISTING /tmp/cc1kn2bK.s 			page 7


 244 0154 B7770000 		li	a5,28672
 245 0158 9387F752 		addi	a5,a5,1327
 246 015c E3E2E7FE 		bgtu	a4,a5,.L20
  47:src/workers.cpp ****             {
 247              		.loc 1 47 13 discriminator 2
 248 0160 13071700 		addi	a4,a4,1
 249              	.LVL25:
 250 0164 6FF01FFF 		j	.L21
 251              	.LVL26:
 252              	.L19:
 253              	.LBE11:
 254              	.LBE10:
 255              	.LBE9:
  40:src/workers.cpp ****     {
 256              		.loc 1 40 5 discriminator 2
 257 0168 93841400 		addi	s1,s1,1
 258              	.LVL27:
 259              	.L23:
  40:src/workers.cpp ****     {
 260              		.loc 1 40 26 discriminator 1
 261 016c 9307F000 		li	a5,15
 262 0170 63EC9702 		bgtu	s1,a5,.L17
 263              	.LBB13:
  42:src/workers.cpp ****         printInteger(i);
 264              		.loc 1 42 9
  42:src/workers.cpp ****         printInteger(i);
 265              		.loc 1 42 20 is_stmt 0
 266 0174 17050000 		lla	a0,.LC2
 266      13050500 
 267 017c 97000000 		call	_Z11printStringPKc@plt
 267      E7800000 
 268              	.LVL28:
  43:src/workers.cpp ****         printString("\n");
 269              		.loc 1 43 9 is_stmt 1
  43:src/workers.cpp ****         printString("\n");
 270              		.loc 1 43 21 is_stmt 0
 271 0184 13850400 		mv	a0,s1
 272 0188 97000000 		call	_Z12printIntegerm@plt
 272      E7800000 
 273              	.LVL29:
  44:src/workers.cpp ****         for (uint64 j = 0; j < 10000; j++)
 274              		.loc 1 44 9 is_stmt 1
  44:src/workers.cpp ****         for (uint64 j = 0; j < 10000; j++)
 275              		.loc 1 44 20 is_stmt 0
 276 0190 17050000 		lla	a0,.LC1
 276      13050500 
 277 0198 97000000 		call	_Z11printStringPKc@plt
 277      E7800000 
 278              	.LVL30:
  45:src/workers.cpp ****         {
 279              		.loc 1 45 9 is_stmt 1
 280              	.LBB12:
  45:src/workers.cpp ****         {
 281              		.loc 1 45 21 is_stmt 0
 282 01a0 93060000 		li	a3,0
 283 01a4 6FF01FFA 		j	.L22
 284              	.LVL31:
GAS LISTING /tmp/cc1kn2bK.s 			page 8


 285              	.L17:
 286              	.LBE12:
 287              	.LBE13:
 288              	.LBE8:
  54:src/workers.cpp **** 
 289              		.loc 1 54 1
 290 01a8 83308101 		ld	ra,24(sp)
 291              		.cfi_restore 1
 292 01ac 03340101 		ld	s0,16(sp)
 293              		.cfi_restore 8
 294              		.cfi_def_cfa 2, 32
 295 01b0 83348100 		ld	s1,8(sp)
 296              		.cfi_restore 9
 297              	.LVL32:
 298 01b4 13010102 		addi	sp,sp,32
 299              		.cfi_def_cfa_offset 0
 300 01b8 67800000 		jr	ra
 301              		.cfi_endproc
 302              	.LFE46:
 304              		.section	.rodata.str1.8
 305 0016 0000     		.align	3
 306              	.LC3:
 307 0018 433A2069 		.string	"C: i="
 307      3D00
 308 001e 0000     		.align	3
 309              	.LC4:
 310 0020 433A2079 		.string	"C: yield\n"
 310      69656C64 
 310      0A00
 311 002a 00000000 		.align	3
 311      0000
 312              	.LC5:
 313 0030 433A2074 		.string	"C: t1="
 313      313D00
 314 0037 00       		.align	3
 315              	.LC6:
 316 0038 433A2066 		.string	"C: fibonaci="
 316      69626F6E 
 316      6163693D 
 316      00
 317              		.text
 318              		.align	2
 319              		.globl	_Z11workerBodyCv
 321              	_Z11workerBodyCv:
 322              	.LFB48:
  62:src/workers.cpp **** 
  63:src/workers.cpp **** void workerBodyC()
  64:src/workers.cpp **** {
 323              		.loc 1 64 1 is_stmt 1
 324              		.cfi_startproc
 325 01bc 130101FE 		addi	sp,sp,-32
 326              		.cfi_def_cfa_offset 32
 327 01c0 233C1100 		sd	ra,24(sp)
 328 01c4 23388100 		sd	s0,16(sp)
 329 01c8 23349100 		sd	s1,8(sp)
 330 01cc 23302101 		sd	s2,0(sp)
 331              		.cfi_offset 1, -8
GAS LISTING /tmp/cc1kn2bK.s 			page 9


 332              		.cfi_offset 8, -16
 333              		.cfi_offset 9, -24
 334              		.cfi_offset 18, -32
 335 01d0 13040102 		addi	s0,sp,32
 336              		.cfi_def_cfa 8, 0
  65:src/workers.cpp ****     uint8 i = 0;
 337              		.loc 1 65 5
 338              	.LVL33:
 339              		.loc 1 65 11 is_stmt 0
 340 01d4 93040000 		li	s1,0
 341 01d8 6F008003 		j	.L27
 342              	.LVL34:
 343              	.L31:
  66:src/workers.cpp ****     for (; i < 3; i++)
  67:src/workers.cpp ****     {
  68:src/workers.cpp ****         printString("C: i=");
 344              		.loc 1 68 9 is_stmt 1 discriminator 1
 345              		.loc 1 68 20 is_stmt 0 discriminator 1
 346 01dc 17050000 		lla	a0,.LC3
 346      13050500 
 347 01e4 97000000 		call	_Z11printStringPKc@plt
 347      E7800000 
 348              	.LVL35:
  69:src/workers.cpp ****         printInteger(i);
 349              		.loc 1 69 9 is_stmt 1 discriminator 1
 350              		.loc 1 69 21 is_stmt 0 discriminator 1
 351 01ec 13850400 		mv	a0,s1
 352 01f0 97000000 		call	_Z12printIntegerm@plt
 352      E7800000 
 353              	.LVL36:
  70:src/workers.cpp ****         printString("\n");
 354              		.loc 1 70 9 is_stmt 1 discriminator 1
 355              		.loc 1 70 20 is_stmt 0 discriminator 1
 356 01f8 17050000 		lla	a0,.LC1
 356      13050500 
 357 0200 97000000 		call	_Z11printStringPKc@plt
 357      E7800000 
 358              	.LVL37:
  66:src/workers.cpp ****     for (; i < 3; i++)
 359              		.loc 1 66 5 is_stmt 1 discriminator 1
 360 0208 9B841400 		addiw	s1,s1,1
 361              	.LVL38:
 362 020c 93F4F40F 		andi	s1,s1,0xff
 363              	.LVL39:
 364              	.L27:
  66:src/workers.cpp ****     for (; i < 3; i++)
 365              		.loc 1 66 5 discriminator 2
  66:src/workers.cpp ****     for (; i < 3; i++)
 366              		.loc 1 66 14 discriminator 2
 367 0210 93072000 		li	a5,2
 368 0214 E3F497FC 		bleu	s1,a5,.L31
  71:src/workers.cpp ****     }
  72:src/workers.cpp **** 
  73:src/workers.cpp ****     printString("C: yield\n");
 369              		.loc 1 73 5
 370              		.loc 1 73 16 is_stmt 0
 371 0218 17050000 		lla	a0,.LC4
GAS LISTING /tmp/cc1kn2bK.s 			page 10


 371      13050500 
 372 0220 97000000 		call	_Z11printStringPKc@plt
 372      E7800000 
 373              	.LVL40:
  74:src/workers.cpp ****     __asm__ ("li t1, 7");
 374              		.loc 1 74 5 is_stmt 1
 375              		.loc 1 74 25 is_stmt 0
 376              	#APP
 377              	# 74 "src/workers.cpp" 1
  75              	    _thread::yield();
 378              		li t1, 7
 379              	# 0 "" 2
 380              		.loc 1 75 5 is_stmt 1
 381              		.loc 1 75 19 is_stmt 0
 382              	#NO_APP
 383 022c 97000000 		call	_ZN7_thread5yieldEv@plt
 383      E7800000 
 384              	.LVL41:
  76:src/workers.cpp **** 
  77:src/workers.cpp ****     uint64 t1 = 0;
 385              		.loc 1 77 5 is_stmt 1
  78:src/workers.cpp ****     __asm__ ("mv %[t1], t1" : [t1] "=r"(t1));
 386              		.loc 1 78 5
 387              		.loc 1 78 45 is_stmt 0
 388              	#APP
 389              	# 78 "src/workers.cpp" 1
  79              	
 390              		mv s2, t1
 391              	# 0 "" 2
 392              	.LVL42:
  80:src/workers.cpp ****     printString("C: t1=");
 393              		.loc 1 80 5 is_stmt 1
 394              		.loc 1 80 16 is_stmt 0
 395              	#NO_APP
 396 0238 17050000 		lla	a0,.LC5
 396      13050500 
 397 0240 97000000 		call	_Z11printStringPKc@plt
 397      E7800000 
 398              	.LVL43:
  81:src/workers.cpp ****     printInteger(t1);
 399              		.loc 1 81 5 is_stmt 1
 400              		.loc 1 81 17 is_stmt 0
 401 0248 13050900 		mv	a0,s2
 402 024c 97000000 		call	_Z12printIntegerm@plt
 402      E7800000 
 403              	.LVL44:
  82:src/workers.cpp ****     printString("\n");
 404              		.loc 1 82 5 is_stmt 1
 405              		.loc 1 82 16 is_stmt 0
 406 0254 17050000 		lla	a0,.LC1
 406      13050500 
 407 025c 97000000 		call	_Z11printStringPKc@plt
 407      E7800000 
 408              	.LVL45:
  83:src/workers.cpp **** 
  84:src/workers.cpp ****     uint64 result = fibonacci(12);
 409              		.loc 1 84 5 is_stmt 1
GAS LISTING /tmp/cc1kn2bK.s 			page 11


 410              		.loc 1 84 30 is_stmt 0
 411 0264 1305C000 		li	a0,12
 412 0268 97000000 		call	_ZL9fibonaccim
 412      E7800000 
 413              	.LVL46:
 414 0270 13090500 		mv	s2,a0
 415              	.LVL47:
  85:src/workers.cpp ****     printString("C: fibonaci=");
 416              		.loc 1 85 5 is_stmt 1
 417              		.loc 1 85 16 is_stmt 0
 418 0274 17050000 		lla	a0,.LC6
 418      13050500 
 419              	.LVL48:
 420 027c 97000000 		call	_Z11printStringPKc@plt
 420      E7800000 
 421              	.LVL49:
  86:src/workers.cpp ****     printInteger(result);
 422              		.loc 1 86 5 is_stmt 1
 423              		.loc 1 86 17 is_stmt 0
 424 0284 13050900 		mv	a0,s2
 425 0288 97000000 		call	_Z12printIntegerm@plt
 425      E7800000 
 426              	.LVL50:
  87:src/workers.cpp ****     printString("\n");
 427              		.loc 1 87 5 is_stmt 1
 428              		.loc 1 87 16 is_stmt 0
 429 0290 17050000 		lla	a0,.LC1
 429      13050500 
 430 0298 97000000 		call	_Z11printStringPKc@plt
 430      E7800000 
 431              	.LVL51:
 432 02a0 6F008003 		j	.L29
 433              	.L32:
  88:src/workers.cpp **** 
  89:src/workers.cpp ****     for (; i < 6; i++)
  90:src/workers.cpp ****     {
  91:src/workers.cpp ****         printString("C: i=");
 434              		.loc 1 91 9 is_stmt 1 discriminator 1
 435              		.loc 1 91 20 is_stmt 0 discriminator 1
 436 02a4 17050000 		lla	a0,.LC3
 436      13050500 
 437 02ac 97000000 		call	_Z11printStringPKc@plt
 437      E7800000 
 438              	.LVL52:
  92:src/workers.cpp ****         printInteger(i);
 439              		.loc 1 92 9 is_stmt 1 discriminator 1
 440              		.loc 1 92 21 is_stmt 0 discriminator 1
 441 02b4 13850400 		mv	a0,s1
 442 02b8 97000000 		call	_Z12printIntegerm@plt
 442      E7800000 
 443              	.LVL53:
  93:src/workers.cpp ****         printString("\n");
 444              		.loc 1 93 9 is_stmt 1 discriminator 1
 445              		.loc 1 93 20 is_stmt 0 discriminator 1
 446 02c0 17050000 		lla	a0,.LC1
 446      13050500 
 447 02c8 97000000 		call	_Z11printStringPKc@plt
GAS LISTING /tmp/cc1kn2bK.s 			page 12


 447      E7800000 
 448              	.LVL54:
  89:src/workers.cpp ****     {
 449              		.loc 1 89 5 is_stmt 1 discriminator 1
 450 02d0 9B841400 		addiw	s1,s1,1
 451              	.LVL55:
 452 02d4 93F4F40F 		andi	s1,s1,0xff
 453              	.LVL56:
 454              	.L29:
  89:src/workers.cpp ****     {
 455              		.loc 1 89 5 discriminator 2
  89:src/workers.cpp ****     {
 456              		.loc 1 89 14 discriminator 2
 457 02d8 93075000 		li	a5,5
 458 02dc E3F497FC 		bleu	s1,a5,.L32
  94:src/workers.cpp ****     }
  95:src/workers.cpp **** //    _thread::yield();
  96:src/workers.cpp **** }
 459              		.loc 1 96 1 is_stmt 0
 460 02e0 83308101 		ld	ra,24(sp)
 461              		.cfi_restore 1
 462 02e4 03340101 		ld	s0,16(sp)
 463              		.cfi_restore 8
 464              		.cfi_def_cfa 2, 32
 465 02e8 83348100 		ld	s1,8(sp)
 466              		.cfi_restore 9
 467              	.LVL57:
 468 02ec 03390100 		ld	s2,0(sp)
 469              		.cfi_restore 18
 470              	.LVL58:
 471 02f0 13010102 		addi	sp,sp,32
 472              		.cfi_def_cfa_offset 0
 473 02f4 67800000 		jr	ra
 474              		.cfi_endproc
 475              	.LFE48:
 477              		.section	.rodata.str1.8
 478 0045 000000   		.align	3
 479              	.LC7:
 480 0048 443A2069 		.string	"D: i="
 480      3D00
 481 004e 0000     		.align	3
 482              	.LC8:
 483 0050 443A2079 		.string	"D: yield\n"
 483      69656C64 
 483      0A00
 484 005a 00000000 		.align	3
 484      0000
 485              	.LC9:
 486 0060 443A2066 		.string	"D: fibonaci="
 486      69626F6E 
 486      6163693D 
 486      00
 487              		.text
 488              		.align	2
 489              		.globl	_Z11workerBodyDv
 491              	_Z11workerBodyDv:
 492              	.LFB49:
GAS LISTING /tmp/cc1kn2bK.s 			page 13


  97:src/workers.cpp **** 
  98:src/workers.cpp **** void workerBodyD()
  99:src/workers.cpp **** {
 493              		.loc 1 99 1 is_stmt 1
 494              		.cfi_startproc
 495 02f8 130101FE 		addi	sp,sp,-32
 496              		.cfi_def_cfa_offset 32
 497 02fc 233C1100 		sd	ra,24(sp)
 498 0300 23388100 		sd	s0,16(sp)
 499 0304 23349100 		sd	s1,8(sp)
 500 0308 23302101 		sd	s2,0(sp)
 501              		.cfi_offset 1, -8
 502              		.cfi_offset 8, -16
 503              		.cfi_offset 9, -24
 504              		.cfi_offset 18, -32
 505 030c 13040102 		addi	s0,sp,32
 506              		.cfi_def_cfa 8, 0
 100:src/workers.cpp ****     uint8 i = 10;
 507              		.loc 1 100 5
 508              	.LVL59:
 509              		.loc 1 100 11 is_stmt 0
 510 0310 9304A000 		li	s1,10
 511 0314 6F008003 		j	.L35
 512              	.LVL60:
 513              	.L39:
 101:src/workers.cpp ****     for (; i < 13; i++)
 102:src/workers.cpp ****     {
 103:src/workers.cpp ****         printString("D: i=");
 514              		.loc 1 103 9 is_stmt 1 discriminator 1
 515              		.loc 1 103 20 is_stmt 0 discriminator 1
 516 0318 17050000 		lla	a0,.LC7
 516      13050500 
 517 0320 97000000 		call	_Z11printStringPKc@plt
 517      E7800000 
 518              	.LVL61:
 104:src/workers.cpp ****         printInteger(i);
 519              		.loc 1 104 9 is_stmt 1 discriminator 1
 520              		.loc 1 104 21 is_stmt 0 discriminator 1
 521 0328 13850400 		mv	a0,s1
 522 032c 97000000 		call	_Z12printIntegerm@plt
 522      E7800000 
 523              	.LVL62:
 105:src/workers.cpp ****         printString("\n");
 524              		.loc 1 105 9 is_stmt 1 discriminator 1
 525              		.loc 1 105 20 is_stmt 0 discriminator 1
 526 0334 17050000 		lla	a0,.LC1
 526      13050500 
 527 033c 97000000 		call	_Z11printStringPKc@plt
 527      E7800000 
 528              	.LVL63:
 101:src/workers.cpp ****     for (; i < 13; i++)
 529              		.loc 1 101 5 is_stmt 1 discriminator 1
 530 0344 9B841400 		addiw	s1,s1,1
 531              	.LVL64:
 532 0348 93F4F40F 		andi	s1,s1,0xff
 533              	.LVL65:
 534              	.L35:
GAS LISTING /tmp/cc1kn2bK.s 			page 14


 101:src/workers.cpp ****     for (; i < 13; i++)
 535              		.loc 1 101 5 discriminator 2
 101:src/workers.cpp ****     for (; i < 13; i++)
 536              		.loc 1 101 14 discriminator 2
 537 034c 9307C000 		li	a5,12
 538 0350 E3F497FC 		bleu	s1,a5,.L39
 106:src/workers.cpp ****     }
 107:src/workers.cpp **** 
 108:src/workers.cpp ****     printString("D: yield\n");
 539              		.loc 1 108 5
 540              		.loc 1 108 16 is_stmt 0
 541 0354 17050000 		lla	a0,.LC8
 541      13050500 
 542 035c 97000000 		call	_Z11printStringPKc@plt
 542      E7800000 
 543              	.LVL66:
 109:src/workers.cpp ****     __asm__ ("li t1, 5");
 544              		.loc 1 109 5 is_stmt 1
 545              		.loc 1 109 25 is_stmt 0
 546              	#APP
 547              	# 109 "src/workers.cpp" 1
 110              	    _thread::yield();
 548              		li t1, 5
 549              	# 0 "" 2
 550              		.loc 1 110 5 is_stmt 1
 551              		.loc 1 110 19 is_stmt 0
 552              	#NO_APP
 553 0368 97000000 		call	_ZN7_thread5yieldEv@plt
 553      E7800000 
 554              	.LVL67:
 111:src/workers.cpp **** 
 112:src/workers.cpp ****     uint64 result = fibonacci(16);
 555              		.loc 1 112 5 is_stmt 1
 556              		.loc 1 112 30 is_stmt 0
 557 0370 13050001 		li	a0,16
 558 0374 97000000 		call	_ZL9fibonaccim
 558      E7800000 
 559              	.LVL68:
 560 037c 13090500 		mv	s2,a0
 561              	.LVL69:
 113:src/workers.cpp ****     printString("D: fibonaci=");
 562              		.loc 1 113 5 is_stmt 1
 563              		.loc 1 113 16 is_stmt 0
 564 0380 17050000 		lla	a0,.LC9
 564      13050500 
 565              	.LVL70:
 566 0388 97000000 		call	_Z11printStringPKc@plt
 566      E7800000 
 567              	.LVL71:
 114:src/workers.cpp ****     printInteger(result);
 568              		.loc 1 114 5 is_stmt 1
 569              		.loc 1 114 17 is_stmt 0
 570 0390 13050900 		mv	a0,s2
 571 0394 97000000 		call	_Z12printIntegerm@plt
 571      E7800000 
 572              	.LVL72:
 115:src/workers.cpp ****     printString("\n");
GAS LISTING /tmp/cc1kn2bK.s 			page 15


 573              		.loc 1 115 5 is_stmt 1
 574              		.loc 1 115 16 is_stmt 0
 575 039c 17050000 		lla	a0,.LC1
 575      13050500 
 576 03a4 97000000 		call	_Z11printStringPKc@plt
 576      E7800000 
 577              	.LVL73:
 578 03ac 6F008003 		j	.L37
 579              	.L40:
 116:src/workers.cpp **** 
 117:src/workers.cpp ****     for (; i < 16; i++)
 118:src/workers.cpp ****     {
 119:src/workers.cpp ****         printString("D: i=");
 580              		.loc 1 119 9 is_stmt 1 discriminator 1
 581              		.loc 1 119 20 is_stmt 0 discriminator 1
 582 03b0 17050000 		lla	a0,.LC7
 582      13050500 
 583 03b8 97000000 		call	_Z11printStringPKc@plt
 583      E7800000 
 584              	.LVL74:
 120:src/workers.cpp ****         printInteger(i);
 585              		.loc 1 120 9 is_stmt 1 discriminator 1
 586              		.loc 1 120 21 is_stmt 0 discriminator 1
 587 03c0 13850400 		mv	a0,s1
 588 03c4 97000000 		call	_Z12printIntegerm@plt
 588      E7800000 
 589              	.LVL75:
 121:src/workers.cpp ****         printString("\n");
 590              		.loc 1 121 9 is_stmt 1 discriminator 1
 591              		.loc 1 121 20 is_stmt 0 discriminator 1
 592 03cc 17050000 		lla	a0,.LC1
 592      13050500 
 593 03d4 97000000 		call	_Z11printStringPKc@plt
 593      E7800000 
 594              	.LVL76:
 117:src/workers.cpp ****     {
 595              		.loc 1 117 5 is_stmt 1 discriminator 1
 596 03dc 9B841400 		addiw	s1,s1,1
 597              	.LVL77:
 598 03e0 93F4F40F 		andi	s1,s1,0xff
 599              	.LVL78:
 600              	.L37:
 117:src/workers.cpp ****     {
 601              		.loc 1 117 5 discriminator 2
 117:src/workers.cpp ****     {
 602              		.loc 1 117 14 discriminator 2
 603 03e4 9307F000 		li	a5,15
 604 03e8 E3F497FC 		bleu	s1,a5,.L40
 122:src/workers.cpp ****     }
 123:src/workers.cpp **** //    _thread::yield();
 124:src/workers.cpp **** }...
 605              		.loc 1 124 1 is_stmt 0
 606 03ec 83308101 		ld	ra,24(sp)
 607              		.cfi_restore 1
 608 03f0 03340101 		ld	s0,16(sp)
 609              		.cfi_restore 8
 610              		.cfi_def_cfa 2, 32
GAS LISTING /tmp/cc1kn2bK.s 			page 16


 611 03f4 83348100 		ld	s1,8(sp)
 612              		.cfi_restore 9
 613              	.LVL79:
 614 03f8 03390100 		ld	s2,0(sp)
 615              		.cfi_restore 18
 616              	.LVL80:
 617 03fc 13010102 		addi	sp,sp,32
 618              		.cfi_def_cfa_offset 0
 619 0400 67800000 		jr	ra
 620              		.cfi_endproc
 621              	.LFE49:
 623              	.Letext0:
 624              		.file 2 "src/../lib/hw.h"
 625              		.file 3 "src/../h/syscall_c.h"
 626              		.file 4 "src/../h/tcb.hpp"
 627              		.file 5 "src/../h/_sem.hpp"
 628              		.file 6 "src/../h/list.hpp"
 629              		.file 7 "src/../h/../h/print.hpp"
GAS LISTING /tmp/cc1kn2bK.s 			page 17

