GAS LISTING /tmp/ccR6gy7q.s 			page 1


   1              		.file	"buffer.cpp"
   2              		.option pic
   3              		.option norelax
   4              		.text
   5              	.Ltext0:
   6              		.align	2
   7              		.globl	_ZN6BufferC2Ei
   9              	_ZN6BufferC2Ei:
  10              	.LFB32:
  11              		.file 1 "test/buffer.cpp"
   1:test/buffer.cpp **** #include "buffer.hpp"
   2:test/buffer.cpp **** #include "../h/_sem.hpp"
   3:test/buffer.cpp **** 
   4:test/buffer.cpp **** Buffer::Buffer(int _cap) : cap(_cap + 1), head(0), tail(0) {
  12              		.loc 1 4 1
  13              		.cfi_startproc
  14              	.LVL0:
  15 0000 130101FE 		addi	sp,sp,-32
  16              		.cfi_def_cfa_offset 32
  17 0004 233C1100 		sd	ra,24(sp)
  18 0008 23388100 		sd	s0,16(sp)
  19 000c 23349100 		sd	s1,8(sp)
  20 0010 23302101 		sd	s2,0(sp)
  21              		.cfi_offset 1, -8
  22              		.cfi_offset 8, -16
  23              		.cfi_offset 9, -24
  24              		.cfi_offset 18, -32
  25 0014 13040102 		addi	s0,sp,32
  26              		.cfi_def_cfa 8, 0
  27 0018 93040500 		mv	s1,a0
  28 001c 13890500 		mv	s2,a1
  29              	.LBB2:
  30              		.loc 1 4 37 is_stmt 0
  31 0020 9B871500 		addiw	a5,a1,1
  32 0024 1B850700 		sext.w	a0,a5
  33              	.LVL1:
  34              		.loc 1 4 58
  35 0028 23A0F400 		sw	a5,0(s1)
  36 002c 23A80400 		sw	zero,16(s1)
  37 0030 23AA0400 		sw	zero,20(s1)
   5:test/buffer.cpp ****     buffer = (int *)mem_alloc(sizeof(int) * cap);
  38              		.loc 1 5 5 is_stmt 1
  39              		.loc 1 5 30 is_stmt 0
  40 0034 13152500 		slli	a0,a0,2
  41 0038 97000000 		call	_Z9mem_allocm@plt
  41      E7800000 
  42              	.LVL2:
  43              		.loc 1 5 12
  44 0040 23B4A400 		sd	a0,8(s1)
   6:test/buffer.cpp **** //    sem_open(&itemAvailable, 0);
   7:test/buffer.cpp **** //    sem_open(&spaceAvailable, _cap);
   8:test/buffer.cpp **** //    sem_open(&mutexHead, 1);
   9:test/buffer.cpp **** //    sem_open(&mutexTail, 1);
  10:test/buffer.cpp ****     _sem::createSem(&itemAvailable, 0);
  45              		.loc 1 10 5 is_stmt 1
  46              		.loc 1 10 20 is_stmt 0
  47 0044 93050000 		li	a1,0
GAS LISTING /tmp/ccR6gy7q.s 			page 2


  48 0048 13850402 		addi	a0,s1,32
  49 004c 97000000 		call	_ZN4_sem9createSemEPPS_m@plt
  49      E7800000 
  50              	.LVL3:
  11:test/buffer.cpp ****     _sem::createSem(&spaceAvailable, _cap);
  51              		.loc 1 11 5 is_stmt 1
  52              		.loc 1 11 20 is_stmt 0
  53 0054 93050900 		mv	a1,s2
  54 0058 13858401 		addi	a0,s1,24
  55 005c 97000000 		call	_ZN4_sem9createSemEPPS_m@plt
  55      E7800000 
  56              	.LVL4:
  12:test/buffer.cpp ****     _sem::createSem(&mutexHead, 1);
  57              		.loc 1 12 5 is_stmt 1
  58              		.loc 1 12 20 is_stmt 0
  59 0064 93051000 		li	a1,1
  60 0068 13858402 		addi	a0,s1,40
  61 006c 97000000 		call	_ZN4_sem9createSemEPPS_m@plt
  61      E7800000 
  62              	.LVL5:
  13:test/buffer.cpp ****     _sem::createSem(&mutexTail, 1);
  63              		.loc 1 13 5 is_stmt 1
  64              		.loc 1 13 20 is_stmt 0
  65 0074 93051000 		li	a1,1
  66 0078 13850403 		addi	a0,s1,48
  67 007c 97000000 		call	_ZN4_sem9createSemEPPS_m@plt
  67      E7800000 
  68              	.LVL6:
  69              	.LBE2:
  14:test/buffer.cpp **** }
  70              		.loc 1 14 1
  71 0084 83308101 		ld	ra,24(sp)
  72              		.cfi_restore 1
  73 0088 03340101 		ld	s0,16(sp)
  74              		.cfi_restore 8
  75              		.cfi_def_cfa 2, 32
  76 008c 83348100 		ld	s1,8(sp)
  77              		.cfi_restore 9
  78              	.LVL7:
  79 0090 03390100 		ld	s2,0(sp)
  80              		.cfi_restore 18
  81 0094 13010102 		addi	sp,sp,32
  82              		.cfi_def_cfa_offset 0
  83 0098 67800000 		jr	ra
  84              		.cfi_endproc
  85              	.LFE32:
  87              		.globl	_ZN6BufferC1Ei
  88              		.set	_ZN6BufferC1Ei,_ZN6BufferC2Ei
  89              		.align	2
  90              		.globl	_ZN6Buffer3putEi
  92              	_ZN6Buffer3putEi:
  93              	.LFB37:
  15:test/buffer.cpp **** 
  16:test/buffer.cpp **** Buffer::~Buffer() {
  17:test/buffer.cpp ****     putc('\n');
  18:test/buffer.cpp ****     printString("Buffer deleted!\n");
  19:test/buffer.cpp ****     while (getCnt() > 0) {
GAS LISTING /tmp/ccR6gy7q.s 			page 3


  20:test/buffer.cpp ****         char ch = buffer[head];
  21:test/buffer.cpp ****         putc(ch);
  22:test/buffer.cpp ****         head = (head + 1) % cap;
  23:test/buffer.cpp ****     }
  24:test/buffer.cpp ****     putc('!');
  25:test/buffer.cpp ****     putc('\n');
  26:test/buffer.cpp **** 
  27:test/buffer.cpp ****     mem_free(buffer);
  28:test/buffer.cpp ****     sem_close(itemAvailable);
  29:test/buffer.cpp ****     sem_close(spaceAvailable);
  30:test/buffer.cpp ****     sem_close(mutexTail);
  31:test/buffer.cpp ****     sem_close(mutexHead);
  32:test/buffer.cpp **** }
  33:test/buffer.cpp **** 
  34:test/buffer.cpp **** void Buffer::put(int val) {
  94              		.loc 1 34 27 is_stmt 1
  95              		.cfi_startproc
  96              	.LVL8:
  97 009c 130101FE 		addi	sp,sp,-32
  98              		.cfi_def_cfa_offset 32
  99 00a0 233C1100 		sd	ra,24(sp)
 100 00a4 23388100 		sd	s0,16(sp)
 101 00a8 23349100 		sd	s1,8(sp)
 102 00ac 23302101 		sd	s2,0(sp)
 103              		.cfi_offset 1, -8
 104              		.cfi_offset 8, -16
 105              		.cfi_offset 9, -24
 106              		.cfi_offset 18, -32
 107 00b0 13040102 		addi	s0,sp,32
 108              		.cfi_def_cfa 8, 0
 109 00b4 93040500 		mv	s1,a0
 110 00b8 13890500 		mv	s2,a1
  35:test/buffer.cpp ****     sem_wait(spaceAvailable);
 111              		.loc 1 35 5
 112              		.loc 1 35 13 is_stmt 0
 113 00bc 03358501 		ld	a0,24(a0)
 114              	.LVL9:
 115 00c0 97000000 		call	_Z8sem_waitP4_sem@plt
 115      E7800000 
 116              	.LVL10:
  36:test/buffer.cpp **** 
  37:test/buffer.cpp ****     sem_wait(mutexTail);
 117              		.loc 1 37 5 is_stmt 1
 118              		.loc 1 37 13 is_stmt 0
 119 00c8 03B50403 		ld	a0,48(s1)
 120 00cc 97000000 		call	_Z8sem_waitP4_sem@plt
 120      E7800000 
 121              	.LVL11:
  38:test/buffer.cpp ****     buffer[tail] = val;
 122              		.loc 1 38 5 is_stmt 1
 123 00d4 83B78400 		ld	a5,8(s1)
 124              		.loc 1 38 12 is_stmt 0
 125 00d8 03A74401 		lw	a4,20(s1)
 126              		.loc 1 38 16
 127 00dc 13172700 		slli	a4,a4,2
 128 00e0 B387E700 		add	a5,a5,a4
 129              		.loc 1 38 18
GAS LISTING /tmp/ccR6gy7q.s 			page 4


 130 00e4 23A02701 		sw	s2,0(a5)
  39:test/buffer.cpp ****     tail = (tail + 1) % cap;
 131              		.loc 1 39 5 is_stmt 1
 132              		.loc 1 39 13 is_stmt 0
 133 00e8 83A74401 		lw	a5,20(s1)
 134              		.loc 1 39 18
 135 00ec 9B871700 		addiw	a5,a5,1
 136              		.loc 1 39 25
 137 00f0 03A70400 		lw	a4,0(s1)
 138              		.loc 1 39 23
 139 00f4 BBE7E702 		remw	a5,a5,a4
 140              		.loc 1 39 10
 141 00f8 23AAF400 		sw	a5,20(s1)
  40:test/buffer.cpp ****     sem_signal(mutexTail);
 142              		.loc 1 40 5 is_stmt 1
 143              		.loc 1 40 15 is_stmt 0
 144 00fc 03B50403 		ld	a0,48(s1)
 145 0100 97000000 		call	_Z10sem_signalP4_sem@plt
 145      E7800000 
 146              	.LVL12:
  41:test/buffer.cpp **** 
  42:test/buffer.cpp ****     sem_signal(itemAvailable);
 147              		.loc 1 42 5 is_stmt 1
 148              		.loc 1 42 15 is_stmt 0
 149 0108 03B50402 		ld	a0,32(s1)
 150 010c 97000000 		call	_Z10sem_signalP4_sem@plt
 150      E7800000 
 151              	.LVL13:
  43:test/buffer.cpp **** 
  44:test/buffer.cpp **** }
 152              		.loc 1 44 1
 153 0114 83308101 		ld	ra,24(sp)
 154              		.cfi_restore 1
 155 0118 03340101 		ld	s0,16(sp)
 156              		.cfi_restore 8
 157              		.cfi_def_cfa 2, 32
 158 011c 83348100 		ld	s1,8(sp)
 159              		.cfi_restore 9
 160              	.LVL14:
 161 0120 03390100 		ld	s2,0(sp)
 162              		.cfi_restore 18
 163 0124 13010102 		addi	sp,sp,32
 164              		.cfi_def_cfa_offset 0
 165 0128 67800000 		jr	ra
 166              		.cfi_endproc
 167              	.LFE37:
 169              		.align	2
 170              		.globl	_ZN6Buffer3getEv
 172              	_ZN6Buffer3getEv:
 173              	.LFB38:
  45:test/buffer.cpp **** 
  46:test/buffer.cpp **** int Buffer::get() {
 174              		.loc 1 46 19 is_stmt 1
 175              		.cfi_startproc
 176              	.LVL15:
 177 012c 130101FE 		addi	sp,sp,-32
 178              		.cfi_def_cfa_offset 32
GAS LISTING /tmp/ccR6gy7q.s 			page 5


 179 0130 233C1100 		sd	ra,24(sp)
 180 0134 23388100 		sd	s0,16(sp)
 181 0138 23349100 		sd	s1,8(sp)
 182 013c 23302101 		sd	s2,0(sp)
 183              		.cfi_offset 1, -8
 184              		.cfi_offset 8, -16
 185              		.cfi_offset 9, -24
 186              		.cfi_offset 18, -32
 187 0140 13040102 		addi	s0,sp,32
 188              		.cfi_def_cfa 8, 0
 189 0144 93040500 		mv	s1,a0
  47:test/buffer.cpp ****     sem_wait(itemAvailable);
 190              		.loc 1 47 5
 191              		.loc 1 47 13 is_stmt 0
 192 0148 03350502 		ld	a0,32(a0)
 193              	.LVL16:
 194 014c 97000000 		call	_Z8sem_waitP4_sem@plt
 194      E7800000 
 195              	.LVL17:
  48:test/buffer.cpp **** 
  49:test/buffer.cpp ****     sem_wait(mutexHead);
 196              		.loc 1 49 5 is_stmt 1
 197              		.loc 1 49 13 is_stmt 0
 198 0154 03B58402 		ld	a0,40(s1)
 199 0158 97000000 		call	_Z8sem_waitP4_sem@plt
 199      E7800000 
 200              	.LVL18:
  50:test/buffer.cpp **** 
  51:test/buffer.cpp ****     int ret = buffer[head];
 201              		.loc 1 51 5 is_stmt 1
 202              		.loc 1 51 15 is_stmt 0
 203 0160 03B78400 		ld	a4,8(s1)
 204              		.loc 1 51 22
 205 0164 83A70401 		lw	a5,16(s1)
 206              		.loc 1 51 26
 207 0168 93962700 		slli	a3,a5,2
 208 016c 3307D700 		add	a4,a4,a3
 209              		.loc 1 51 9
 210 0170 03290700 		lw	s2,0(a4)
 211              	.LVL19:
  52:test/buffer.cpp ****     head = (head + 1) % cap;
 212              		.loc 1 52 5 is_stmt 1
 213              		.loc 1 52 18 is_stmt 0
 214 0174 9B871700 		addiw	a5,a5,1
 215              		.loc 1 52 25
 216 0178 03A70400 		lw	a4,0(s1)
 217              		.loc 1 52 23
 218 017c BBE7E702 		remw	a5,a5,a4
 219              		.loc 1 52 10
 220 0180 23A8F400 		sw	a5,16(s1)
  53:test/buffer.cpp ****     sem_signal(mutexHead);
 221              		.loc 1 53 5 is_stmt 1
 222              		.loc 1 53 15 is_stmt 0
 223 0184 03B58402 		ld	a0,40(s1)
 224 0188 97000000 		call	_Z10sem_signalP4_sem@plt
 224      E7800000 
 225              	.LVL20:
GAS LISTING /tmp/ccR6gy7q.s 			page 6


  54:test/buffer.cpp **** 
  55:test/buffer.cpp ****     sem_signal(spaceAvailable);
 226              		.loc 1 55 5 is_stmt 1
 227              		.loc 1 55 15 is_stmt 0
 228 0190 03B58401 		ld	a0,24(s1)
 229 0194 97000000 		call	_Z10sem_signalP4_sem@plt
 229      E7800000 
 230              	.LVL21:
  56:test/buffer.cpp **** 
  57:test/buffer.cpp ****     return ret;
 231              		.loc 1 57 5 is_stmt 1
  58:test/buffer.cpp **** }
 232              		.loc 1 58 1 is_stmt 0
 233 019c 13050900 		mv	a0,s2
 234 01a0 83308101 		ld	ra,24(sp)
 235              		.cfi_restore 1
 236 01a4 03340101 		ld	s0,16(sp)
 237              		.cfi_restore 8
 238              		.cfi_def_cfa 2, 32
 239 01a8 83348100 		ld	s1,8(sp)
 240              		.cfi_restore 9
 241              	.LVL22:
 242 01ac 03390100 		ld	s2,0(sp)
 243              		.cfi_restore 18
 244              	.LVL23:
 245 01b0 13010102 		addi	sp,sp,32
 246              		.cfi_def_cfa_offset 0
 247 01b4 67800000 		jr	ra
 248              		.cfi_endproc
 249              	.LFE38:
 251              		.align	2
 252              		.globl	_ZN6Buffer6getCntEv
 254              	_ZN6Buffer6getCntEv:
 255              	.LFB39:
  59:test/buffer.cpp **** 
  60:test/buffer.cpp **** int Buffer::getCnt() {
 256              		.loc 1 60 22 is_stmt 1
 257              		.cfi_startproc
 258              	.LVL24:
 259 01b8 130101FE 		addi	sp,sp,-32
 260              		.cfi_def_cfa_offset 32
 261 01bc 233C1100 		sd	ra,24(sp)
 262 01c0 23388100 		sd	s0,16(sp)
 263 01c4 23349100 		sd	s1,8(sp)
 264 01c8 23302101 		sd	s2,0(sp)
 265              		.cfi_offset 1, -8
 266              		.cfi_offset 8, -16
 267              		.cfi_offset 9, -24
 268              		.cfi_offset 18, -32
 269 01cc 13040102 		addi	s0,sp,32
 270              		.cfi_def_cfa 8, 0
 271 01d0 93040500 		mv	s1,a0
  61:test/buffer.cpp ****     int ret;
 272              		.loc 1 61 5
  62:test/buffer.cpp **** 
  63:test/buffer.cpp ****     sem_wait(mutexHead);
 273              		.loc 1 63 5
GAS LISTING /tmp/ccR6gy7q.s 			page 7


 274              		.loc 1 63 13 is_stmt 0
 275 01d4 03358502 		ld	a0,40(a0)
 276              	.LVL25:
 277 01d8 97000000 		call	_Z8sem_waitP4_sem@plt
 277      E7800000 
 278              	.LVL26:
  64:test/buffer.cpp ****     sem_wait(mutexTail);
 279              		.loc 1 64 5 is_stmt 1
 280              		.loc 1 64 13 is_stmt 0
 281 01e0 03B50403 		ld	a0,48(s1)
 282 01e4 97000000 		call	_Z8sem_waitP4_sem@plt
 282      E7800000 
 283              	.LVL27:
  65:test/buffer.cpp **** 
  66:test/buffer.cpp ****     if (tail >= head) {
 284              		.loc 1 66 5 is_stmt 1
 285              		.loc 1 66 9 is_stmt 0
 286 01ec 83A74401 		lw	a5,20(s1)
 287              		.loc 1 66 17
 288 01f0 03A90401 		lw	s2,16(s1)
 289              		.loc 1 66 5
 290 01f4 63CE2703 		blt	a5,s2,.L8
  67:test/buffer.cpp ****         ret = tail - head;
 291              		.loc 1 67 9 is_stmt 1
 292              		.loc 1 67 13 is_stmt 0
 293 01f8 3B892741 		subw	s2,a5,s2
 294              	.LVL28:
 295              	.L9:
  68:test/buffer.cpp ****     } else {
  69:test/buffer.cpp ****         ret = cap - head + tail;
  70:test/buffer.cpp ****     }
  71:test/buffer.cpp **** 
  72:test/buffer.cpp ****     sem_signal(mutexTail);
 296              		.loc 1 72 5 is_stmt 1
 297              		.loc 1 72 15 is_stmt 0
 298 01fc 03B50403 		ld	a0,48(s1)
 299 0200 97000000 		call	_Z10sem_signalP4_sem@plt
 299      E7800000 
 300              	.LVL29:
  73:test/buffer.cpp ****     sem_signal(mutexHead);
 301              		.loc 1 73 5 is_stmt 1
 302              		.loc 1 73 15 is_stmt 0
 303 0208 03B58402 		ld	a0,40(s1)
 304 020c 97000000 		call	_Z10sem_signalP4_sem@plt
 304      E7800000 
 305              	.LVL30:
  74:test/buffer.cpp **** 
  75:test/buffer.cpp ****     return ret;
 306              		.loc 1 75 5 is_stmt 1
  76:test/buffer.cpp **** }
 307              		.loc 1 76 1 is_stmt 0
 308 0214 13050900 		mv	a0,s2
 309 0218 83308101 		ld	ra,24(sp)
 310              		.cfi_remember_state
 311              		.cfi_restore 1
 312 021c 03340101 		ld	s0,16(sp)
 313              		.cfi_restore 8
GAS LISTING /tmp/ccR6gy7q.s 			page 8


 314              		.cfi_def_cfa 2, 32
 315 0220 83348100 		ld	s1,8(sp)
 316              		.cfi_restore 9
 317              	.LVL31:
 318 0224 03390100 		ld	s2,0(sp)
 319              		.cfi_restore 18
 320              	.LVL32:
 321 0228 13010102 		addi	sp,sp,32
 322              		.cfi_def_cfa_offset 0
 323 022c 67800000 		jr	ra
 324              	.LVL33:
 325              	.L8:
 326              		.cfi_restore_state
  69:test/buffer.cpp ****     }
 327              		.loc 1 69 9 is_stmt 1
  69:test/buffer.cpp ****     }
 328              		.loc 1 69 15 is_stmt 0
 329 0230 03A70400 		lw	a4,0(s1)
  69:test/buffer.cpp ****     }
 330              		.loc 1 69 19
 331 0234 3B092741 		subw	s2,a4,s2
  69:test/buffer.cpp ****     }
 332              		.loc 1 69 13
 333 0238 3B09F900 		addw	s2,s2,a5
 334 023c 6FF01FFC 		j	.L9
 335              		.cfi_endproc
 336              	.LFE39:
 338              		.section	.rodata.str1.8,"aMS",@progbits,1
 339              		.align	3
 340              	.LC0:
 341 0000 42756666 		.string	"Buffer deleted!\n"
 341      65722064 
 341      656C6574 
 341      6564210A 
 341      00
 342              		.text
 343              		.align	2
 344              		.globl	_ZN6BufferD2Ev
 346              	_ZN6BufferD2Ev:
 347              	.LFB35:
  16:test/buffer.cpp ****     putc('\n');
 348              		.loc 1 16 1 is_stmt 1
 349              		.cfi_startproc
 350              		.cfi_personality 0x9b,DW.ref.__gxx_personality_v0
 351              		.cfi_lsda 0x1b,.LLSDA35
 352              	.LVL34:
 353 0240 130101FE 		addi	sp,sp,-32
 354              		.cfi_def_cfa_offset 32
 355 0244 233C1100 		sd	ra,24(sp)
 356 0248 23388100 		sd	s0,16(sp)
 357 024c 23349100 		sd	s1,8(sp)
 358              		.cfi_offset 1, -8
 359              		.cfi_offset 8, -16
 360              		.cfi_offset 9, -24
 361 0250 13040102 		addi	s0,sp,32
 362              		.cfi_def_cfa 8, 0
 363 0254 93040500 		mv	s1,a0
GAS LISTING /tmp/ccR6gy7q.s 			page 9


 364              	.LBB3:
  17:test/buffer.cpp ****     printString("Buffer deleted!\n");
 365              		.loc 1 17 5
  17:test/buffer.cpp ****     printString("Buffer deleted!\n");
 366              		.loc 1 17 9 is_stmt 0
 367 0258 1305A000 		li	a0,10
 368              	.LVL35:
 369 025c 97000000 		call	_Z4putcc@plt
 369      E7800000 
 370              	.LVL36:
  18:test/buffer.cpp ****     while (getCnt() > 0) {
 371              		.loc 1 18 5 is_stmt 1
  18:test/buffer.cpp ****     while (getCnt() > 0) {
 372              		.loc 1 18 16 is_stmt 0
 373 0264 17050000 		lla	a0,.LC0
 373      13050500 
 374 026c 97000000 		call	_Z11printStringPKc@plt
 374      E7800000 
 375              	.LVL37:
 376              	.L13:
  19:test/buffer.cpp ****         char ch = buffer[head];
 377              		.loc 1 19 5 is_stmt 1
  19:test/buffer.cpp ****         char ch = buffer[head];
 378              		.loc 1 19 21
  19:test/buffer.cpp ****         char ch = buffer[head];
 379              		.loc 1 19 18 is_stmt 0
 380 0274 13850400 		mv	a0,s1
 381 0278 97000000 		call	_ZN6Buffer6getCntEv
 381      E7800000 
 382              	.LVL38:
  19:test/buffer.cpp ****         char ch = buffer[head];
 383              		.loc 1 19 21
 384 0280 635CA002 		blez	a0,.L12
 385              	.LBB4:
  20:test/buffer.cpp ****         putc(ch);
 386              		.loc 1 20 9 is_stmt 1
  20:test/buffer.cpp ****         putc(ch);
 387              		.loc 1 20 19 is_stmt 0
 388 0284 83B78400 		ld	a5,8(s1)
  20:test/buffer.cpp ****         putc(ch);
 389              		.loc 1 20 26
 390 0288 03A70401 		lw	a4,16(s1)
  20:test/buffer.cpp ****         putc(ch);
 391              		.loc 1 20 30
 392 028c 13172700 		slli	a4,a4,2
 393 0290 B387E700 		add	a5,a5,a4
 394              	.LVL39:
  21:test/buffer.cpp ****         head = (head + 1) % cap;
 395              		.loc 1 21 9 is_stmt 1
  21:test/buffer.cpp ****         head = (head + 1) % cap;
 396              		.loc 1 21 13 is_stmt 0
 397 0294 03C50700 		lbu	a0,0(a5)
 398 0298 97000000 		call	_Z4putcc@plt
 398      E7800000 
 399              	.LVL40:
  22:test/buffer.cpp ****     }
 400              		.loc 1 22 9 is_stmt 1
GAS LISTING /tmp/ccR6gy7q.s 			page 10


  22:test/buffer.cpp ****     }
 401              		.loc 1 22 17 is_stmt 0
 402 02a0 83A70401 		lw	a5,16(s1)
  22:test/buffer.cpp ****     }
 403              		.loc 1 22 22
 404 02a4 9B871700 		addiw	a5,a5,1
  22:test/buffer.cpp ****     }
 405              		.loc 1 22 29
 406 02a8 03A70400 		lw	a4,0(s1)
  22:test/buffer.cpp ****     }
 407              		.loc 1 22 27
 408 02ac BBE7E702 		remw	a5,a5,a4
  22:test/buffer.cpp ****     }
 409              		.loc 1 22 14
 410 02b0 23A8F400 		sw	a5,16(s1)
 411              	.LBE4:
  19:test/buffer.cpp ****         char ch = buffer[head];
 412              		.loc 1 19 5
 413 02b4 6FF01FFC 		j	.L13
 414              	.L12:
  24:test/buffer.cpp ****     putc('\n');
 415              		.loc 1 24 5 is_stmt 1
  24:test/buffer.cpp ****     putc('\n');
 416              		.loc 1 24 9 is_stmt 0
 417 02b8 13051002 		li	a0,33
 418 02bc 97000000 		call	_Z4putcc@plt
 418      E7800000 
 419              	.LVL41:
  25:test/buffer.cpp **** 
 420              		.loc 1 25 5 is_stmt 1
  25:test/buffer.cpp **** 
 421              		.loc 1 25 9 is_stmt 0
 422 02c4 1305A000 		li	a0,10
 423 02c8 97000000 		call	_Z4putcc@plt
 423      E7800000 
 424              	.LVL42:
  27:test/buffer.cpp ****     sem_close(itemAvailable);
 425              		.loc 1 27 5 is_stmt 1
  27:test/buffer.cpp ****     sem_close(itemAvailable);
 426              		.loc 1 27 13 is_stmt 0
 427 02d0 03B58400 		ld	a0,8(s1)
 428 02d4 97000000 		call	_Z8mem_freePv@plt
 428      E7800000 
 429              	.LVL43:
  28:test/buffer.cpp ****     sem_close(spaceAvailable);
 430              		.loc 1 28 5 is_stmt 1
  28:test/buffer.cpp ****     sem_close(spaceAvailable);
 431              		.loc 1 28 14 is_stmt 0
 432 02dc 03B50402 		ld	a0,32(s1)
 433 02e0 97000000 		call	_Z9sem_closeP4_sem@plt
 433      E7800000 
 434              	.LVL44:
  29:test/buffer.cpp ****     sem_close(mutexTail);
 435              		.loc 1 29 5 is_stmt 1
  29:test/buffer.cpp ****     sem_close(mutexTail);
 436              		.loc 1 29 14 is_stmt 0
 437 02e8 03B58401 		ld	a0,24(s1)
GAS LISTING /tmp/ccR6gy7q.s 			page 11


 438 02ec 97000000 		call	_Z9sem_closeP4_sem@plt
 438      E7800000 
 439              	.LVL45:
  30:test/buffer.cpp ****     sem_close(mutexHead);
 440              		.loc 1 30 5 is_stmt 1
  30:test/buffer.cpp ****     sem_close(mutexHead);
 441              		.loc 1 30 14 is_stmt 0
 442 02f4 03B50403 		ld	a0,48(s1)
 443 02f8 97000000 		call	_Z9sem_closeP4_sem@plt
 443      E7800000 
 444              	.LVL46:
  31:test/buffer.cpp **** }
 445              		.loc 1 31 5 is_stmt 1
  31:test/buffer.cpp **** }
 446              		.loc 1 31 14 is_stmt 0
 447 0300 03B58402 		ld	a0,40(s1)
 448 0304 97000000 		call	_Z9sem_closeP4_sem@plt
 448      E7800000 
 449              	.LVL47:
 450              	.LBE3:
  32:test/buffer.cpp **** 
 451              		.loc 1 32 1
 452 030c 83308101 		ld	ra,24(sp)
 453              		.cfi_restore 1
 454 0310 03340101 		ld	s0,16(sp)
 455              		.cfi_restore 8
 456              		.cfi_def_cfa 2, 32
 457 0314 83348100 		ld	s1,8(sp)
 458              		.cfi_restore 9
 459              	.LVL48:
 460 0318 13010102 		addi	sp,sp,32
 461              		.cfi_def_cfa_offset 0
 462 031c 67800000 		jr	ra
 463              		.cfi_endproc
 464              	.LFE35:
 465              		.globl	__gxx_personality_v0
 466              		.section	.gcc_except_table,"a",@progbits
 467              	.LLSDA35:
 468 0000 FF       		.byte	0xff
 469 0001 FF       		.byte	0xff
 470 0002 03       		.byte	0x3
 471 0003 00       		.byte	0
 472              		.text
 474              		.globl	_ZN6BufferD1Ev
 475              		.set	_ZN6BufferD1Ev,_ZN6BufferD2Ev
 476              	.Letext0:
 477              		.file 2 "test/../h/../lib/hw.h"
 478              		.file 3 "test/../h/syscall_c.h"
 479              		.file 4 "test/../h/tcb.hpp"
 480              		.file 5 "test/../h/_sem.hpp"
 481              		.file 6 "test/buffer.hpp"
 482              		.file 7 "test/../h/list.hpp"
 483              		.file 8 "test/printing.hpp"
 3415              		.align	3
 3418              	DW.ref.__gxx_personality_v0:
 3419 0000 00000000 		.dword	__gxx_personality_v0
 3419      00000000 
GAS LISTING /tmp/ccR6gy7q.s 			page 12


 3420              		.ident	"GCC: (Ubuntu 9.4.0-1ubuntu1~20.04) 9.4.0"
 3421              		.section	.note.GNU-stack,"",@progbits
GAS LISTING /tmp/ccR6gy7q.s 			page 13


DEFINED SYMBOLS
                            *ABS*:0000000000000000 buffer.cpp
     /tmp/ccR6gy7q.s:9      .text:0000000000000000 _ZN6BufferC2Ei
     /tmp/ccR6gy7q.s:13     .text:0000000000000000 .L0 
     /tmp/ccR6gy7q.s:15     .text:0000000000000000 .L0 
     /tmp/ccR6gy7q.s:16     .text:0000000000000004 .L0 
     /tmp/ccR6gy7q.s:21     .text:0000000000000014 .L0 
     /tmp/ccR6gy7q.s:22     .text:0000000000000014 .L0 
     /tmp/ccR6gy7q.s:23     .text:0000000000000014 .L0 
     /tmp/ccR6gy7q.s:24     .text:0000000000000014 .L0 
     /tmp/ccR6gy7q.s:26     .text:0000000000000018 .L0 
     /tmp/ccR6gy7q.s:31     .text:0000000000000020 .L0 
     /tmp/ccR6gy7q.s:35     .text:0000000000000028 .L0 
     /tmp/ccR6gy7q.s:39     .text:0000000000000034 .L0 
     /tmp/ccR6gy7q.s:40     .text:0000000000000034 .L0 
     /tmp/ccR6gy7q.s:44     .text:0000000000000040 .L0 
     /tmp/ccR6gy7q.s:46     .text:0000000000000044 .L0 
     /tmp/ccR6gy7q.s:47     .text:0000000000000044 .L0 
     /tmp/ccR6gy7q.s:52     .text:0000000000000054 .L0 
     /tmp/ccR6gy7q.s:53     .text:0000000000000054 .L0 
     /tmp/ccR6gy7q.s:58     .text:0000000000000064 .L0 
     /tmp/ccR6gy7q.s:59     .text:0000000000000064 .L0 
     /tmp/ccR6gy7q.s:64     .text:0000000000000074 .L0 
     /tmp/ccR6gy7q.s:65     .text:0000000000000074 .L0 
     /tmp/ccR6gy7q.s:71     .text:0000000000000084 .L0 
     /tmp/ccR6gy7q.s:72     .text:0000000000000088 .L0 
     /tmp/ccR6gy7q.s:74     .text:000000000000008c .L0 
     /tmp/ccR6gy7q.s:75     .text:000000000000008c .L0 
     /tmp/ccR6gy7q.s:77     .text:0000000000000090 .L0 
     /tmp/ccR6gy7q.s:80     .text:0000000000000094 .L0 
     /tmp/ccR6gy7q.s:82     .text:0000000000000098 .L0 
     /tmp/ccR6gy7q.s:84     .text:000000000000009c .L0 
     /tmp/ccR6gy7q.s:9      .text:0000000000000000 _ZN6BufferC1Ei
     /tmp/ccR6gy7q.s:92     .text:000000000000009c _ZN6Buffer3putEi
     /tmp/ccR6gy7q.s:95     .text:000000000000009c .L0 
     /tmp/ccR6gy7q.s:97     .text:000000000000009c .L0 
     /tmp/ccR6gy7q.s:98     .text:00000000000000a0 .L0 
     /tmp/ccR6gy7q.s:103    .text:00000000000000b0 .L0 
     /tmp/ccR6gy7q.s:104    .text:00000000000000b0 .L0 
     /tmp/ccR6gy7q.s:105    .text:00000000000000b0 .L0 
     /tmp/ccR6gy7q.s:106    .text:00000000000000b0 .L0 
     /tmp/ccR6gy7q.s:108    .text:00000000000000b4 .L0 
     /tmp/ccR6gy7q.s:112    .text:00000000000000bc .L0 
     /tmp/ccR6gy7q.s:113    .text:00000000000000bc .L0 
     /tmp/ccR6gy7q.s:118    .text:00000000000000c8 .L0 
     /tmp/ccR6gy7q.s:119    .text:00000000000000c8 .L0 
     /tmp/ccR6gy7q.s:123    .text:00000000000000d4 .L0 
     /tmp/ccR6gy7q.s:125    .text:00000000000000d8 .L0 
     /tmp/ccR6gy7q.s:127    .text:00000000000000dc .L0 
     /tmp/ccR6gy7q.s:130    .text:00000000000000e4 .L0 
     /tmp/ccR6gy7q.s:132    .text:00000000000000e8 .L0 
     /tmp/ccR6gy7q.s:133    .text:00000000000000e8 .L0 
     /tmp/ccR6gy7q.s:135    .text:00000000000000ec .L0 
     /tmp/ccR6gy7q.s:137    .text:00000000000000f0 .L0 
     /tmp/ccR6gy7q.s:139    .text:00000000000000f4 .L0 
     /tmp/ccR6gy7q.s:141    .text:00000000000000f8 .L0 
     /tmp/ccR6gy7q.s:143    .text:00000000000000fc .L0 
GAS LISTING /tmp/ccR6gy7q.s 			page 14


     /tmp/ccR6gy7q.s:144    .text:00000000000000fc .L0 
     /tmp/ccR6gy7q.s:148    .text:0000000000000108 .L0 
     /tmp/ccR6gy7q.s:149    .text:0000000000000108 .L0 
     /tmp/ccR6gy7q.s:153    .text:0000000000000114 .L0 
     /tmp/ccR6gy7q.s:154    .text:0000000000000118 .L0 
     /tmp/ccR6gy7q.s:156    .text:000000000000011c .L0 
     /tmp/ccR6gy7q.s:157    .text:000000000000011c .L0 
     /tmp/ccR6gy7q.s:159    .text:0000000000000120 .L0 
     /tmp/ccR6gy7q.s:162    .text:0000000000000124 .L0 
     /tmp/ccR6gy7q.s:164    .text:0000000000000128 .L0 
     /tmp/ccR6gy7q.s:166    .text:000000000000012c .L0 
     /tmp/ccR6gy7q.s:172    .text:000000000000012c _ZN6Buffer3getEv
     /tmp/ccR6gy7q.s:175    .text:000000000000012c .L0 
     /tmp/ccR6gy7q.s:177    .text:000000000000012c .L0 
     /tmp/ccR6gy7q.s:178    .text:0000000000000130 .L0 
     /tmp/ccR6gy7q.s:183    .text:0000000000000140 .L0 
     /tmp/ccR6gy7q.s:184    .text:0000000000000140 .L0 
     /tmp/ccR6gy7q.s:185    .text:0000000000000140 .L0 
     /tmp/ccR6gy7q.s:186    .text:0000000000000140 .L0 
     /tmp/ccR6gy7q.s:188    .text:0000000000000144 .L0 
     /tmp/ccR6gy7q.s:191    .text:0000000000000148 .L0 
     /tmp/ccR6gy7q.s:192    .text:0000000000000148 .L0 
     /tmp/ccR6gy7q.s:197    .text:0000000000000154 .L0 
     /tmp/ccR6gy7q.s:198    .text:0000000000000154 .L0 
     /tmp/ccR6gy7q.s:202    .text:0000000000000160 .L0 
     /tmp/ccR6gy7q.s:203    .text:0000000000000160 .L0 
     /tmp/ccR6gy7q.s:205    .text:0000000000000164 .L0 
     /tmp/ccR6gy7q.s:207    .text:0000000000000168 .L0 
     /tmp/ccR6gy7q.s:210    .text:0000000000000170 .L0 
     /tmp/ccR6gy7q.s:213    .text:0000000000000174 .L0 
     /tmp/ccR6gy7q.s:214    .text:0000000000000174 .L0 
     /tmp/ccR6gy7q.s:216    .text:0000000000000178 .L0 
     /tmp/ccR6gy7q.s:218    .text:000000000000017c .L0 
     /tmp/ccR6gy7q.s:220    .text:0000000000000180 .L0 
     /tmp/ccR6gy7q.s:222    .text:0000000000000184 .L0 
     /tmp/ccR6gy7q.s:223    .text:0000000000000184 .L0 
     /tmp/ccR6gy7q.s:227    .text:0000000000000190 .L0 
     /tmp/ccR6gy7q.s:228    .text:0000000000000190 .L0 
     /tmp/ccR6gy7q.s:232    .text:000000000000019c .L0 
     /tmp/ccR6gy7q.s:233    .text:000000000000019c .L0 
     /tmp/ccR6gy7q.s:235    .text:00000000000001a4 .L0 
     /tmp/ccR6gy7q.s:237    .text:00000000000001a8 .L0 
     /tmp/ccR6gy7q.s:238    .text:00000000000001a8 .L0 
     /tmp/ccR6gy7q.s:240    .text:00000000000001ac .L0 
     /tmp/ccR6gy7q.s:243    .text:00000000000001b0 .L0 
     /tmp/ccR6gy7q.s:246    .text:00000000000001b4 .L0 
     /tmp/ccR6gy7q.s:248    .text:00000000000001b8 .L0 
     /tmp/ccR6gy7q.s:254    .text:00000000000001b8 _ZN6Buffer6getCntEv
     /tmp/ccR6gy7q.s:257    .text:00000000000001b8 .L0 
     /tmp/ccR6gy7q.s:259    .text:00000000000001b8 .L0 
     /tmp/ccR6gy7q.s:260    .text:00000000000001bc .L0 
     /tmp/ccR6gy7q.s:265    .text:00000000000001cc .L0 
     /tmp/ccR6gy7q.s:266    .text:00000000000001cc .L0 
     /tmp/ccR6gy7q.s:267    .text:00000000000001cc .L0 
     /tmp/ccR6gy7q.s:268    .text:00000000000001cc .L0 
     /tmp/ccR6gy7q.s:270    .text:00000000000001d0 .L0 
     /tmp/ccR6gy7q.s:273    .text:00000000000001d4 .L0 
GAS LISTING /tmp/ccR6gy7q.s 			page 15


     /tmp/ccR6gy7q.s:274    .text:00000000000001d4 .L0 
     /tmp/ccR6gy7q.s:275    .text:00000000000001d4 .L0 
     /tmp/ccR6gy7q.s:280    .text:00000000000001e0 .L0 
     /tmp/ccR6gy7q.s:281    .text:00000000000001e0 .L0 
     /tmp/ccR6gy7q.s:285    .text:00000000000001ec .L0 
     /tmp/ccR6gy7q.s:286    .text:00000000000001ec .L0 
     /tmp/ccR6gy7q.s:288    .text:00000000000001f0 .L0 
     /tmp/ccR6gy7q.s:290    .text:00000000000001f4 .L0 
     /tmp/ccR6gy7q.s:292    .text:00000000000001f8 .L0 
     /tmp/ccR6gy7q.s:293    .text:00000000000001f8 .L0 
     /tmp/ccR6gy7q.s:297    .text:00000000000001fc .L0 
     /tmp/ccR6gy7q.s:298    .text:00000000000001fc .L0 
     /tmp/ccR6gy7q.s:302    .text:0000000000000208 .L0 
     /tmp/ccR6gy7q.s:303    .text:0000000000000208 .L0 
     /tmp/ccR6gy7q.s:307    .text:0000000000000214 .L0 
     /tmp/ccR6gy7q.s:308    .text:0000000000000214 .L0 
     /tmp/ccR6gy7q.s:310    .text:000000000000021c .L0 
     /tmp/ccR6gy7q.s:311    .text:000000000000021c .L0 
     /tmp/ccR6gy7q.s:313    .text:0000000000000220 .L0 
     /tmp/ccR6gy7q.s:314    .text:0000000000000220 .L0 
     /tmp/ccR6gy7q.s:316    .text:0000000000000224 .L0 
     /tmp/ccR6gy7q.s:319    .text:0000000000000228 .L0 
     /tmp/ccR6gy7q.s:322    .text:000000000000022c .L0 
     /tmp/ccR6gy7q.s:326    .text:0000000000000230 .L0 
     /tmp/ccR6gy7q.s:328    .text:0000000000000230 .L0 
     /tmp/ccR6gy7q.s:329    .text:0000000000000230 .L0 
     /tmp/ccR6gy7q.s:331    .text:0000000000000234 .L0 
     /tmp/ccR6gy7q.s:333    .text:0000000000000238 .L0 
     /tmp/ccR6gy7q.s:335    .text:0000000000000240 .L0 
     /tmp/ccR6gy7q.s:346    .text:0000000000000240 _ZN6BufferD2Ev
     /tmp/ccR6gy7q.s:349    .text:0000000000000240 .L0 
     /tmp/ccR6gy7q.s:3418   .data.rel.local.DW.ref.__gxx_personality_v0:0000000000000000 DW.ref.__gxx_personality_v0
     /tmp/ccR6gy7q.s:353    .text:0000000000000240 .L0 
     /tmp/ccR6gy7q.s:354    .text:0000000000000244 .L0 
     /tmp/ccR6gy7q.s:358    .text:0000000000000250 .L0 
     /tmp/ccR6gy7q.s:359    .text:0000000000000250 .L0 
     /tmp/ccR6gy7q.s:360    .text:0000000000000250 .L0 
     /tmp/ccR6gy7q.s:362    .text:0000000000000254 .L0 
     /tmp/ccR6gy7q.s:366    .text:0000000000000258 .L0 
     /tmp/ccR6gy7q.s:367    .text:0000000000000258 .L0 
     /tmp/ccR6gy7q.s:372    .text:0000000000000264 .L0 
     /tmp/ccR6gy7q.s:373    .text:0000000000000264 .L0 
     /tmp/ccR6gy7q.s:378    .text:0000000000000274 .L0 
     /tmp/ccR6gy7q.s:379    .text:0000000000000274 .L0 
     /tmp/ccR6gy7q.s:380    .text:0000000000000274 .L0 
     /tmp/ccR6gy7q.s:384    .text:0000000000000280 .L0 
     /tmp/ccR6gy7q.s:387    .text:0000000000000284 .L0 
     /tmp/ccR6gy7q.s:388    .text:0000000000000284 .L0 
     /tmp/ccR6gy7q.s:390    .text:0000000000000288 .L0 
     /tmp/ccR6gy7q.s:392    .text:000000000000028c .L0 
     /tmp/ccR6gy7q.s:396    .text:0000000000000294 .L0 
     /tmp/ccR6gy7q.s:397    .text:0000000000000294 .L0 
     /tmp/ccR6gy7q.s:401    .text:00000000000002a0 .L0 
     /tmp/ccR6gy7q.s:402    .text:00000000000002a0 .L0 
     /tmp/ccR6gy7q.s:404    .text:00000000000002a4 .L0 
     /tmp/ccR6gy7q.s:406    .text:00000000000002a8 .L0 
     /tmp/ccR6gy7q.s:408    .text:00000000000002ac .L0 
GAS LISTING /tmp/ccR6gy7q.s 			page 16


     /tmp/ccR6gy7q.s:410    .text:00000000000002b0 .L0 
     /tmp/ccR6gy7q.s:413    .text:00000000000002b4 .L0 
     /tmp/ccR6gy7q.s:416    .text:00000000000002b8 .L0 
     /tmp/ccR6gy7q.s:417    .text:00000000000002b8 .L0 
     /tmp/ccR6gy7q.s:421    .text:00000000000002c4 .L0 
     /tmp/ccR6gy7q.s:422    .text:00000000000002c4 .L0 
     /tmp/ccR6gy7q.s:426    .text:00000000000002d0 .L0 
     /tmp/ccR6gy7q.s:427    .text:00000000000002d0 .L0 
     /tmp/ccR6gy7q.s:431    .text:00000000000002dc .L0 
     /tmp/ccR6gy7q.s:432    .text:00000000000002dc .L0 
     /tmp/ccR6gy7q.s:436    .text:00000000000002e8 .L0 
     /tmp/ccR6gy7q.s:437    .text:00000000000002e8 .L0 
     /tmp/ccR6gy7q.s:441    .text:00000000000002f4 .L0 
     /tmp/ccR6gy7q.s:442    .text:00000000000002f4 .L0 
     /tmp/ccR6gy7q.s:446    .text:0000000000000300 .L0 
     /tmp/ccR6gy7q.s:447    .text:0000000000000300 .L0 
     /tmp/ccR6gy7q.s:452    .text:000000000000030c .L0 
     /tmp/ccR6gy7q.s:453    .text:0000000000000310 .L0 
     /tmp/ccR6gy7q.s:455    .text:0000000000000314 .L0 
     /tmp/ccR6gy7q.s:456    .text:0000000000000314 .L0 
     /tmp/ccR6gy7q.s:458    .text:0000000000000318 .L0 
     /tmp/ccR6gy7q.s:461    .text:000000000000031c .L0 
     /tmp/ccR6gy7q.s:463    .text:0000000000000320 .L0 
     /tmp/ccR6gy7q.s:346    .text:0000000000000240 _ZN6BufferD1Ev
     /tmp/ccR6gy7q.s:484    .text:0000000000000320 .L0 
     /tmp/ccR6gy7q.s:340    .rodata.str1.8:0000000000000000 .LC0
     /tmp/ccR6gy7q.s:373    .text:0000000000000264 .L0 
     /tmp/ccR6gy7q.s:325    .text:0000000000000230 .L8
     /tmp/ccR6gy7q.s:295    .text:00000000000001fc .L9
     /tmp/ccR6gy7q.s:414    .text:00000000000002b8 .L12
     /tmp/ccR6gy7q.s:376    .text:0000000000000274 .L13
     /tmp/ccR6gy7q.s:1931   .debug_abbrev:0000000000000000 .Ldebug_abbrev0
     /tmp/ccR6gy7q.s:3360   .debug_str:000000000000078a .LASF141
     /tmp/ccR6gy7q.s:3190   .debug_str:0000000000000274 .LASF142
     /tmp/ccR6gy7q.s:3184   .debug_str:000000000000023b .LASF143
     /tmp/ccR6gy7q.s:5      .text:0000000000000000 .Ltext0
     /tmp/ccR6gy7q.s:476    .text:0000000000000320 .Letext0
     /tmp/ccR6gy7q.s:3094   .debug_line:0000000000000000 .Ldebug_line0
     /tmp/ccR6gy7q.s:3268   .debug_str:00000000000004e2 .LASF0
     /tmp/ccR6gy7q.s:3288   .debug_str:0000000000000568 .LASF1
     /tmp/ccR6gy7q.s:3246   .debug_str:0000000000000447 .LASF2
     /tmp/ccR6gy7q.s:3210   .debug_str:000000000000032d .LASF4
     /tmp/ccR6gy7q.s:3336   .debug_str:00000000000006ca .LASF3
     /tmp/ccR6gy7q.s:3124   .debug_str:00000000000000b6 .LASF5
     /tmp/ccR6gy7q.s:3158   .debug_str:00000000000001a1 .LASF6
     /tmp/ccR6gy7q.s:3294   .debug_str:0000000000000595 .LASF7
     /tmp/ccR6gy7q.s:3266   .debug_str:00000000000004cf .LASF8
     /tmp/ccR6gy7q.s:3380   .debug_str:00000000000008f9 .LASF9
     /tmp/ccR6gy7q.s:3194   .debug_str:00000000000002a6 .LASF10
     /tmp/ccR6gy7q.s:3310   .debug_str:0000000000000611 .LASF11
     /tmp/ccR6gy7q.s:3364   .debug_str:0000000000000869 .LASF12
     /tmp/ccR6gy7q.s:3128   .debug_str:00000000000000ca .LASF13
     /tmp/ccR6gy7q.s:3106   .debug_str:000000000000003e .LASF14
     /tmp/ccR6gy7q.s:3136   .debug_str:000000000000010b .LASF15
     /tmp/ccR6gy7q.s:3328   .debug_str:000000000000067c .LASF16
     /tmp/ccR6gy7q.s:3150   .debug_str:0000000000000168 .LASF17
     /tmp/ccR6gy7q.s:3096   .debug_str:0000000000000000 .LASF18
GAS LISTING /tmp/ccR6gy7q.s 			page 17


     /tmp/ccR6gy7q.s:3206   .debug_str:0000000000000320 .LASF45
     /tmp/ccR6gy7q.s:3110   .debug_str:000000000000005b .LASF144
     /tmp/ccR6gy7q.s:3370   .debug_str:00000000000008a9 .LASF19
     /tmp/ccR6gy7q.s:3300   .debug_str:00000000000005cb .LASF21
     /tmp/ccR6gy7q.s:3296   .debug_str:00000000000005a8 .LASF23
     /tmp/ccR6gy7q.s:3244   .debug_str:000000000000042c .LASF25
     /tmp/ccR6gy7q.s:3248   .debug_str:0000000000000455 .LASF20
     /tmp/ccR6gy7q.s:3240   .debug_str:0000000000000402 .LASF22
     /tmp/ccR6gy7q.s:3238   .debug_str:00000000000003f5 .LASF24
     /tmp/ccR6gy7q.s:3314   .debug_str:0000000000000629 .LASF26
     /tmp/ccR6gy7q.s:3104   .debug_str:0000000000000035 .LASF27
     /tmp/ccR6gy7q.s:3112   .debug_str:0000000000000063 .LASF28
     /tmp/ccR6gy7q.s:3348   .debug_str:000000000000072b .LASF29
     /tmp/ccR6gy7q.s:3386   .debug_str:000000000000091e .LASF30
     /tmp/ccR6gy7q.s:3374   .debug_str:00000000000008bd .LASF31
     /tmp/ccR6gy7q.s:3176   .debug_str:0000000000000210 .LASF32
     /tmp/ccR6gy7q.s:3286   .debug_str:0000000000000562 .LASF33
     /tmp/ccR6gy7q.s:3346   .debug_str:0000000000000717 .LASF34
     /tmp/ccR6gy7q.s:3220   .debug_str:000000000000037c .LASF35
     /tmp/ccR6gy7q.s:3212   .debug_str:0000000000000334 .LASF36
     /tmp/ccR6gy7q.s:3322   .debug_str:0000000000000660 .LASF145
     /tmp/ccR6gy7q.s:3404   .debug_str:00000000000009e3 .LASF37
     /tmp/ccR6gy7q.s:3330   .debug_str:0000000000000692 .LASF38
     /tmp/ccR6gy7q.s:3356   .debug_str:000000000000076d .LASF40
     /tmp/ccR6gy7q.s:3174   .debug_str:0000000000000208 .LASF146
     /tmp/ccR6gy7q.s:3122   .debug_str:00000000000000a9 .LASF44
     /tmp/ccR6gy7q.s:3146   .debug_str:0000000000000146 .LASF46
     /tmp/ccR6gy7q.s:3108   .debug_str:000000000000004e .LASF39
     /tmp/ccR6gy7q.s:3390   .debug_str:0000000000000946 .LASF41
     /tmp/ccR6gy7q.s:3270   .debug_str:00000000000004ef .LASF42
     /tmp/ccR6gy7q.s:3354   .debug_str:0000000000000756 .LASF43
     /tmp/ccR6gy7q.s:3284   .debug_str:000000000000054c .LASF47
     /tmp/ccR6gy7q.s:3100   .debug_str:0000000000000011 .LASF48
     /tmp/ccR6gy7q.s:3214   .debug_str:0000000000000355 .LASF49
     /tmp/ccR6gy7q.s:3274   .debug_str:0000000000000517 .LASF50
     /tmp/ccR6gy7q.s:3218   .debug_str:0000000000000374 .LASF51
     /tmp/ccR6gy7q.s:3282   .debug_str:0000000000000542 .LASF52
     /tmp/ccR6gy7q.s:3320   .debug_str:0000000000000657 .LASF53
     /tmp/ccR6gy7q.s:3276   .debug_str:000000000000051d .LASF54
     /tmp/ccR6gy7q.s:3098   .debug_str:0000000000000009 .LASF55
     /tmp/ccR6gy7q.s:3312   .debug_str:0000000000000620 .LASF56
     /tmp/ccR6gy7q.s:3258   .debug_str:000000000000047f .LASF57
     /tmp/ccR6gy7q.s:3230   .debug_str:00000000000003cf .LASF147
     /tmp/ccR6gy7q.s:3196   .debug_str:00000000000002b4 .LASF148
     /tmp/ccR6gy7q.s:3142   .debug_str:000000000000012a .LASF149
     /tmp/ccR6gy7q.s:3368   .debug_str:000000000000087d .LASF150
     /tmp/ccR6gy7q.s:3290   .debug_str:000000000000057b .LASF58
     /tmp/ccR6gy7q.s:3216   .debug_str:000000000000035a .LASF59
     /tmp/ccR6gy7q.s:3410   .debug_str:0000000000000a41 .LASF60
     /tmp/ccR6gy7q.s:3260   .debug_str:0000000000000489 .LASF61
     /tmp/ccR6gy7q.s:3338   .debug_str:00000000000006dc .LASF151
     /tmp/ccR6gy7q.s:3228   .debug_str:00000000000003c4 .LASF62
     /tmp/ccR6gy7q.s:3202   .debug_str:00000000000002fe .LASF63
     /tmp/ccR6gy7q.s:3172   .debug_str:0000000000000202 .LASF64
     /tmp/ccR6gy7q.s:3208   .debug_str:0000000000000328 .LASF65
     /tmp/ccR6gy7q.s:3340   .debug_str:00000000000006ed .LASF66
     /tmp/ccR6gy7q.s:3114   .debug_str:000000000000007a .LASF67
GAS LISTING /tmp/ccR6gy7q.s 			page 18


     /tmp/ccR6gy7q.s:3234   .debug_str:00000000000003e5 .LASF68
     /tmp/ccR6gy7q.s:3126   .debug_str:00000000000000bd .LASF69
     /tmp/ccR6gy7q.s:3178   .debug_str:0000000000000224 .LASF70
     /tmp/ccR6gy7q.s:3324   .debug_str:0000000000000665 .LASF71
     /tmp/ccR6gy7q.s:3302   .debug_str:00000000000005db .LASF72
     /tmp/ccR6gy7q.s:3198   .debug_str:00000000000002d1 .LASF73
     /tmp/ccR6gy7q.s:3152   .debug_str:000000000000017e .LASF74
     /tmp/ccR6gy7q.s:3156   .debug_str:0000000000000190 .LASF75
     /tmp/ccR6gy7q.s:3154   .debug_str:0000000000000184 .LASF76
     /tmp/ccR6gy7q.s:3298   .debug_str:00000000000005b3 .LASF77
     /tmp/ccR6gy7q.s:3350   .debug_str:000000000000073b .LASF78
     /tmp/ccR6gy7q.s:3170   .debug_str:00000000000001fc .LASF79
     /tmp/ccR6gy7q.s:3278   .debug_str:0000000000000522 .LASF80
     /tmp/ccR6gy7q.s:3232   .debug_str:00000000000003dd .LASF81
     /tmp/ccR6gy7q.s:3402   .debug_str:00000000000009d0 .LASF82
     /tmp/ccR6gy7q.s:3166   .debug_str:00000000000001e0 .LASF83
     /tmp/ccR6gy7q.s:3396   .debug_str:00000000000009b1 .LASF84
     /tmp/ccR6gy7q.s:3326   .debug_str:0000000000000675 .LASF85
     /tmp/ccR6gy7q.s:3148   .debug_str:0000000000000163 .LASF86
     /tmp/ccR6gy7q.s:3254   .debug_str:0000000000000475 .LASF87
     /tmp/ccR6gy7q.s:3242   .debug_str:000000000000041d .LASF88
     /tmp/ccR6gy7q.s:3140   .debug_str:000000000000011c .LASF89
     /tmp/ccR6gy7q.s:3236   .debug_str:00000000000003eb .LASF90
     /tmp/ccR6gy7q.s:3378   .debug_str:00000000000008ef .LASF91
     /tmp/ccR6gy7q.s:3164   .debug_str:00000000000001d1 .LASF92
     /tmp/ccR6gy7q.s:3252   .debug_str:000000000000046d .LASF93
     /tmp/ccR6gy7q.s:3292   .debug_str:0000000000000586 .LASF94
     /tmp/ccR6gy7q.s:3408   .debug_str:0000000000000a30 .LASF152
     /tmp/ccR6gy7q.s:3334   .debug_str:00000000000006b9 .LASF153
     /tmp/ccR6gy7q.s:3120   .debug_str:00000000000000a2 .LASF95
     /tmp/ccR6gy7q.s:3226   .debug_str:00000000000003b0 .LASF96
     /tmp/ccR6gy7q.s:3352   .debug_str:0000000000000748 .LASF97
     /tmp/ccR6gy7q.s:3366   .debug_str:0000000000000878 .LASF154
     /tmp/ccR6gy7q.s:3306   .debug_str:00000000000005ec .LASF98
     /tmp/ccR6gy7q.s:3204   .debug_str:0000000000000309 .LASF99
     /tmp/ccR6gy7q.s:3200   .debug_str:00000000000002e3 .LASF100
     /tmp/ccR6gy7q.s:3400   .debug_str:00000000000009c6 .LASF155
     /tmp/ccR6gy7q.s:3362   .debug_str:000000000000084e .LASF156
     /tmp/ccR6gy7q.s:3344   .debug_str:000000000000070a .LASF101
     /tmp/ccR6gy7q.s:3394   .debug_str:000000000000098e .LASF102
     /tmp/ccR6gy7q.s:3358   .debug_str:0000000000000781 .LASF103
     /tmp/ccR6gy7q.s:3406   .debug_str:0000000000000a0f .LASF104
     /tmp/ccR6gy7q.s:3102   .debug_str:000000000000002d .LASF105
     /tmp/ccR6gy7q.s:3308   .debug_str:00000000000005f1 .LASF106
     /tmp/ccR6gy7q.s:3250   .debug_str:0000000000000461 .LASF107
     /tmp/ccR6gy7q.s:3192   .debug_str:0000000000000284 .LASF108
     /tmp/ccR6gy7q.s:3132   .debug_str:00000000000000ec .LASF109
     /tmp/ccR6gy7q.s:3272   .debug_str:00000000000004f8 .LASF110
     /tmp/ccR6gy7q.s:3372   .debug_str:00000000000008b2 .LASF111
     /tmp/ccR6gy7q.s:3332   .debug_str:0000000000000698 .LASF112
     /tmp/ccR6gy7q.s:3224   .debug_str:00000000000003a7 .LASF113
     /tmp/ccR6gy7q.s:3222   .debug_str:0000000000000389 .LASF114
     /tmp/ccR6gy7q.s:3188   .debug_str:0000000000000262 .LASF115
     /tmp/ccR6gy7q.s:3392   .debug_str:0000000000000962 .LASF116
     /tmp/ccR6gy7q.s:3162   .debug_str:00000000000001bb .LASF117
     /tmp/ccR6gy7q.s:3376   .debug_str:00000000000008c3 .LASF118
     /tmp/ccR6gy7q.s:3182   .debug_str:000000000000022e .LASF119
GAS LISTING /tmp/ccR6gy7q.s 			page 19


     /tmp/ccR6gy7q.s:3264   .debug_str:00000000000004ac .LASF120
     /tmp/ccR6gy7q.s:3180   .debug_str:0000000000000229 .LASF121
     /tmp/ccR6gy7q.s:255    .text:00000000000001b8 .LFB39
     /tmp/ccR6gy7q.s:336    .text:0000000000000240 .LFE39
     /tmp/ccR6gy7q.s:3318   .debug_str:0000000000000652 .LASF122
     /tmp/ccR6gy7q.s:2933   .debug_loc:0000000000000000 .LLST6
     /tmp/ccR6gy7q.s:2955   .debug_loc:000000000000005f .LLST7
     /tmp/ccR6gy7q.s:278    .text:00000000000001e0 .LVL26
     /tmp/ccR6gy7q.s:283    .text:00000000000001ec .LVL27
     /tmp/ccR6gy7q.s:300    .text:0000000000000208 .LVL29
     /tmp/ccR6gy7q.s:305    .text:0000000000000214 .LVL30
     /tmp/ccR6gy7q.s:173    .text:000000000000012c .LFB38
     /tmp/ccR6gy7q.s:249    .text:00000000000001b8 .LFE38
     /tmp/ccR6gy7q.s:2962   .debug_loc:0000000000000082 .LLST4
     /tmp/ccR6gy7q.s:2980   .debug_loc:00000000000000ce .LLST5
     /tmp/ccR6gy7q.s:195    .text:0000000000000154 .LVL17
     /tmp/ccR6gy7q.s:200    .text:0000000000000160 .LVL18
     /tmp/ccR6gy7q.s:225    .text:0000000000000190 .LVL20
     /tmp/ccR6gy7q.s:230    .text:000000000000019c .LVL21
     /tmp/ccR6gy7q.s:93     .text:000000000000009c .LFB37
     /tmp/ccR6gy7q.s:167    .text:000000000000012c .LFE37
     /tmp/ccR6gy7q.s:2991   .debug_loc:0000000000000104 .LLST2
     /tmp/ccR6gy7q.s:3009   .debug_loc:0000000000000150 .LLST3
     /tmp/ccR6gy7q.s:116    .text:00000000000000c8 .LVL10
     /tmp/ccR6gy7q.s:121    .text:00000000000000d4 .LVL11
     /tmp/ccR6gy7q.s:146    .text:0000000000000108 .LVL12
     /tmp/ccR6gy7q.s:151    .text:0000000000000114 .LVL13
     /tmp/ccR6gy7q.s:3116   .debug_str:0000000000000093 .LASF123
     /tmp/ccR6gy7q.s:3118   .debug_str:000000000000009d .LASF124
     /tmp/ccR6gy7q.s:3280   .debug_str:0000000000000533 .LASF125
     /tmp/ccR6gy7q.s:347    .text:0000000000000240 .LFB35
     /tmp/ccR6gy7q.s:464    .text:0000000000000320 .LFE35
     /tmp/ccR6gy7q.s:3023   .debug_loc:0000000000000189 .LLST8
     /tmp/ccR6gy7q.s:399    .text:00000000000002a0 .LVL40
     /tmp/ccR6gy7q.s:385    .text:0000000000000284 .LBB4
     /tmp/ccR6gy7q.s:411    .text:00000000000002b4 .LBE4
     /tmp/ccR6gy7q.s:3041   .debug_loc:00000000000001d5 .LLST9
     /tmp/ccR6gy7q.s:370    .text:0000000000000264 .LVL36
     /tmp/ccR6gy7q.s:375    .text:0000000000000274 .LVL37
     /tmp/ccR6gy7q.s:382    .text:0000000000000280 .LVL38
     /tmp/ccR6gy7q.s:419    .text:00000000000002c4 .LVL41
     /tmp/ccR6gy7q.s:424    .text:00000000000002d0 .LVL42
     /tmp/ccR6gy7q.s:429    .text:00000000000002dc .LVL43
     /tmp/ccR6gy7q.s:434    .text:00000000000002e8 .LVL44
     /tmp/ccR6gy7q.s:439    .text:00000000000002f4 .LVL45
     /tmp/ccR6gy7q.s:444    .text:0000000000000300 .LVL46
     /tmp/ccR6gy7q.s:449    .text:000000000000030c .LVL47
     /tmp/ccR6gy7q.s:3138   .debug_str:0000000000000117 .LASF157
     /tmp/ccR6gy7q.s:3262   .debug_str:000000000000049d .LASF126
     /tmp/ccR6gy7q.s:10     .text:0000000000000000 .LFB32
     /tmp/ccR6gy7q.s:85     .text:000000000000009c .LFE32
     /tmp/ccR6gy7q.s:3049   .debug_loc:00000000000001f9 .LLST0
     /tmp/ccR6gy7q.s:3067   .debug_loc:0000000000000245 .LLST1
     /tmp/ccR6gy7q.s:42     .text:0000000000000040 .LVL2
     /tmp/ccR6gy7q.s:50     .text:0000000000000054 .LVL3
     /tmp/ccR6gy7q.s:56     .text:0000000000000064 .LVL4
     /tmp/ccR6gy7q.s:62     .text:0000000000000074 .LVL5
GAS LISTING /tmp/ccR6gy7q.s 			page 20


     /tmp/ccR6gy7q.s:68     .text:0000000000000084 .LVL6
     /tmp/ccR6gy7q.s:3130   .debug_str:00000000000000da .LASF127
     /tmp/ccR6gy7q.s:3388   .debug_str:000000000000093d .LASF129
     /tmp/ccR6gy7q.s:3134   .debug_str:00000000000000f6 .LASF128
     /tmp/ccR6gy7q.s:3384   .debug_str:0000000000000913 .LASF130
     /tmp/ccR6gy7q.s:3186   .debug_str:0000000000000259 .LASF131
     /tmp/ccR6gy7q.s:3256   .debug_str:000000000000047a .LASF132
     /tmp/ccR6gy7q.s:3160   .debug_str:00000000000001a8 .LASF133
     /tmp/ccR6gy7q.s:3316   .debug_str:0000000000000646 .LASF134
     /tmp/ccR6gy7q.s:3398   .debug_str:00000000000009b8 .LASF135
     /tmp/ccR6gy7q.s:3168   .debug_str:00000000000001f3 .LASF136
     /tmp/ccR6gy7q.s:3342   .debug_str:00000000000006f7 .LASF137
     /tmp/ccR6gy7q.s:3304   .debug_str:00000000000005e2 .LASF138
     /tmp/ccR6gy7q.s:3144   .debug_str:0000000000000138 .LASF139
     /tmp/ccR6gy7q.s:3382   .debug_str:0000000000000909 .LASF140
     /tmp/ccR6gy7q.s:258    .text:00000000000001b8 .LVL24
     /tmp/ccR6gy7q.s:276    .text:00000000000001d8 .LVL25
     /tmp/ccR6gy7q.s:317    .text:0000000000000224 .LVL31
     /tmp/ccR6gy7q.s:324    .text:0000000000000230 .LVL33
     /tmp/ccR6gy7q.s:294    .text:00000000000001fc .LVL28
     /tmp/ccR6gy7q.s:320    .text:0000000000000228 .LVL32
     /tmp/ccR6gy7q.s:176    .text:000000000000012c .LVL15
     /tmp/ccR6gy7q.s:193    .text:000000000000014c .LVL16
     /tmp/ccR6gy7q.s:241    .text:00000000000001ac .LVL22
     /tmp/ccR6gy7q.s:211    .text:0000000000000174 .LVL19
     /tmp/ccR6gy7q.s:244    .text:00000000000001b0 .LVL23
     /tmp/ccR6gy7q.s:96     .text:000000000000009c .LVL8
     /tmp/ccR6gy7q.s:114    .text:00000000000000c0 .LVL9
     /tmp/ccR6gy7q.s:160    .text:0000000000000120 .LVL14
     /tmp/ccR6gy7q.s:352    .text:0000000000000240 .LVL34
     /tmp/ccR6gy7q.s:368    .text:000000000000025c .LVL35
     /tmp/ccR6gy7q.s:459    .text:0000000000000318 .LVL48
     /tmp/ccR6gy7q.s:394    .text:0000000000000294 .LVL39
     /tmp/ccR6gy7q.s:14     .text:0000000000000000 .LVL0
     /tmp/ccR6gy7q.s:33     .text:0000000000000028 .LVL1
     /tmp/ccR6gy7q.s:78     .text:0000000000000090 .LVL7
     /tmp/ccR6gy7q.s:485    .debug_info:0000000000000000 .Ldebug_info0
     /tmp/ccR6gy7q.s:467    .gcc_except_table:0000000000000000 .LLSDA35

UNDEFINED SYMBOLS
_Z9mem_allocm
_ZN4_sem9createSemEPPS_m
_Z8sem_waitP4_sem
_Z10sem_signalP4_sem
_Z4putcc
_Z11printStringPKc
_Z8mem_freePv
_Z9sem_closeP4_sem
__gxx_personality_v0
