GAS LISTING /tmp/ccBmC7mz.s 			page 1


   1              		.file	"userMain.cpp"
   2              		.option pic
   3              		.option norelax
   4              		.text
   5              	.Ltext0:
   6              		.section	.rodata.str1.8,"aMS",@progbits,1
   7              		.align	3
   8              	.LC0:
   9 0000 413A2069 		.string	"A: i="
   9      3D00
  10 0006 0000     		.align	3
  11              	.LC1:
  12 0008 0A00     		.string	"\n"
  13 000a 00000000 		.align	3
  13      0000
  14              	.LC2:
  15 0010 41206669 		.string	"A finished!\n"
  15      6E697368 
  15      6564210A 
  15      00
  16              		.text
  17              		.align	2
  18              		.globl	_Z11workerBodyAPv
  20              	_Z11workerBodyAPv:
  21              	.LFB1:
  22              		.file 1 "test/../test/Threads_C_API_test.hpp"
   1:test/../test/Threads_C_API_test.hpp **** #ifndef XV6_THREADS_C_API_TEST_HPP
   2:test/../test/Threads_C_API_test.hpp **** #define XV6_THREADS_C_API_TEST_HPP
   3:test/../test/Threads_C_API_test.hpp **** 
   4:test/../test/Threads_C_API_test.hpp **** #include "../h/syscall_c.h"
   5:test/../test/Threads_C_API_test.hpp **** 
   6:test/../test/Threads_C_API_test.hpp **** #include "printing.hpp"
   7:test/../test/Threads_C_API_test.hpp **** 
   8:test/../test/Threads_C_API_test.hpp **** bool finishedA = false;
   9:test/../test/Threads_C_API_test.hpp **** bool finishedB = false;
  10:test/../test/Threads_C_API_test.hpp **** bool finishedC = false;
  11:test/../test/Threads_C_API_test.hpp **** bool finishedD = false;
  12:test/../test/Threads_C_API_test.hpp **** 
  13:test/../test/Threads_C_API_test.hpp **** uint64 fibonacci(uint64 n) {
  14:test/../test/Threads_C_API_test.hpp ****     if (n == 0 || n == 1) { return n; }
  15:test/../test/Threads_C_API_test.hpp ****     if (n % 10 == 0) { thread_dispatch(); }
  16:test/../test/Threads_C_API_test.hpp ****     return fibonacci(n - 1) + fibonacci(n - 2);
  17:test/../test/Threads_C_API_test.hpp **** }
  18:test/../test/Threads_C_API_test.hpp **** 
  19:test/../test/Threads_C_API_test.hpp **** void workerBodyA(void* arg) {
  23              		.loc 1 19 29
  24              		.cfi_startproc
  25              	.LVL0:
  26 0000 130101FE 		addi	sp,sp,-32
  27              		.cfi_def_cfa_offset 32
  28 0004 233C1100 		sd	ra,24(sp)
  29 0008 23388100 		sd	s0,16(sp)
  30 000c 23349100 		sd	s1,8(sp)
  31 0010 23302101 		sd	s2,0(sp)
  32              		.cfi_offset 1, -8
  33              		.cfi_offset 8, -16
  34              		.cfi_offset 9, -24
GAS LISTING /tmp/ccBmC7mz.s 			page 2


  35              		.cfi_offset 18, -32
  36 0014 13040102 		addi	s0,sp,32
  37              		.cfi_def_cfa 8, 0
  20:test/../test/Threads_C_API_test.hpp ****     for (uint64 i = 0; i < 10; i++) {
  38              		.loc 1 20 5
  39              	.LVL1:
  40              	.LBB2:
  41              		.loc 1 20 17 is_stmt 0
  42 0018 13090000 		li	s2,0
  43 001c 6F008003 		j	.L7
  44              	.LVL2:
  45              	.L4:
  46              	.LBB3:
  47              	.LBB4:
  48              	.LBB5:
  21:test/../test/Threads_C_API_test.hpp ****         printString("A: i="); printInt(i); printString("\n");
  22:test/../test/Threads_C_API_test.hpp ****         for (uint64 j = 0; j < 10000; j++) {
  23:test/../test/Threads_C_API_test.hpp ****             for (uint64 k = 0; k < 30000; k++) { /* busy wait */ }
  24:test/../test/Threads_C_API_test.hpp ****             thread_dispatch();
  49              		.loc 1 24 13 is_stmt 1 discriminator 2
  50              		.loc 1 24 28 is_stmt 0 discriminator 2
  51 0020 97000000 		call	_Z15thread_dispatchv@plt
  51      E7800000 
  52              	.LVL3:
  53              	.LBE5:
  22:test/../test/Threads_C_API_test.hpp ****             for (uint64 k = 0; k < 30000; k++) { /* busy wait */ }
  54              		.loc 1 22 9 is_stmt 1 discriminator 2
  55 0028 93841400 		addi	s1,s1,1
  56              	.LVL4:
  57              	.L6:
  22:test/../test/Threads_C_API_test.hpp ****             for (uint64 k = 0; k < 30000; k++) { /* busy wait */ }
  58              		.loc 1 22 30 discriminator 1
  59 002c B7270000 		li	a5,8192
  60 0030 9387F770 		addi	a5,a5,1807
  61 0034 63EE9700 		bgtu	s1,a5,.L3
  62              	.LBB7:
  63              	.LBB6:
  23:test/../test/Threads_C_API_test.hpp ****             thread_dispatch();
  64              		.loc 1 23 25 is_stmt 0
  65 0038 13070000 		li	a4,0
  66              	.L5:
  67              	.LVL5:
  23:test/../test/Threads_C_API_test.hpp ****             thread_dispatch();
  68              		.loc 1 23 34 is_stmt 1 discriminator 3
  69 003c B7770000 		li	a5,28672
  70 0040 9387F752 		addi	a5,a5,1327
  71 0044 E3EEE7FC 		bgtu	a4,a5,.L4
  23:test/../test/Threads_C_API_test.hpp ****             thread_dispatch();
  72              		.loc 1 23 13 discriminator 2
  73 0048 13071700 		addi	a4,a4,1
  74              	.LVL6:
  75 004c 6FF01FFF 		j	.L5
  76              	.LVL7:
  77              	.L3:
  78              	.LBE6:
  79              	.LBE7:
  80              	.LBE4:
GAS LISTING /tmp/ccBmC7mz.s 			page 3


  81              	.LBE3:
  20:test/../test/Threads_C_API_test.hpp ****         printString("A: i="); printInt(i); printString("\n");
  82              		.loc 1 20 5 discriminator 2
  83 0050 13091900 		addi	s2,s2,1
  84              	.LVL8:
  85              	.L7:
  20:test/../test/Threads_C_API_test.hpp ****         printString("A: i="); printInt(i); printString("\n");
  86              		.loc 1 20 26 discriminator 1
  87 0054 93079000 		li	a5,9
  88 0058 63E02705 		bgtu	s2,a5,.L2
  89              	.LBB9:
  21:test/../test/Threads_C_API_test.hpp ****         for (uint64 j = 0; j < 10000; j++) {
  90              		.loc 1 21 9
  21:test/../test/Threads_C_API_test.hpp ****         for (uint64 j = 0; j < 10000; j++) {
  91              		.loc 1 21 20 is_stmt 0
  92 005c 17050000 		lla	a0,.LC0
  92      13050500 
  93 0064 97000000 		call	_Z11printStringPKc@plt
  93      E7800000 
  94              	.LVL9:
  21:test/../test/Threads_C_API_test.hpp ****         for (uint64 j = 0; j < 10000; j++) {
  95              		.loc 1 21 31 is_stmt 1
  21:test/../test/Threads_C_API_test.hpp ****         for (uint64 j = 0; j < 10000; j++) {
  96              		.loc 1 21 39 is_stmt 0
  97 006c 13060000 		li	a2,0
  98 0070 9305A000 		li	a1,10
  99 0074 1B050900 		sext.w	a0,s2
 100 0078 97000000 		call	_Z8printIntiii@plt
 100      E7800000 
 101              	.LVL10:
  21:test/../test/Threads_C_API_test.hpp ****         for (uint64 j = 0; j < 10000; j++) {
 102              		.loc 1 21 44 is_stmt 1
  21:test/../test/Threads_C_API_test.hpp ****         for (uint64 j = 0; j < 10000; j++) {
 103              		.loc 1 21 55 is_stmt 0
 104 0080 17050000 		lla	a0,.LC1
 104      13050500 
 105 0088 97000000 		call	_Z11printStringPKc@plt
 105      E7800000 
 106              	.LVL11:
  22:test/../test/Threads_C_API_test.hpp ****             for (uint64 k = 0; k < 30000; k++) { /* busy wait */ }
 107              		.loc 1 22 9 is_stmt 1
 108              	.LBB8:
  22:test/../test/Threads_C_API_test.hpp ****             for (uint64 k = 0; k < 30000; k++) { /* busy wait */ }
 109              		.loc 1 22 21 is_stmt 0
 110 0090 93040000 		li	s1,0
 111 0094 6FF09FF9 		j	.L6
 112              	.LVL12:
 113              	.L2:
 114              	.LBE8:
 115              	.LBE9:
 116              	.LBE2:
  25:test/../test/Threads_C_API_test.hpp ****         }
  26:test/../test/Threads_C_API_test.hpp ****     }
  27:test/../test/Threads_C_API_test.hpp ****     printString("A finished!\n");
 117              		.loc 1 27 5 is_stmt 1
 118              		.loc 1 27 16 is_stmt 0
 119 0098 17050000 		lla	a0,.LC2
GAS LISTING /tmp/ccBmC7mz.s 			page 4


 119      13050500 
 120 00a0 97000000 		call	_Z11printStringPKc@plt
 120      E7800000 
 121              	.LVL13:
  28:test/../test/Threads_C_API_test.hpp ****     finishedA = true;
 122              		.loc 1 28 5 is_stmt 1
 123              		.loc 1 28 15 is_stmt 0
 124 00a8 93071000 		li	a5,1
 125 00ac 17070000 		sb	a5,.LANCHOR0,a4
 125      2300F700 
  29:test/../test/Threads_C_API_test.hpp **** }
 126              		.loc 1 29 1
 127 00b4 83308101 		ld	ra,24(sp)
 128              		.cfi_restore 1
 129 00b8 03340101 		ld	s0,16(sp)
 130              		.cfi_restore 8
 131              		.cfi_def_cfa 2, 32
 132 00bc 83348100 		ld	s1,8(sp)
 133              		.cfi_restore 9
 134 00c0 03390100 		ld	s2,0(sp)
 135              		.cfi_restore 18
 136              	.LVL14:
 137 00c4 13010102 		addi	sp,sp,32
 138              		.cfi_def_cfa_offset 0
 139 00c8 67800000 		jr	ra
 140              		.cfi_endproc
 141              	.LFE1:
 143              		.section	.rodata.str1.8
 144 001d 000000   		.align	3
 145              	.LC3:
 146 0020 423A2069 		.string	"B: i="
 146      3D00
 147 0026 0000     		.align	3
 148              	.LC4:
 149 0028 42206669 		.string	"B finished!\n"
 149      6E697368 
 149      6564210A 
 149      00
 150              		.text
 151              		.align	2
 152              		.globl	_Z11workerBodyBPv
 154              	_Z11workerBodyBPv:
 155              	.LFB2:
  30:test/../test/Threads_C_API_test.hpp **** 
  31:test/../test/Threads_C_API_test.hpp **** void workerBodyB(void* arg) {
 156              		.loc 1 31 29 is_stmt 1
 157              		.cfi_startproc
 158              	.LVL15:
 159 00cc 130101FE 		addi	sp,sp,-32
 160              		.cfi_def_cfa_offset 32
 161 00d0 233C1100 		sd	ra,24(sp)
 162 00d4 23388100 		sd	s0,16(sp)
 163 00d8 23349100 		sd	s1,8(sp)
 164 00dc 23302101 		sd	s2,0(sp)
 165              		.cfi_offset 1, -8
 166              		.cfi_offset 8, -16
 167              		.cfi_offset 9, -24
GAS LISTING /tmp/ccBmC7mz.s 			page 5


 168              		.cfi_offset 18, -32
 169 00e0 13040102 		addi	s0,sp,32
 170              		.cfi_def_cfa 8, 0
  32:test/../test/Threads_C_API_test.hpp ****     for (uint64 i = 0; i < 16; i++) {
 171              		.loc 1 32 5
 172              	.LVL16:
 173              	.LBB10:
 174              		.loc 1 32 17 is_stmt 0
 175 00e4 13090000 		li	s2,0
 176 00e8 6F008003 		j	.L15
 177              	.LVL17:
 178              	.L12:
 179              	.LBB11:
 180              	.LBB12:
 181              	.LBB13:
  33:test/../test/Threads_C_API_test.hpp ****         printString("B: i="); printInt(i); printString("\n");
  34:test/../test/Threads_C_API_test.hpp ****         for (uint64 j = 0; j < 10000; j++) {
  35:test/../test/Threads_C_API_test.hpp ****             for (uint64 k = 0; k < 30000; k++) { /* busy wait */ }
  36:test/../test/Threads_C_API_test.hpp ****             thread_dispatch();
 182              		.loc 1 36 13 is_stmt 1 discriminator 2
 183              		.loc 1 36 28 is_stmt 0 discriminator 2
 184 00ec 97000000 		call	_Z15thread_dispatchv@plt
 184      E7800000 
 185              	.LVL18:
 186              	.LBE13:
  34:test/../test/Threads_C_API_test.hpp ****             for (uint64 k = 0; k < 30000; k++) { /* busy wait */ }
 187              		.loc 1 34 9 is_stmt 1 discriminator 2
 188 00f4 93841400 		addi	s1,s1,1
 189              	.LVL19:
 190              	.L14:
  34:test/../test/Threads_C_API_test.hpp ****             for (uint64 k = 0; k < 30000; k++) { /* busy wait */ }
 191              		.loc 1 34 30 discriminator 1
 192 00f8 B7270000 		li	a5,8192
 193 00fc 9387F770 		addi	a5,a5,1807
 194 0100 63EE9700 		bgtu	s1,a5,.L11
 195              	.LBB15:
 196              	.LBB14:
  35:test/../test/Threads_C_API_test.hpp ****             thread_dispatch();
 197              		.loc 1 35 25 is_stmt 0
 198 0104 13070000 		li	a4,0
 199              	.L13:
 200              	.LVL20:
  35:test/../test/Threads_C_API_test.hpp ****             thread_dispatch();
 201              		.loc 1 35 34 is_stmt 1 discriminator 3
 202 0108 B7770000 		li	a5,28672
 203 010c 9387F752 		addi	a5,a5,1327
 204 0110 E3EEE7FC 		bgtu	a4,a5,.L12
  35:test/../test/Threads_C_API_test.hpp ****             thread_dispatch();
 205              		.loc 1 35 13 discriminator 2
 206 0114 13071700 		addi	a4,a4,1
 207              	.LVL21:
 208 0118 6FF01FFF 		j	.L13
 209              	.LVL22:
 210              	.L11:
 211              	.LBE14:
 212              	.LBE15:
 213              	.LBE12:
GAS LISTING /tmp/ccBmC7mz.s 			page 6


 214              	.LBE11:
  32:test/../test/Threads_C_API_test.hpp ****         printString("B: i="); printInt(i); printString("\n");
 215              		.loc 1 32 5 discriminator 2
 216 011c 13091900 		addi	s2,s2,1
 217              	.LVL23:
 218              	.L15:
  32:test/../test/Threads_C_API_test.hpp ****         printString("B: i="); printInt(i); printString("\n");
 219              		.loc 1 32 26 discriminator 1
 220 0120 9307F000 		li	a5,15
 221 0124 63E02705 		bgtu	s2,a5,.L10
 222              	.LBB17:
  33:test/../test/Threads_C_API_test.hpp ****         for (uint64 j = 0; j < 10000; j++) {
 223              		.loc 1 33 9
  33:test/../test/Threads_C_API_test.hpp ****         for (uint64 j = 0; j < 10000; j++) {
 224              		.loc 1 33 20 is_stmt 0
 225 0128 17050000 		lla	a0,.LC3
 225      13050500 
 226 0130 97000000 		call	_Z11printStringPKc@plt
 226      E7800000 
 227              	.LVL24:
  33:test/../test/Threads_C_API_test.hpp ****         for (uint64 j = 0; j < 10000; j++) {
 228              		.loc 1 33 31 is_stmt 1
  33:test/../test/Threads_C_API_test.hpp ****         for (uint64 j = 0; j < 10000; j++) {
 229              		.loc 1 33 39 is_stmt 0
 230 0138 13060000 		li	a2,0
 231 013c 9305A000 		li	a1,10
 232 0140 1B050900 		sext.w	a0,s2
 233 0144 97000000 		call	_Z8printIntiii@plt
 233      E7800000 
 234              	.LVL25:
  33:test/../test/Threads_C_API_test.hpp ****         for (uint64 j = 0; j < 10000; j++) {
 235              		.loc 1 33 44 is_stmt 1
  33:test/../test/Threads_C_API_test.hpp ****         for (uint64 j = 0; j < 10000; j++) {
 236              		.loc 1 33 55 is_stmt 0
 237 014c 17050000 		lla	a0,.LC1
 237      13050500 
 238 0154 97000000 		call	_Z11printStringPKc@plt
 238      E7800000 
 239              	.LVL26:
  34:test/../test/Threads_C_API_test.hpp ****             for (uint64 k = 0; k < 30000; k++) { /* busy wait */ }
 240              		.loc 1 34 9 is_stmt 1
 241              	.LBB16:
  34:test/../test/Threads_C_API_test.hpp ****             for (uint64 k = 0; k < 30000; k++) { /* busy wait */ }
 242              		.loc 1 34 21 is_stmt 0
 243 015c 93040000 		li	s1,0
 244 0160 6FF09FF9 		j	.L14
 245              	.LVL27:
 246              	.L10:
 247              	.LBE16:
 248              	.LBE17:
 249              	.LBE10:
  37:test/../test/Threads_C_API_test.hpp ****         }
  38:test/../test/Threads_C_API_test.hpp ****     }
  39:test/../test/Threads_C_API_test.hpp ****     printString("B finished!\n");
 250              		.loc 1 39 5 is_stmt 1
 251              		.loc 1 39 16 is_stmt 0
 252 0164 17050000 		lla	a0,.LC4
GAS LISTING /tmp/ccBmC7mz.s 			page 7


 252      13050500 
 253 016c 97000000 		call	_Z11printStringPKc@plt
 253      E7800000 
 254              	.LVL28:
  40:test/../test/Threads_C_API_test.hpp ****     finishedB = true;
 255              		.loc 1 40 5 is_stmt 1
 256              		.loc 1 40 15 is_stmt 0
 257 0174 93071000 		li	a5,1
 258 0178 17070000 		sb	a5,.LANCHOR0+1,a4
 258      2300F700 
  41:test/../test/Threads_C_API_test.hpp ****     thread_dispatch();
 259              		.loc 1 41 5 is_stmt 1
 260              		.loc 1 41 20 is_stmt 0
 261 0180 97000000 		call	_Z15thread_dispatchv@plt
 261      E7800000 
 262              	.LVL29:
  42:test/../test/Threads_C_API_test.hpp **** }
 263              		.loc 1 42 1
 264 0188 83308101 		ld	ra,24(sp)
 265              		.cfi_restore 1
 266 018c 03340101 		ld	s0,16(sp)
 267              		.cfi_restore 8
 268              		.cfi_def_cfa 2, 32
 269 0190 83348100 		ld	s1,8(sp)
 270              		.cfi_restore 9
 271 0194 03390100 		ld	s2,0(sp)
 272              		.cfi_restore 18
 273              	.LVL30:
 274 0198 13010102 		addi	sp,sp,32
 275              		.cfi_def_cfa_offset 0
 276 019c 67800000 		jr	ra
 277              		.cfi_endproc
 278              	.LFE2:
 280              		.align	2
 281              		.globl	_Z9fibonaccim
 283              	_Z9fibonaccim:
 284              	.LFB0:
  13:test/../test/Threads_C_API_test.hpp ****     if (n == 0 || n == 1) { return n; }
 285              		.loc 1 13 28 is_stmt 1
 286              		.cfi_startproc
 287              	.LVL31:
 288 01a0 130101FE 		addi	sp,sp,-32
 289              		.cfi_def_cfa_offset 32
 290 01a4 233C1100 		sd	ra,24(sp)
 291 01a8 23388100 		sd	s0,16(sp)
 292 01ac 23349100 		sd	s1,8(sp)
 293 01b0 23302101 		sd	s2,0(sp)
 294              		.cfi_offset 1, -8
 295              		.cfi_offset 8, -16
 296              		.cfi_offset 9, -24
 297              		.cfi_offset 18, -32
 298 01b4 13040102 		addi	s0,sp,32
 299              		.cfi_def_cfa 8, 0
 300 01b8 93040500 		mv	s1,a0
  14:test/../test/Threads_C_API_test.hpp ****     if (n % 10 == 0) { thread_dispatch(); }
 301              		.loc 1 14 5
 302 01bc 93071000 		li	a5,1
GAS LISTING /tmp/ccBmC7mz.s 			page 8


 303 01c0 63F8A702 		bleu	a0,a5,.L17
  15:test/../test/Threads_C_API_test.hpp ****     return fibonacci(n - 1) + fibonacci(n - 2);
 304              		.loc 1 15 5
  15:test/../test/Threads_C_API_test.hpp ****     return fibonacci(n - 1) + fibonacci(n - 2);
 305              		.loc 1 15 11 is_stmt 0
 306 01c4 9307A000 		li	a5,10
 307 01c8 B377F502 		remu	a5,a0,a5
  15:test/../test/Threads_C_API_test.hpp ****     return fibonacci(n - 1) + fibonacci(n - 2);
 308              		.loc 1 15 5
 309 01cc 638E0702 		beqz	a5,.L22
 310              	.LVL32:
 311              	.L19:
  16:test/../test/Threads_C_API_test.hpp **** }
 312              		.loc 1 16 5 is_stmt 1
  16:test/../test/Threads_C_API_test.hpp **** }
 313              		.loc 1 16 21 is_stmt 0
 314 01d0 1385F4FF 		addi	a0,s1,-1
 315 01d4 97000000 		call	_Z9fibonaccim
 315      E7800000 
 316              	.LVL33:
 317 01dc 13090500 		mv	s2,a0
  16:test/../test/Threads_C_API_test.hpp **** }
 318              		.loc 1 16 40
 319 01e0 1385E4FF 		addi	a0,s1,-2
 320 01e4 97000000 		call	_Z9fibonaccim
 320      E7800000 
 321              	.LVL34:
  16:test/../test/Threads_C_API_test.hpp **** }
 322              		.loc 1 16 46
 323 01ec 3305A900 		add	a0,s2,a0
 324              	.L17:
  17:test/../test/Threads_C_API_test.hpp **** 
 325              		.loc 1 17 1
 326 01f0 83308101 		ld	ra,24(sp)
 327              		.cfi_remember_state
 328              		.cfi_restore 1
 329 01f4 03340101 		ld	s0,16(sp)
 330              		.cfi_restore 8
 331              		.cfi_def_cfa 2, 32
 332 01f8 83348100 		ld	s1,8(sp)
 333              		.cfi_restore 9
 334              	.LVL35:
 335 01fc 03390100 		ld	s2,0(sp)
 336              		.cfi_restore 18
 337 0200 13010102 		addi	sp,sp,32
 338              		.cfi_def_cfa_offset 0
 339 0204 67800000 		jr	ra
 340              	.LVL36:
 341              	.L22:
 342              		.cfi_restore_state
  15:test/../test/Threads_C_API_test.hpp ****     return fibonacci(n - 1) + fibonacci(n - 2);
 343              		.loc 1 15 24 is_stmt 1 discriminator 1
  15:test/../test/Threads_C_API_test.hpp ****     return fibonacci(n - 1) + fibonacci(n - 2);
 344              		.loc 1 15 39 is_stmt 0 discriminator 1
 345 0208 97000000 		call	_Z15thread_dispatchv@plt
 345      E7800000 
 346              	.LVL37:
GAS LISTING /tmp/ccBmC7mz.s 			page 9


 347 0210 6FF01FFC 		j	.L19
 348              		.cfi_endproc
 349              	.LFE0:
 351              		.section	.rodata.str1.8
 352 0035 000000   		.align	3
 353              	.LC5:
 354 0038 433A2069 		.string	"C: i="
 354      3D00
 355 003e 0000     		.align	3
 356              	.LC6:
 357 0040 433A2064 		.string	"C: dispatch\n"
 357      69737061 
 357      7463680A 
 357      00
 358 004d 000000   		.align	3
 359              	.LC7:
 360 0050 433A2074 		.string	"C: t1="
 360      313D00
 361 0057 00       		.align	3
 362              	.LC8:
 363 0058 433A2066 		.string	"C: fibonaci="
 363      69626F6E 
 363      6163693D 
 363      00
 364              		.text
 365              		.align	2
 366              		.globl	_Z11workerBodyCPv
 368              	_Z11workerBodyCPv:
 369              	.LFB3:
  43:test/../test/Threads_C_API_test.hpp **** 
  44:test/../test/Threads_C_API_test.hpp **** void workerBodyC(void* arg) {
 370              		.loc 1 44 29 is_stmt 1
 371              		.cfi_startproc
 372              	.LVL38:
 373 0214 130101FE 		addi	sp,sp,-32
 374              		.cfi_def_cfa_offset 32
 375 0218 233C1100 		sd	ra,24(sp)
 376 021c 23388100 		sd	s0,16(sp)
 377 0220 23349100 		sd	s1,8(sp)
 378 0224 23302101 		sd	s2,0(sp)
 379              		.cfi_offset 1, -8
 380              		.cfi_offset 8, -16
 381              		.cfi_offset 9, -24
 382              		.cfi_offset 18, -32
 383 0228 13040102 		addi	s0,sp,32
 384              		.cfi_def_cfa 8, 0
  45:test/../test/Threads_C_API_test.hpp ****     uint8 i = 0;
 385              		.loc 1 45 5
 386              	.LVL39:
 387              		.loc 1 45 11 is_stmt 0
 388 022c 93040000 		li	s1,0
 389 0230 6F000004 		j	.L25
 390              	.LVL40:
 391              	.L29:
  46:test/../test/Threads_C_API_test.hpp ****     for (; i < 3; i++) {
  47:test/../test/Threads_C_API_test.hpp ****         printString("C: i="); printInt(i); printString("\n");
 392              		.loc 1 47 9 is_stmt 1 discriminator 1
GAS LISTING /tmp/ccBmC7mz.s 			page 10


 393              		.loc 1 47 20 is_stmt 0 discriminator 1
 394 0234 17050000 		lla	a0,.LC5
 394      13050500 
 395 023c 97000000 		call	_Z11printStringPKc@plt
 395      E7800000 
 396              	.LVL41:
 397              		.loc 1 47 31 is_stmt 1 discriminator 1
 398              		.loc 1 47 39 is_stmt 0 discriminator 1
 399 0244 13060000 		li	a2,0
 400 0248 9305A000 		li	a1,10
 401 024c 13850400 		mv	a0,s1
 402 0250 97000000 		call	_Z8printIntiii@plt
 402      E7800000 
 403              	.LVL42:
 404              		.loc 1 47 44 is_stmt 1 discriminator 1
 405              		.loc 1 47 55 is_stmt 0 discriminator 1
 406 0258 17050000 		lla	a0,.LC1
 406      13050500 
 407 0260 97000000 		call	_Z11printStringPKc@plt
 407      E7800000 
 408              	.LVL43:
  46:test/../test/Threads_C_API_test.hpp ****     for (; i < 3; i++) {
 409              		.loc 1 46 5 is_stmt 1 discriminator 1
 410 0268 9B841400 		addiw	s1,s1,1
 411              	.LVL44:
 412 026c 93F4F40F 		andi	s1,s1,0xff
 413              	.LVL45:
 414              	.L25:
  46:test/../test/Threads_C_API_test.hpp ****     for (; i < 3; i++) {
 415              		.loc 1 46 5 discriminator 2
  46:test/../test/Threads_C_API_test.hpp ****     for (; i < 3; i++) {
 416              		.loc 1 46 14 discriminator 2
 417 0270 93072000 		li	a5,2
 418 0274 E3F097FC 		bleu	s1,a5,.L29
  48:test/../test/Threads_C_API_test.hpp ****     }
  49:test/../test/Threads_C_API_test.hpp **** 
  50:test/../test/Threads_C_API_test.hpp ****     printString("C: dispatch\n");
 419              		.loc 1 50 5
 420              		.loc 1 50 16 is_stmt 0
 421 0278 17050000 		lla	a0,.LC6
 421      13050500 
 422 0280 97000000 		call	_Z11printStringPKc@plt
 422      E7800000 
 423              	.LVL46:
  51:test/../test/Threads_C_API_test.hpp ****     __asm__ ("li t1, 7");
 424              		.loc 1 51 5 is_stmt 1
 425              		.loc 1 51 25 is_stmt 0
 426              	#APP
 427              	# 51 "test/../test/Threads_C_API_test.hpp" 1
  52              	    thread_dispatch();
 428              		li t1, 7
 429              	# 0 "" 2
 430              		.loc 1 52 5 is_stmt 1
 431              		.loc 1 52 20 is_stmt 0
 432              	#NO_APP
 433 028c 97000000 		call	_Z15thread_dispatchv@plt
 433      E7800000 
GAS LISTING /tmp/ccBmC7mz.s 			page 11


 434              	.LVL47:
  53:test/../test/Threads_C_API_test.hpp **** 
  54:test/../test/Threads_C_API_test.hpp ****     uint64 t1 = 0;
 435              		.loc 1 54 5 is_stmt 1
  55:test/../test/Threads_C_API_test.hpp ****     __asm__ ("mv %[t1], t1" : [t1] "=r"(t1));
 436              		.loc 1 55 5
 437              		.loc 1 55 45 is_stmt 0
 438              	#APP
 439              	# 55 "test/../test/Threads_C_API_test.hpp" 1
  56              	
 440              		mv s2, t1
 441              	# 0 "" 2
 442              	.LVL48:
  57:test/../test/Threads_C_API_test.hpp ****     printString("C: t1="); printInt(t1); printString("\n");
 443              		.loc 1 57 5 is_stmt 1
 444              		.loc 1 57 16 is_stmt 0
 445              	#NO_APP
 446 0298 17050000 		lla	a0,.LC7
 446      13050500 
 447 02a0 97000000 		call	_Z11printStringPKc@plt
 447      E7800000 
 448              	.LVL49:
 449              		.loc 1 57 28 is_stmt 1
 450              		.loc 1 57 36 is_stmt 0
 451 02a8 13060000 		li	a2,0
 452 02ac 9305A000 		li	a1,10
 453 02b0 1B050900 		sext.w	a0,s2
 454 02b4 97000000 		call	_Z8printIntiii@plt
 454      E7800000 
 455              	.LVL50:
 456              		.loc 1 57 42 is_stmt 1
 457              		.loc 1 57 53 is_stmt 0
 458 02bc 17050000 		lla	a0,.LC1
 458      13050500 
 459 02c4 97000000 		call	_Z11printStringPKc@plt
 459      E7800000 
 460              	.LVL51:
  58:test/../test/Threads_C_API_test.hpp **** 
  59:test/../test/Threads_C_API_test.hpp ****     uint64 result = fibonacci(12);
 461              		.loc 1 59 5 is_stmt 1
 462              		.loc 1 59 30 is_stmt 0
 463 02cc 1305C000 		li	a0,12
 464 02d0 97000000 		call	_Z9fibonaccim
 464      E7800000 
 465              	.LVL52:
 466 02d8 13090500 		mv	s2,a0
 467              	.LVL53:
  60:test/../test/Threads_C_API_test.hpp ****     printString("C: fibonaci="); printInt(result); printString("\n");
 468              		.loc 1 60 5 is_stmt 1
 469              		.loc 1 60 16 is_stmt 0
 470 02dc 17050000 		lla	a0,.LC8
 470      13050500 
 471              	.LVL54:
 472 02e4 97000000 		call	_Z11printStringPKc@plt
 472      E7800000 
 473              	.LVL55:
 474              		.loc 1 60 34 is_stmt 1
GAS LISTING /tmp/ccBmC7mz.s 			page 12


 475              		.loc 1 60 42 is_stmt 0
 476 02ec 13060000 		li	a2,0
 477 02f0 9305A000 		li	a1,10
 478 02f4 1B050900 		sext.w	a0,s2
 479 02f8 97000000 		call	_Z8printIntiii@plt
 479      E7800000 
 480              	.LVL56:
 481              		.loc 1 60 52 is_stmt 1
 482              		.loc 1 60 63 is_stmt 0
 483 0300 17050000 		lla	a0,.LC1
 483      13050500 
 484 0308 97000000 		call	_Z11printStringPKc@plt
 484      E7800000 
 485              	.LVL57:
 486 0310 6F000004 		j	.L27
 487              	.L30:
  61:test/../test/Threads_C_API_test.hpp **** 
  62:test/../test/Threads_C_API_test.hpp ****     for (; i < 6; i++) {
  63:test/../test/Threads_C_API_test.hpp ****         printString("C: i="); printInt(i); printString("\n");
 488              		.loc 1 63 9 is_stmt 1 discriminator 1
 489              		.loc 1 63 20 is_stmt 0 discriminator 1
 490 0314 17050000 		lla	a0,.LC5
 490      13050500 
 491 031c 97000000 		call	_Z11printStringPKc@plt
 491      E7800000 
 492              	.LVL58:
 493              		.loc 1 63 31 is_stmt 1 discriminator 1
 494              		.loc 1 63 39 is_stmt 0 discriminator 1
 495 0324 13060000 		li	a2,0
 496 0328 9305A000 		li	a1,10
 497 032c 13850400 		mv	a0,s1
 498 0330 97000000 		call	_Z8printIntiii@plt
 498      E7800000 
 499              	.LVL59:
 500              		.loc 1 63 44 is_stmt 1 discriminator 1
 501              		.loc 1 63 55 is_stmt 0 discriminator 1
 502 0338 17050000 		lla	a0,.LC1
 502      13050500 
 503 0340 97000000 		call	_Z11printStringPKc@plt
 503      E7800000 
 504              	.LVL60:
  62:test/../test/Threads_C_API_test.hpp ****         printString("C: i="); printInt(i); printString("\n");
 505              		.loc 1 62 5 is_stmt 1 discriminator 1
 506 0348 9B841400 		addiw	s1,s1,1
 507              	.LVL61:
 508 034c 93F4F40F 		andi	s1,s1,0xff
 509              	.LVL62:
 510              	.L27:
  62:test/../test/Threads_C_API_test.hpp ****         printString("C: i="); printInt(i); printString("\n");
 511              		.loc 1 62 5 discriminator 2
  62:test/../test/Threads_C_API_test.hpp ****         printString("C: i="); printInt(i); printString("\n");
 512              		.loc 1 62 14 discriminator 2
 513 0350 93075000 		li	a5,5
 514 0354 E3F097FC 		bleu	s1,a5,.L30
  64:test/../test/Threads_C_API_test.hpp ****     }
  65:test/../test/Threads_C_API_test.hpp **** 
  66:test/../test/Threads_C_API_test.hpp ****     printString("A finished!\n");
GAS LISTING /tmp/ccBmC7mz.s 			page 13


 515              		.loc 1 66 5
 516              		.loc 1 66 16 is_stmt 0
 517 0358 17050000 		lla	a0,.LC2
 517      13050500 
 518 0360 97000000 		call	_Z11printStringPKc@plt
 518      E7800000 
 519              	.LVL63:
  67:test/../test/Threads_C_API_test.hpp ****     finishedC = true;
 520              		.loc 1 67 5 is_stmt 1
 521              		.loc 1 67 15 is_stmt 0
 522 0368 93071000 		li	a5,1
 523 036c 17070000 		sb	a5,.LANCHOR0+2,a4
 523      2300F700 
  68:test/../test/Threads_C_API_test.hpp ****     thread_dispatch();
 524              		.loc 1 68 5 is_stmt 1
 525              		.loc 1 68 20 is_stmt 0
 526 0374 97000000 		call	_Z15thread_dispatchv@plt
 526      E7800000 
 527              	.LVL64:
  69:test/../test/Threads_C_API_test.hpp **** }
 528              		.loc 1 69 1
 529 037c 83308101 		ld	ra,24(sp)
 530              		.cfi_restore 1
 531 0380 03340101 		ld	s0,16(sp)
 532              		.cfi_restore 8
 533              		.cfi_def_cfa 2, 32
 534 0384 83348100 		ld	s1,8(sp)
 535              		.cfi_restore 9
 536              	.LVL65:
 537 0388 03390100 		ld	s2,0(sp)
 538              		.cfi_restore 18
 539              	.LVL66:
 540 038c 13010102 		addi	sp,sp,32
 541              		.cfi_def_cfa_offset 0
 542 0390 67800000 		jr	ra
 543              		.cfi_endproc
 544              	.LFE3:
 546              		.section	.rodata.str1.8
 547 0065 000000   		.align	3
 548              	.LC9:
 549 0068 443A2069 		.string	"D: i="
 549      3D00
 550 006e 0000     		.align	3
 551              	.LC10:
 552 0070 443A2064 		.string	"D: dispatch\n"
 552      69737061 
 552      7463680A 
 552      00
 553 007d 000000   		.align	3
 554              	.LC11:
 555 0080 443A2066 		.string	"D: fibonaci="
 555      69626F6E 
 555      6163693D 
 555      00
 556 008d 000000   		.align	3
 557              	.LC12:
 558 0090 44206669 		.string	"D finished!\n"
GAS LISTING /tmp/ccBmC7mz.s 			page 14


 558      6E697368 
 558      6564210A 
 558      00
 559              		.text
 560              		.align	2
 561              		.globl	_Z11workerBodyDPv
 563              	_Z11workerBodyDPv:
 564              	.LFB4:
  70:test/../test/Threads_C_API_test.hpp **** 
  71:test/../test/Threads_C_API_test.hpp **** void workerBodyD(void* arg) {
 565              		.loc 1 71 29 is_stmt 1
 566              		.cfi_startproc
 567              	.LVL67:
 568 0394 130101FE 		addi	sp,sp,-32
 569              		.cfi_def_cfa_offset 32
 570 0398 233C1100 		sd	ra,24(sp)
 571 039c 23388100 		sd	s0,16(sp)
 572 03a0 23349100 		sd	s1,8(sp)
 573 03a4 23302101 		sd	s2,0(sp)
 574              		.cfi_offset 1, -8
 575              		.cfi_offset 8, -16
 576              		.cfi_offset 9, -24
 577              		.cfi_offset 18, -32
 578 03a8 13040102 		addi	s0,sp,32
 579              		.cfi_def_cfa 8, 0
  72:test/../test/Threads_C_API_test.hpp ****     uint8 i = 10;
 580              		.loc 1 72 5
 581              	.LVL68:
 582              		.loc 1 72 11 is_stmt 0
 583 03ac 9304A000 		li	s1,10
 584 03b0 6F000004 		j	.L33
 585              	.LVL69:
 586              	.L37:
  73:test/../test/Threads_C_API_test.hpp ****     for (; i < 13; i++) {
  74:test/../test/Threads_C_API_test.hpp ****         printString("D: i="); printInt(i); printString("\n");
 587              		.loc 1 74 9 is_stmt 1 discriminator 1
 588              		.loc 1 74 20 is_stmt 0 discriminator 1
 589 03b4 17050000 		lla	a0,.LC9
 589      13050500 
 590 03bc 97000000 		call	_Z11printStringPKc@plt
 590      E7800000 
 591              	.LVL70:
 592              		.loc 1 74 31 is_stmt 1 discriminator 1
 593              		.loc 1 74 39 is_stmt 0 discriminator 1
 594 03c4 13060000 		li	a2,0
 595 03c8 9305A000 		li	a1,10
 596 03cc 13850400 		mv	a0,s1
 597 03d0 97000000 		call	_Z8printIntiii@plt
 597      E7800000 
 598              	.LVL71:
 599              		.loc 1 74 44 is_stmt 1 discriminator 1
 600              		.loc 1 74 55 is_stmt 0 discriminator 1
 601 03d8 17050000 		lla	a0,.LC1
 601      13050500 
 602 03e0 97000000 		call	_Z11printStringPKc@plt
 602      E7800000 
 603              	.LVL72:
GAS LISTING /tmp/ccBmC7mz.s 			page 15


  73:test/../test/Threads_C_API_test.hpp ****     for (; i < 13; i++) {
 604              		.loc 1 73 5 is_stmt 1 discriminator 1
 605 03e8 9B841400 		addiw	s1,s1,1
 606              	.LVL73:
 607 03ec 93F4F40F 		andi	s1,s1,0xff
 608              	.LVL74:
 609              	.L33:
  73:test/../test/Threads_C_API_test.hpp ****     for (; i < 13; i++) {
 610              		.loc 1 73 5 discriminator 2
  73:test/../test/Threads_C_API_test.hpp ****     for (; i < 13; i++) {
 611              		.loc 1 73 14 discriminator 2
 612 03f0 9307C000 		li	a5,12
 613 03f4 E3F097FC 		bleu	s1,a5,.L37
  75:test/../test/Threads_C_API_test.hpp ****     }
  76:test/../test/Threads_C_API_test.hpp **** 
  77:test/../test/Threads_C_API_test.hpp ****     printString("D: dispatch\n");
 614              		.loc 1 77 5
 615              		.loc 1 77 16 is_stmt 0
 616 03f8 17050000 		lla	a0,.LC10
 616      13050500 
 617 0400 97000000 		call	_Z11printStringPKc@plt
 617      E7800000 
 618              	.LVL75:
  78:test/../test/Threads_C_API_test.hpp ****     __asm__ ("li t1, 5");
 619              		.loc 1 78 5 is_stmt 1
 620              		.loc 1 78 25 is_stmt 0
 621              	#APP
 622              	# 78 "test/../test/Threads_C_API_test.hpp" 1
  79              	    thread_dispatch();
 623              		li t1, 5
 624              	# 0 "" 2
 625              		.loc 1 79 5 is_stmt 1
 626              		.loc 1 79 20 is_stmt 0
 627              	#NO_APP
 628 040c 97000000 		call	_Z15thread_dispatchv@plt
 628      E7800000 
 629              	.LVL76:
  80:test/../test/Threads_C_API_test.hpp **** 
  81:test/../test/Threads_C_API_test.hpp ****     uint64 result = fibonacci(16);
 630              		.loc 1 81 5 is_stmt 1
 631              		.loc 1 81 30 is_stmt 0
 632 0414 13050001 		li	a0,16
 633 0418 97000000 		call	_Z9fibonaccim
 633      E7800000 
 634              	.LVL77:
 635 0420 13090500 		mv	s2,a0
 636              	.LVL78:
  82:test/../test/Threads_C_API_test.hpp ****     printString("D: fibonaci="); printInt(result); printString("\n");
 637              		.loc 1 82 5 is_stmt 1
 638              		.loc 1 82 16 is_stmt 0
 639 0424 17050000 		lla	a0,.LC11
 639      13050500 
 640              	.LVL79:
 641 042c 97000000 		call	_Z11printStringPKc@plt
 641      E7800000 
 642              	.LVL80:
 643              		.loc 1 82 34 is_stmt 1
GAS LISTING /tmp/ccBmC7mz.s 			page 16


 644              		.loc 1 82 42 is_stmt 0
 645 0434 13060000 		li	a2,0
 646 0438 9305A000 		li	a1,10
 647 043c 1B050900 		sext.w	a0,s2
 648 0440 97000000 		call	_Z8printIntiii@plt
 648      E7800000 
 649              	.LVL81:
 650              		.loc 1 82 52 is_stmt 1
 651              		.loc 1 82 63 is_stmt 0
 652 0448 17050000 		lla	a0,.LC1
 652      13050500 
 653 0450 97000000 		call	_Z11printStringPKc@plt
 653      E7800000 
 654              	.LVL82:
 655 0458 6F000004 		j	.L35
 656              	.L38:
  83:test/../test/Threads_C_API_test.hpp **** 
  84:test/../test/Threads_C_API_test.hpp ****     for (; i < 16; i++) {
  85:test/../test/Threads_C_API_test.hpp ****         printString("D: i="); printInt(i); printString("\n");
 657              		.loc 1 85 9 is_stmt 1 discriminator 1
 658              		.loc 1 85 20 is_stmt 0 discriminator 1
 659 045c 17050000 		lla	a0,.LC9
 659      13050500 
 660 0464 97000000 		call	_Z11printStringPKc@plt
 660      E7800000 
 661              	.LVL83:
 662              		.loc 1 85 31 is_stmt 1 discriminator 1
 663              		.loc 1 85 39 is_stmt 0 discriminator 1
 664 046c 13060000 		li	a2,0
 665 0470 9305A000 		li	a1,10
 666 0474 13850400 		mv	a0,s1
 667 0478 97000000 		call	_Z8printIntiii@plt
 667      E7800000 
 668              	.LVL84:
 669              		.loc 1 85 44 is_stmt 1 discriminator 1
 670              		.loc 1 85 55 is_stmt 0 discriminator 1
 671 0480 17050000 		lla	a0,.LC1
 671      13050500 
 672 0488 97000000 		call	_Z11printStringPKc@plt
 672      E7800000 
 673              	.LVL85:
  84:test/../test/Threads_C_API_test.hpp ****         printString("D: i="); printInt(i); printString("\n");
 674              		.loc 1 84 5 is_stmt 1 discriminator 1
 675 0490 9B841400 		addiw	s1,s1,1
 676              	.LVL86:
 677 0494 93F4F40F 		andi	s1,s1,0xff
 678              	.LVL87:
 679              	.L35:
  84:test/../test/Threads_C_API_test.hpp ****         printString("D: i="); printInt(i); printString("\n");
 680              		.loc 1 84 5 discriminator 2
  84:test/../test/Threads_C_API_test.hpp ****         printString("D: i="); printInt(i); printString("\n");
 681              		.loc 1 84 14 discriminator 2
 682 0498 9307F000 		li	a5,15
 683 049c E3F097FC 		bleu	s1,a5,.L38
  86:test/../test/Threads_C_API_test.hpp ****     }
  87:test/../test/Threads_C_API_test.hpp **** 
  88:test/../test/Threads_C_API_test.hpp ****     printString("D finished!\n");
GAS LISTING /tmp/ccBmC7mz.s 			page 17


 684              		.loc 1 88 5
 685              		.loc 1 88 16 is_stmt 0
 686 04a0 17050000 		lla	a0,.LC12
 686      13050500 
 687 04a8 97000000 		call	_Z11printStringPKc@plt
 687      E7800000 
 688              	.LVL88:
  89:test/../test/Threads_C_API_test.hpp ****     finishedD = true;
 689              		.loc 1 89 5 is_stmt 1
 690              		.loc 1 89 15 is_stmt 0
 691 04b0 93071000 		li	a5,1
 692 04b4 17070000 		sb	a5,.LANCHOR0+3,a4
 692      2300F700 
  90:test/../test/Threads_C_API_test.hpp ****     thread_dispatch();
 693              		.loc 1 90 5 is_stmt 1
 694              		.loc 1 90 20 is_stmt 0
 695 04bc 97000000 		call	_Z15thread_dispatchv@plt
 695      E7800000 
 696              	.LVL89:
  91:test/../test/Threads_C_API_test.hpp **** }
 697              		.loc 1 91 1
 698 04c4 83308101 		ld	ra,24(sp)
 699              		.cfi_restore 1
 700 04c8 03340101 		ld	s0,16(sp)
 701              		.cfi_restore 8
 702              		.cfi_def_cfa 2, 32
 703 04cc 83348100 		ld	s1,8(sp)
 704              		.cfi_restore 9
 705              	.LVL90:
 706 04d0 03390100 		ld	s2,0(sp)
 707              		.cfi_restore 18
 708              	.LVL91:
 709 04d4 13010102 		addi	sp,sp,32
 710              		.cfi_def_cfa_offset 0
 711 04d8 67800000 		jr	ra
 712              		.cfi_endproc
 713              	.LFE4:
 715              		.section	.rodata.str1.8
 716 009d 000000   		.align	3
 717              	.LC13:
 718 00a0 54687265 		.string	"ThreadA created\n"
 718      61644120 
 718      63726561 
 718      7465640A 
 718      00
 719 00b1 00000000 		.align	3
 719      000000
 720              	.LC14:
 721 00b8 54687265 		.string	"ThreadB created\n"
 721      61644220 
 721      63726561 
 721      7465640A 
 721      00
 722 00c9 00000000 		.align	3
 722      000000
 723              	.LC15:
 724 00d0 54687265 		.string	"ThreadC created\n"
GAS LISTING /tmp/ccBmC7mz.s 			page 18


 724      61644320 
 724      63726561 
 724      7465640A 
 724      00
 725 00e1 00000000 		.align	3
 725      000000
 726              	.LC16:
 727 00e8 54687265 		.string	"ThreadD created\n"
 727      61644420 
 727      63726561 
 727      7465640A 
 727      00
 728              		.text
 729              		.align	2
 730              		.globl	_Z18Threads_C_API_testv
 732              	_Z18Threads_C_API_testv:
 733              	.LFB5:
  92:test/../test/Threads_C_API_test.hpp **** 
  93:test/../test/Threads_C_API_test.hpp **** 
  94:test/../test/Threads_C_API_test.hpp **** void Threads_C_API_test() {
 734              		.loc 1 94 27 is_stmt 1
 735              		.cfi_startproc
 736 04dc 130101FD 		addi	sp,sp,-48
 737              		.cfi_def_cfa_offset 48
 738 04e0 23341102 		sd	ra,40(sp)
 739 04e4 23308102 		sd	s0,32(sp)
 740              		.cfi_offset 1, -8
 741              		.cfi_offset 8, -16
 742 04e8 13040103 		addi	s0,sp,48
 743              		.cfi_def_cfa 8, 0
  95:test/../test/Threads_C_API_test.hpp ****     thread_t threads[4];
 744              		.loc 1 95 5
  96:test/../test/Threads_C_API_test.hpp ****     thread_create(&threads[0], workerBodyA, nullptr);
 745              		.loc 1 96 5
 746              		.loc 1 96 18 is_stmt 0
 747 04ec 13060000 		li	a2,0
 748 04f0 97050000 		lla	a1,_Z11workerBodyAPv
 748      93850500 
 749 04f8 130504FD 		addi	a0,s0,-48
 750 04fc 97000000 		call	_Z13thread_createPP7_threadPFvPvES2_@plt
 750      E7800000 
 751              	.LVL92:
  97:test/../test/Threads_C_API_test.hpp ****     printString("ThreadA created\n");
 752              		.loc 1 97 5 is_stmt 1
 753              		.loc 1 97 16 is_stmt 0
 754 0504 17050000 		lla	a0,.LC13
 754      13050500 
 755 050c 97000000 		call	_Z11printStringPKc@plt
 755      E7800000 
 756              	.LVL93:
  98:test/../test/Threads_C_API_test.hpp **** 
  99:test/../test/Threads_C_API_test.hpp ****     thread_create(&threads[1], workerBodyB, nullptr);
 757              		.loc 1 99 5 is_stmt 1
 758              		.loc 1 99 18 is_stmt 0
 759 0514 13060000 		li	a2,0
 760 0518 97050000 		lla	a1,_Z11workerBodyBPv
 760      93850500 
GAS LISTING /tmp/ccBmC7mz.s 			page 19


 761 0520 130584FD 		addi	a0,s0,-40
 762 0524 97000000 		call	_Z13thread_createPP7_threadPFvPvES2_@plt
 762      E7800000 
 763              	.LVL94:
 100:test/../test/Threads_C_API_test.hpp ****     printString("ThreadB created\n");
 764              		.loc 1 100 5 is_stmt 1
 765              		.loc 1 100 16 is_stmt 0
 766 052c 17050000 		lla	a0,.LC14
 766      13050500 
 767 0534 97000000 		call	_Z11printStringPKc@plt
 767      E7800000 
 768              	.LVL95:
 101:test/../test/Threads_C_API_test.hpp **** 
 102:test/../test/Threads_C_API_test.hpp ****     thread_create(&threads[2], workerBodyC, nullptr);
 769              		.loc 1 102 5 is_stmt 1
 770              		.loc 1 102 18 is_stmt 0
 771 053c 13060000 		li	a2,0
 772 0540 97050000 		lla	a1,_Z11workerBodyCPv
 772      93850500 
 773 0548 130504FE 		addi	a0,s0,-32
 774 054c 97000000 		call	_Z13thread_createPP7_threadPFvPvES2_@plt
 774      E7800000 
 775              	.LVL96:
 103:test/../test/Threads_C_API_test.hpp ****     printString("ThreadC created\n");
 776              		.loc 1 103 5 is_stmt 1
 777              		.loc 1 103 16 is_stmt 0
 778 0554 17050000 		lla	a0,.LC15
 778      13050500 
 779 055c 97000000 		call	_Z11printStringPKc@plt
 779      E7800000 
 780              	.LVL97:
 104:test/../test/Threads_C_API_test.hpp **** 
 105:test/../test/Threads_C_API_test.hpp ****     thread_create(&threads[3], workerBodyD, nullptr);
 781              		.loc 1 105 5 is_stmt 1
 782              		.loc 1 105 18 is_stmt 0
 783 0564 13060000 		li	a2,0
 784 0568 97050000 		lla	a1,_Z11workerBodyDPv
 784      93850500 
 785 0570 130584FE 		addi	a0,s0,-24
 786 0574 97000000 		call	_Z13thread_createPP7_threadPFvPvES2_@plt
 786      E7800000 
 787              	.LVL98:
 106:test/../test/Threads_C_API_test.hpp ****     printString("ThreadD created\n");
 788              		.loc 1 106 5 is_stmt 1
 789              		.loc 1 106 16 is_stmt 0
 790 057c 17050000 		lla	a0,.LC16
 790      13050500 
 791 0584 97000000 		call	_Z11printStringPKc@plt
 791      E7800000 
 792              	.LVL99:
 793 058c 6F00C000 		j	.L42
 794              	.L40:
 107:test/../test/Threads_C_API_test.hpp **** 
 108:test/../test/Threads_C_API_test.hpp ****     while (!(finishedA && finishedB && finishedC && finishedD)) {
 109:test/../test/Threads_C_API_test.hpp ****         thread_dispatch();
 795              		.loc 1 109 9 is_stmt 1
 796              		.loc 1 109 24 is_stmt 0
GAS LISTING /tmp/ccBmC7mz.s 			page 20


 797 0590 97000000 		call	_Z15thread_dispatchv@plt
 797      E7800000 
 798              	.LVL100:
 799              	.L42:
 108:test/../test/Threads_C_API_test.hpp ****         thread_dispatch();
 800              		.loc 1 108 5 is_stmt 1
 108:test/../test/Threads_C_API_test.hpp ****         thread_dispatch();
 801              		.loc 1 108 12
 802 0598 97070000 		lbu	a5,.LANCHOR0
 802      83C70700 
 803 05a0 E38807FE 		beqz	a5,.L40
 108:test/../test/Threads_C_API_test.hpp ****         thread_dispatch();
 804              		.loc 1 108 24 is_stmt 0 discriminator 1
 805 05a4 97070000 		lbu	a5,.LANCHOR0+1
 805      83C70700 
 806 05ac E38207FE 		beqz	a5,.L40
 108:test/../test/Threads_C_API_test.hpp ****         thread_dispatch();
 807              		.loc 1 108 37 discriminator 2
 808 05b0 97070000 		lbu	a5,.LANCHOR0+2
 808      83C70700 
 809 05b8 E38C07FC 		beqz	a5,.L40
 108:test/../test/Threads_C_API_test.hpp ****         thread_dispatch();
 810              		.loc 1 108 12 discriminator 3
 811 05bc 97070000 		lbu	a5,.LANCHOR0+3
 811      83C70700 
 812 05c4 E38607FC 		beqz	a5,.L40
 110:test/../test/Threads_C_API_test.hpp ****     }
 111:test/../test/Threads_C_API_test.hpp **** 
 112:test/../test/Threads_C_API_test.hpp **** }
 813              		.loc 1 112 1
 814 05c8 83308102 		ld	ra,40(sp)
 815              		.cfi_restore 1
 816 05cc 03340102 		ld	s0,32(sp)
 817              		.cfi_restore 8
 818              		.cfi_def_cfa 2, 48
 819 05d0 13010103 		addi	sp,sp,48
 820              		.cfi_def_cfa_offset 0
 821 05d4 67800000 		jr	ra
 822              		.cfi_endproc
 823              	.LFE5:
 825              		.align	2
 826              		.globl	_Z8userMainv
 828              	_Z8userMainv:
 829              	.LFB6:
 830              		.file 2 "test/userMain.cpp"
   1:test/userMain.cpp **** #include "../test/Threads_C_API_test.hpp" // zadatak 2, niti C API i sinhrona promena konteksta
   2:test/userMain.cpp **** //#include "../test/Threads_CPP_API_test.hpp" // zadatak 2., niti CPP API i sinhrona promena kontek
   3:test/userMain.cpp **** 
   4:test/userMain.cpp **** //#include "../test/ConsumerProducer_C_API_test.h" // zadatak 3., kompletan C API sa semaforima, si
   5:test/userMain.cpp **** //#include "../test/ConsumerProducer_CPP_Sync_API_test.hpp" // zadatak 3., kompletan CPP API sa sem
   6:test/userMain.cpp **** 
   7:test/userMain.cpp **** //#include "../test/ThreadSleep_C_API_test.hpp" // thread_sleep test C API
   8:test/userMain.cpp **** //#include "../test/ConsumerProducer_CPP_API_test.hpp" // zadatak 4. CPP API i asinhrona promena ko
   9:test/userMain.cpp **** 
  10:test/userMain.cpp **** void userMain() {
 831              		.loc 2 10 17 is_stmt 1
 832              		.cfi_startproc
GAS LISTING /tmp/ccBmC7mz.s 			page 21


 833 05d8 130101FF 		addi	sp,sp,-16
 834              		.cfi_def_cfa_offset 16
 835 05dc 23341100 		sd	ra,8(sp)
 836 05e0 23308100 		sd	s0,0(sp)
 837              		.cfi_offset 1, -8
 838              		.cfi_offset 8, -16
 839 05e4 13040101 		addi	s0,sp,16
 840              		.cfi_def_cfa 8, 0
  11:test/userMain.cpp ****     Threads_C_API_test(); // zadatak 2., niti C API i sinhrona promena konteksta
 841              		.loc 2 11 5
 842              		.loc 2 11 23 is_stmt 0
 843 05e8 97000000 		call	_Z18Threads_C_API_testv
 843      E7800000 
 844              	.LVL101:
  12:test/userMain.cpp **** //    Threads_CPP_API_test(); // zadatak 2., niti CPP API i sinhrona promena konteksta
  13:test/userMain.cpp **** 
  14:test/userMain.cpp **** //    producerConsumer_C_API(); // zadatak 3., kompletan C API sa semaforima, sinhrona promena kont
  15:test/userMain.cpp ****     //producerConsumer_CPP_Sync_API(); // zadatak 3., kompletan CPP API sa semaforima, sinhrona pro
  16:test/userMain.cpp **** 
  17:test/userMain.cpp **** //    testSleeping(); // thread_sleep test C API
  18:test/userMain.cpp **** //    ConsumerProducerCPP::testConsumerProducer(); // zadatak 4. CPP API i asinhrona promena kontek
  19:test/userMain.cpp **** 
  20:test/userMain.cpp **** }...
 845              		.loc 2 20 1
 846 05f0 83308100 		ld	ra,8(sp)
 847              		.cfi_restore 1
 848 05f4 03340100 		ld	s0,0(sp)
 849              		.cfi_restore 8
 850              		.cfi_def_cfa 2, 16
 851 05f8 13010101 		addi	sp,sp,16
 852              		.cfi_def_cfa_offset 0
 853 05fc 67800000 		jr	ra
 854              		.cfi_endproc
 855              	.LFE6:
 857              		.globl	finishedD
 858              		.globl	finishedC
 859              		.globl	finishedB
 860              		.globl	finishedA
 861              		.bss
 862              		.set	.LANCHOR0,. + 0
 865              	finishedA:
 866 0000 00       		.zero	1
 869              	finishedB:
 870 0001 00       		.zero	1
 873              	finishedC:
 874 0002 00       		.zero	1
 877              	finishedD:
 878 0003 00       		.zero	1
 879              		.text
 880              	.Letext0:
 881              		.file 3 "test/../test/../h/../lib/hw.h"
 882              		.file 4 "test/../test/../h/syscall_c.h"
 883              		.file 5 "test/../test/printing.hpp"
GAS LISTING /tmp/ccBmC7mz.s 			page 22

